 uws

 Timestamp is 5b0c4105 (Mon May 28 14:48:53 2018)

 Preferred load address is 0000000180000000

 Start         Length     Name                   Class
 0001:00000000 000001e0H .text                   CODE
 0001:000001e0 00000320H .text$di                CODE
 0001:00000500 0005b7c0H .text$mn                CODE
 0001:0005bcc0 00000020H .text$mn$00             CODE
 0001:0005bce0 000010f0H .text$x                 CODE
 0001:0005cdd0 0000036eH .text$yd                CODE
 0002:00000000 00000468H .idata$5                DATA
 0002:00000468 00000010H .00cfg                  DATA
 0002:00000478 00000008H .CRT$XCA                DATA
 0002:00000480 00000068H .CRT$XCC                DATA
 0002:000004e8 00000010H .CRT$XCL                DATA
 0002:000004f8 00000058H .CRT$XCU                DATA
 0002:00000550 00000008H .CRT$XCZ                DATA
 0002:00000558 00000008H .CRT$XIA                DATA
 0002:00000560 00000030H .CRT$XIC                DATA
 0002:00000590 00000008H .CRT$XIZ                DATA
 0002:00000598 00000008H .CRT$XLA                DATA
 0002:000005a0 00000008H .CRT$XLZ                DATA
 0002:000005a8 00000008H .CRT$XPA                DATA
 0002:000005b0 00000008H .CRT$XPB                DATA
 0002:000005b8 00000010H .CRT$XPX                DATA
 0002:000005c8 00000008H .CRT$XPXA               DATA
 0002:000005d0 00000008H .CRT$XPZ                DATA
 0002:000005d8 00000008H .CRT$XTA                DATA
 0002:000005e0 00000010H .CRT$XTZ                DATA
 0002:000005f0 00013bd0H .rdata                  DATA
 0002:000141c0 00000028H .rdata$T                DATA
 0002:000141e8 00003968H .rdata$r                DATA
 0002:00017b50 00000010H .rdata$zETW0            DATA
 0002:00017b60 00000077H .rdata$zETW1            DATA
 0002:00017bd7 0000002cH .rdata$zETW2            DATA
 0002:00017c03 00000001H .rdata$zETW9            DATA
 0002:00017c04 0000052cH .rdata$zzzdbg           DATA
 0002:00018130 00000008H .rtc$IAA                DATA
 0002:00018138 00000008H .rtc$IZZ                DATA
 0002:00018140 00000008H .rtc$TAA                DATA
 0002:00018148 00000008H .rtc$TZZ                DATA
 0002:00018150 00005f08H .xdata                  DATA
 0002:0001e058 00000ac4H .xdata$x                DATA
 0002:0001eb1c 00000020H .didat$2                DATA
 0002:0001eb3c 00000024H .didat$3                DATA
 0002:0001eb60 00000360H .didat$4                DATA
 0002:0001eec0 00001410H .didat$6                DATA
 0002:000202d0 00000360H .didat$7                DATA
 0002:00020630 0000426cH .edata                  DATA
 0002:0002489c 0000003cH .idata$2                DATA
 0002:000248d8 00000018H .idata$3                DATA
 0002:000248f0 00000468H .idata$4                DATA
 0002:00024d58 0000093eH .idata$6                DATA
 0003:00000000 00000d60H .data                   DATA
 0003:00000d60 000024a0H .data$r                 DATA
 0003:00003200 00000360H .didat$5                DATA
 0003:00003560 00002864H .bss                    DATA
 0004:00000000 00005e50H .pdata                  DATA
 0005:00000000 000000b4H .gfids$x                DATA
 0005:000000b4 00000b34H .gfids$y                DATA
 0006:00000000 00000010H .tls                    DATA
 0006:00000010 00000051H .tls$                   DATA
 0006:00000061 00000001H .tls$ZZZ                DATA
 0007:00000000 00000060H .rsrc$01                DATA
 0007:00000060 00000180H .rsrc$02                DATA

  Address         Publics by Value              Rva+Base               Lib:Object

 0000:00000000       __guard_iat_count          0000000000000000     <absolute>
 0000:00000000       __dynamic_value_reloc_table 0000000000000000     <absolute>
 0000:00000000       __guard_iat_table          0000000000000000     <absolute>
 0000:00000000       __guard_fids_count         0000000000000000     <absolute>
 0000:00000000       ___safe_se_handler_table   0000000000000000     <absolute>
 0000:00000000       __guard_longjmp_table      0000000000000000     <absolute>
 0000:00000000       ___safe_se_handler_count   0000000000000000     <absolute>
 0000:00000000       __guard_longjmp_count      0000000000000000     <absolute>
 0000:00000000       __guard_fids_table         0000000000000000     <absolute>
 0000:00000100       __guard_flags              0000000000000100     <absolute>
 0000:00000000       __ImageBase                0000000180000000     <linker-defined>
 0001:00000000       ?TraceLoggingRegister@__vcrt_trace_logging_provider@@YAJPEBU_TlgProvider_t@1@PEBU_GUID@@P6AX1KE_K2PEAU_EVENT_FILTER_DESCRIPTOR@@PEAX@Z4@Z 0000000180001000 f i libvcruntime:telemetry.obj
 0001:0000007c       ?_TlgEnableCallback@__vcrt_trace_logging_provider@@YAXPEBU_GUID@@KE_K1PEAU_EVENT_FILTER_DESCRIPTOR@@PEAX@Z 000000018000107c f i libvcruntime:telemetry.obj
 0001:00000140       ?_TlgWrite@__vcrt_trace_logging_provider@@YAJPEBU_TlgProvider_t@1@PEFBXPEBU_GUID@@2IPEAU_EVENT_DATA_DESCRIPTOR@@@Z 0000000180001140 f i libvcruntime:telemetry.obj
 0001:00000500       ?_Deallocate@std@@YAXPEAX_K1@Z 0000000180001500 f i Extensions.obj
 0001:00000570       ??0ExtensionsParser@uWS@@QEAA@PEBD_K@Z 0000000180001570 f   Extensions.obj
 0001:00000740       ??1?$basic_string@DU?$char_traits@D@std@@V?$allocator@D@2@@std@@QEAA@XZ 0000000180001740 f i Extensions.obj
 0001:00000780       ??0?$basic_string@DU?$char_traits@D@std@@V?$allocator@D@2@@std@@QEAA@$$QEAV01@@Z 0000000180001780 f i Extensions.obj
 0001:00000800       ?append@?$basic_string@DU?$char_traits@D@std@@V?$allocator@D@2@@std@@QEAAAEAV12@PEBD_K@Z 0000000180001800 f i Extensions.obj
 0001:00000950       ?append@?$basic_string@DU?$char_traits@D@std@@V?$allocator@D@2@@std@@QEAAAEAV12@AEBV12@_K1@Z 0000000180001950 f i Extensions.obj
 0001:00000a80       ?_Assign_rv@?$basic_string@DU?$char_traits@D@std@@V?$allocator@D@2@@std@@QEAAX$$QEAV12@@Z 0000000180001a80 f i Extensions.obj
 0001:00000af0       ?deallocate@?$_Wrap_alloc@V?$allocator@D@std@@@std@@QEAAXPEAD_K@Z 0000000180001af0 f i Extensions.obj
 0001:00000b50       ?_Grow@?$basic_string@DU?$char_traits@D@std@@V?$allocator@D@2@@std@@QEAA_N_K_N@Z 0000000180001b50 f i Extensions.obj
 0001:00000c30       ?_Copy@?$basic_string@DU?$char_traits@D@std@@V?$allocator@D@2@@std@@QEAAX_K0@Z 0000000180001c30 f i Extensions.obj
 0001:00000d10       ?allocate@?$_Wrap_alloc@V?$allocator@D@std@@@std@@QEAAPEAD_K@Z 0000000180001d10 f i Extensions.obj
 0001:00000d80       ?CreateNodeTopology@ResourceManager@details@Concurrency@@UEAAXIPEAIPEAPEAI0@Z 0000000180001d80 f i libconcrt:ResourceManager.obj
 0001:00000d80       ?_Do_call@?$_Func_impl@V<lambda_a4841af2b27d100227ba4fc38e1775c0>@@V?$allocator@H@std@@XPEAU?$WebSocket@$00@uWS@@UHttpRequest@5@@std@@EEAAX$$QEAPEAU?$WebSocket@$00@uWS@@$$QEAUHttpRequest@4@@Z 0000000180001d80 f i Group.obj
 0001:00000d80       ?_Do_call@?$_Func_impl@V<lambda_f4f36bdfa1d4948f2a44b7caf93ba028>@@V?$allocator@H@std@@XPEAUHttpResponse@uWS@@@std@@EEAAX$$QEAPEAUHttpResponse@uWS@@@Z 0000000180001d80 f i Group.obj
 0001:00000d80       ?_Do_call@?$_Func_impl@V<lambda_a8ef02e52f510361621b8831e97d6fe5>@@V?$allocator@H@std@@XPEAUHttpResponse@uWS@@UHttpRequest@5@PEAD_K_K@std@@EEAAX$$QEAPEAUHttpResponse@uWS@@$$QEAUHttpRequest@4@$$QEAPEAD$$QEA_K3@Z 0000000180001d80 f i Group.obj
 0001:00000d80       ?_Do_call@?$_Func_impl@V<lambda_fee28d472d968bf8cf28d0644c64f87f>@@V?$allocator@H@std@@XPEAUHttpResponse@uWS@@UHttpRequest@5@PEAD_K_K@std@@EEAAX$$QEAPEAUHttpResponse@uWS@@$$QEAUHttpRequest@4@$$QEAPEAD$$QEA_K3@Z 0000000180001d80 f i Group.obj
 0001:00000d80       ?_Do_call@?$_Func_impl@V<lambda_14b7b541ae08ea1c954e985f6a5857b4>@@V?$allocator@H@std@@XPEAU?$WebSocket@$0A@@uWS@@PEAD_K@std@@EEAAX$$QEAPEAU?$WebSocket@$0A@@uWS@@$$QEAPEAD$$QEA_K@Z 0000000180001d80 f i Group.obj
 0001:00000d80       ?VirtualProcessorActiveNotification@SchedulerBase@details@Concurrency@@MEAAX_NJ@Z 0000000180001d80 f i libconcrt:SchedulerBase.obj
 0001:00000d80       ?_Do_call@?$_Func_impl@V<lambda_c6520c99f61bc482201622fd3ba6d6a8>@@V?$allocator@H@std@@XPEAU?$WebSocket@$00@uWS@@@std@@EEAAX$$QEAPEAU?$WebSocket@$00@uWS@@@Z 0000000180001d80 f i Group.obj
 0001:00000d80       ?destroy@stl_condition_variable_vista@details@Concurrency@@UEAAXXZ 0000000180001d80 f i libcpmt:cond.obj
 0001:00000d80       ?_Do_call@?$_Func_impl@V<lambda_7434f3cae99d0dcd112468417ee977b0>@@V?$allocator@H@std@@XPEAU?$HttpSocket@$00@uWS@@@std@@EEAAX$$QEAPEAU?$HttpSocket@$00@uWS@@@Z 0000000180001d80 f i Group.obj
 0001:00000d80       ?_Do_call@?$_Func_impl@V<lambda_a3ecdec81f70a9fe73dcb758a7fed5a7>@@V?$allocator@H@std@@XPEAU?$WebSocket@$00@uWS@@PEAD_K@std@@EEAAX$$QEAPEAU?$WebSocket@$00@uWS@@$$QEAPEAD$$QEA_K@Z 0000000180001d80 f i Group.obj
 0001:00000d80       ?_Do_call@?$_Func_impl@V<lambda_8cc912af1f457cfea0d4ba1cc691c089>@@V?$allocator@H@std@@XH@std@@EEAAX$$QEAH@Z 0000000180001d80 f i Group.obj
 0001:00000d80       ?RMAwaken@InternalContextBase@details@Concurrency@@EEAAXXZ 0000000180001d80 f i libconcrt:InternalContextBase.obj
 0001:00000d80       ?_Do_call@?$_Func_impl@V<lambda_192be0d4e8e564445903b882b614d20b>@@V?$allocator@H@std@@XPEAU?$HttpSocket@$0A@@uWS@@@std@@EEAAX$$QEAPEAU?$HttpSocket@$0A@@uWS@@@Z 0000000180001d80 f i Group.obj
 0001:00000d80       ?_Do_call@?$_Func_impl@V<lambda_1e1913856f7aaf7dc79da8070652544a>@@V?$allocator@H@std@@XPEAU?$WebSocket@$00@uWS@@HPEAD_K@std@@EEAAX$$QEAPEAU?$WebSocket@$00@uWS@@$$QEAH$$QEAPEAD$$QEA_K@Z 0000000180001d80 f i Group.obj
 0001:00000d80       __except_validate_context_record 0000000180001d80 f i libvcruntime:jbcxrval.obj
 0001:00000d80       ??3@YAXPEAX0@Z             0000000180001d80 f i libcpmt:mutex.obj
 0001:00000d80       ?_Do_call@?$_Func_impl@V<lambda_676b05d5fcd7eb23155de59028af8c84>@@V?$allocator@H@std@@XPEAU?$WebSocket@$0A@@uWS@@HPEAD_K@std@@EEAAX$$QEAPEAU?$WebSocket@$0A@@uWS@@$$QEAH$$QEAPEAD$$QEA_K@Z 0000000180001d80 f i Group.obj
 0001:00000d80       ?cork@Socket@uS@@QEAAXH@Z  0000000180001d80 f i Group.obj
 0001:00000d80       ??$destroy@PEAD@?$_Wrap_alloc@V?$allocator@D@std@@@std@@QEAAXPEAPEAD@Z 0000000180001d80 f i Extensions.obj
 0001:00000d80       ?_Lock@?$basic_streambuf@DU?$char_traits@D@std@@@std@@UEAAXXZ 0000000180001d80 f i libcpmt:cout.obj
 0001:00000d80       ?resume@Request@HttpServer@@SAXAEBV?$FunctionCallbackInfo@VValue@v8@@@v8@@@Z 0000000180001d80 f i addon.obj
 0001:00000d80       ?_Do_call@?$_Func_impl@V<lambda_2be8697520db48762f797b9c727a68ff>@@V?$allocator@H@std@@XPEAUHttpResponse@uWS@@PEAD_K_K@std@@EEAAX$$QEAPEAUHttpResponse@uWS@@$$QEAPEAD$$QEA_K2@Z 0000000180001d80 f i Group.obj
 0001:00000d80       ?imbue@?$basic_streambuf@DU?$char_traits@D@std@@@std@@MEAAXAEBVlocale@2@@Z 0000000180001d80 f i libcpmt:cout.obj
 0001:00000d80       ?setHeader@Response@HttpServer@@SAXAEBV?$FunctionCallbackInfo@VValue@v8@@@v8@@@Z 0000000180001d80 f i addon.obj
 0001:00000d80       _guard_check_icall_nop     0000000180001d80 f i LIBCMT:guard_support.obj
 0001:00000d80       ?destroy@stl_critical_section_win7@details@Concurrency@@UEAAXXZ 0000000180001d80 f i libcpmt:mutex.obj
 0001:00000d80       ?_Do_call@?$_Func_impl@V<lambda_44c2ae3261b8a3837fe161100d7627a5>@@V?$allocator@H@std@@XPEAU?$WebSocket@$0A@@uWS@@@std@@EEAAX$$QEAPEAU?$WebSocket@$0A@@uWS@@@Z 0000000180001d80 f i Group.obj
 0001:00000d80       ?_Do_call@?$_Func_impl@V<lambda_be55859939e08d27a0fb932e2b03dde6>@@V?$allocator@H@std@@XPEAUHttpResponse@uWS@@@std@@EEAAX$$QEAPEAUHttpResponse@uWS@@@Z 0000000180001d80 f i Group.obj
 0001:00000d80       ?NotifyAffinitizedWork@FairScheduleGroupSegment@details@Concurrency@@UEAAXXZ 0000000180001d80 f i libconcrt:SchedulerBase.obj
 0001:00000d80       ?getHeader@Response@HttpServer@@SAXAEBV?$FunctionCallbackInfo@VValue@v8@@@v8@@@Z 0000000180001d80 f i addon.obj
 0001:00000d80       ?unpipe@Request@HttpServer@@SAXAEBV?$FunctionCallbackInfo@VValue@v8@@@v8@@@Z 0000000180001d80 f i addon.obj
 0001:00000d80       ?_Do_call@?$_Func_impl@V<lambda_a9a913c8f103bffe7fddf72259ae7d5c>@@V?$allocator@H@std@@XPEAU?$WebSocket@$0A@@uWS@@PEAD_KW4OpCode@5@@std@@EEAAX$$QEAPEAU?$WebSocket@$0A@@uWS@@$$QEAPEAD$$QEA_K$$QEAW4OpCode@4@@Z 0000000180001d80 f i Group.obj
 0001:00000d80       ?_Do_call@?$_Func_impl@V<lambda_d881a2c7a1e94701640214c77e3dc049>@@V?$allocator@H@std@@XPEAU?$WebSocket@$0A@@uWS@@UHttpRequest@5@@std@@EEAAX$$QEAPEAU?$WebSocket@$0A@@uWS@@$$QEAUHttpRequest@4@@Z 0000000180001d80 f i Group.obj
 0001:00000d80       ?_Do_call@?$_Func_impl@V<lambda_93c0d08600f8b6900f0f2f49a4d25d7a>@@V?$allocator@H@std@@XPEAU?$HttpSocket@$00@uWS@@@std@@EEAAX$$QEAPEAU?$HttpSocket@$00@uWS@@@Z 0000000180001d80 f i Group.obj
 0001:00000d80       ?Destroy@WaitAnyBlock@details@Concurrency@@UEAAXXZ 0000000180001d80 f i libconcrt:event.obj
 0001:00000d80       ?_Do_call@?$_Func_impl@V<lambda_e97c96979ea8c6fefbbf0e4dbcda2be5>@@V?$allocator@H@std@@XPEAU?$HttpSocket@$0A@@uWS@@@std@@EEAAX$$QEAPEAU?$HttpSocket@$0A@@uWS@@@Z 0000000180001d80 f i Group.obj
 0001:00000d80       ?NotifyResourcesExternallyBusy@ThreadScheduler@details@Concurrency@@UEAAXPEAPEAUIVirtualProcessorRoot@3@I@Z 0000000180001d80 f i libconcrt:ThreadScheduler.obj
 0001:00000d80       ?_Do_call@?$_Func_impl@V<lambda_90c955ed1fea1ab5aabbcf78f378525c>@@V?$allocator@H@std@@XPEAUHttpResponse@uWS@@PEAD_K_K@std@@EEAAX$$QEAPEAUHttpResponse@uWS@@$$QEAPEAD$$QEA_K2@Z 0000000180001d80 f i Group.obj
 0001:00000d80       ?destroy@stl_condition_variable_win7@details@Concurrency@@UEAAXXZ 0000000180001d80 f i libcpmt:cond.obj
 0001:00000d80       ??1critical_section@Concurrency@@QEAA@XZ 0000000180001d80 f i libconcrt:rtlocks.obj
 0001:00000d80       ?NotifyResourcesExternallyIdle@ThreadScheduler@details@Concurrency@@UEAAXPEAPEAUIVirtualProcessorRoot@3@I@Z 0000000180001d80 f i libconcrt:ThreadScheduler.obj
 0001:00000d80       ?_Do_call@?$_Func_impl@V<lambda_e5e8c2fb959005491ebaf75befe1e41f>@@V?$allocator@H@std@@XPEAU?$WebSocket@$00@uWS@@PEAD_KW4OpCode@5@@std@@EEAAX$$QEAPEAU?$WebSocket@$00@uWS@@$$QEAPEAD$$QEA_K$$QEAW4OpCode@4@@Z 0000000180001d80 f i Group.obj
 0001:00000d80       ?_Doraise@exception@stdext@@MEBAXXZ 0000000180001d80 f i addon.obj
 0001:00000d80       ?_Unlock@?$basic_streambuf@DU?$char_traits@D@std@@@std@@UEAAXXZ 0000000180001d80 f i libcpmt:cout.obj
 0001:00000d80       ?_Do_call@?$_Func_impl@V<lambda_28546b2bf5fff94df39539b2c8fdbe8e>@@V?$allocator@H@std@@XPEAX@std@@EEAAX$$QEAPEAX@Z 0000000180001d80 f i Group.obj
 0001:00000dc0       ?passwordCallback@Context@TLS@uS@@CAHPEADHHPEAX@Z 0000000180001dc0 f i Group.obj
 0001:00000e10       ??0Context@TLS@uS@@QEAA@PEAUssl_ctx_st@@@Z 0000000180001e10 f i Group.obj
 0001:00000e30       ??BContext@TLS@uS@@QEAA_NXZ 0000000180001e30 f i Group.obj
 0001:00000e40       ?getLoop@Node@uS@@QEAAPEAULoop@2@XZ 0000000180001e40 f i Group.obj
 0001:00000e40       ?getNativeContext@Context@TLS@uS@@QEAAPEAUssl_ctx_st@@XZ 0000000180001e40 f i Group.obj
 0001:00000e40       ??C?$shared_ptr@V__ExceptionPtr@@@std@@QEBAPEAV__ExceptionPtr@@XZ 0000000180001e40 f i libcpmt:excptptr.obj
 0001:00000e50       ??0Context@TLS@uS@@QEAA@XZ 0000000180001e50 f i Group.obj
 0001:00000e70       ?getMemoryBlockIndex@NodeData@uS@@SAH_K@Z 0000000180001e70 f i Group.obj
 0001:00000e90       ?getSmallMemoryBlock@NodeData@uS@@QEAAPEADH@Z 0000000180001e90 f i Group.obj
 0001:00000ec0       ?freeSmallMemoryBlock@NodeData@uS@@QEAAXPEADH@Z 0000000180001ec0 f i Group.obj
 0001:00000ee0       ?addAsync@NodeData@uS@@QEAAXXZ 0000000180001ee0 f i Group.obj
 0001:00000f20       ?clearPendingPollChanges@NodeData@uS@@QEAAXPEAUPoll@2@@Z 0000000180001f20 f i Group.obj
 0001:00001000       ??0NodeData@uS@@QEAA@XZ    0000000180002000 f i Group.obj
 0001:00001030       ??1NodeData@uS@@QEAA@XZ    0000000180002030 f i Group.obj
 0001:000010a0       ??0NodeData@uS@@QEAA@AEBU01@@Z 00000001800020a0 f i Group.obj
 0001:00001130       ??0NodeData@uS@@QEAA@$$QEAU01@@Z 0000000180002130 f i Group.obj
 0001:00001200       ??4NodeData@uS@@QEAAAEAU01@AEBU01@@Z 0000000180002200 f i Group.obj
 0001:00001290       ??4NodeData@uS@@QEAAAEAU01@$$QEAU01@@Z 0000000180002290 f i Group.obj
 0001:00001320       ?getPoll@Socket@uS@@IEAAHXZ 0000000180002320 f i Group.obj
 0001:00001330       ?setPoll@Socket@uS@@IEAAHH@Z 0000000180002330 f i Group.obj
 0001:00001340       ?setShuttingDown@Socket@uS@@IEAAX_N@Z 0000000180002340 f i Group.obj
 0001:00001360       ?transfer@Socket@uS@@IEAAXPEAUNodeData@2@P6AXPEAUPoll@2@@Z@Z 0000000180002360 f i Group.obj
 0001:00001550       ?changePoll@Socket@uS@@IEAAXPEAU12@@Z 0000000180002550 f i Group.obj
 0001:00001670       ?cancelTimeout@Socket@uS@@IEAAXXZ 0000000180002670 f i Group.obj
 0001:000016c0       ?hasEmptyQueue@Socket@uS@@IEAA_NXZ 00000001800026c0 f i Group.obj
 0001:000016d0       ?enqueue@Socket@uS@@IEAAXPEAUMessage@Queue@12@@Z 00000001800026d0 f i Group.obj
 0001:00001700       ?allocMessage@Socket@uS@@IEAAPEAUMessage@Queue@12@_KPEBD@Z 0000000180002700 f i Group.obj
 0001:00001760       ?freeMessage@Socket@uS@@IEAAXPEAUMessage@Queue@12@@Z 0000000180002760 f i Group.obj
 0001:00001770       ?write@Socket@uS@@IEAA_NPEAUMessage@Queue@12@AEA_N@Z 0000000180002770 f i Group.obj
 0001:000018b0       ??0Socket@uS@@QEAA@PEAUNodeData@1@PEAULoop@1@_KPEAUssl_st@@@Z 00000001800028b0 f i Group.obj
 0001:00001950       ?getNodeData@Socket@uS@@QEAAPEAUNodeData@2@XZ 0000000180002950 f i Group.obj
 0001:00001950       ?from@?$Group@$00@uWS@@SAPEAU12@PEAUSocket@uS@@@Z 0000000180002950 f i Group.obj
 0001:00001950       ?from@?$Group@$0A@@uWS@@SAPEAU12@PEAUSocket@uS@@@Z 0000000180002950 f i Group.obj
 0001:00001960       ?getUserData@Socket@uS@@QEAAPEAXXZ 0000000180002960 f i Group.obj
 0001:00001970       ?setUserData@Socket@uS@@QEAAXPEAX@Z 0000000180002970 f i Group.obj
 0001:00001980       ?setNoDelay@Socket@uS@@QEAAXH@Z 0000000180002980 f i Group.obj
 0001:000019c0       ?shutdown@Socket@uS@@QEAAXXZ 00000001800029c0 f i Group.obj
 0001:00001a00       ?isShuttingDown@Socket@uS@@QEAA_NXZ 0000000180002a00 f i Group.obj
 0001:00001a10       ??1Socket@uS@@QEAA@XZ      0000000180002a10 f i Group.obj
 0001:00001a20       ??0Socket@uS@@QEAA@$$QEAU01@@Z 0000000180002a20 f i Group.obj
 0001:00001a70       ??1?$HttpSocket@$0A@@uWS@@QEAA@XZ 0000000180002a70 f i Group.obj
 0001:00001a70       ??1?$HttpSocket@$00@uWS@@QEAA@XZ 0000000180002a70 f i Group.obj
 0001:00001a70       ??1?$WebSocket@$00@uWS@@QEAA@XZ 0000000180002a70 f i Group.obj
 0001:00001ad0       ??0?$HttpSocket@$00@uWS@@QEAA@$$QEAU01@@Z 0000000180002ad0 f i Group.obj
 0001:00001ad0       ??0?$HttpSocket@$0A@@uWS@@QEAA@$$QEAU01@@Z 0000000180002ad0 f i Group.obj
 0001:00001b90       ??_FNode@uS@@QEAAXXZ       0000000180002b90 f i Group.obj
 0001:00001bb0       ??0Hub@uWS@@QEAA@H_NI@Z    0000000180002bb0 f i Group.obj
 0001:00001c90       ??1Hub@uWS@@QEAA@XZ        0000000180002c90 f i Group.obj
 0001:00001d10       ??1?$Group@$0A@@uWS@@QEAA@XZ 0000000180002d10 f i Group.obj
 0001:00001d10       ??1?$Group@$00@uWS@@QEAA@XZ 0000000180002d10 f i Group.obj
 0001:00001f30       ??0?$Group@$00@uWS@@QEAA@AEBU01@@Z 0000000180002f30 f i Group.obj
 0001:00001f30       ??0?$Group@$0A@@uWS@@QEAA@AEBU01@@Z 0000000180002f30 f i Group.obj
 0001:00002200       ??0?$Group@$00@uWS@@QEAA@$$QEAU01@@Z 0000000180003200 f i Group.obj
 0001:00002200       ??0?$Group@$0A@@uWS@@QEAA@$$QEAU01@@Z 0000000180003200 f i Group.obj
 0001:000023b0       ??4?$Group@$00@uWS@@QEAAAEAU01@AEBU01@@Z 00000001800033b0 f i Group.obj
 0001:000023b0       ??4?$Group@$0A@@uWS@@QEAAAEAU01@AEBU01@@Z 00000001800033b0 f i Group.obj
 0001:00002570       ??4?$Group@$00@uWS@@QEAAAEAU01@$$QEAU01@@Z 0000000180003570 f i Group.obj
 0001:00002570       ??4?$Group@$0A@@uWS@@QEAAAEAU01@$$QEAU01@@Z 0000000180003570 f i Group.obj
 0001:00002950       ??_FHub@uWS@@QEAAXXZ       0000000180003950 f i Group.obj
 0001:00002960       ??4?$WebSocketProtocol@$00U?$WebSocket@$00@uWS@@@uWS@@QEAAAEAV01@$$QEAV01@@Z 0000000180003960 f i Group.obj
 0001:00002960       ?setbuf@?$basic_streambuf@DU?$char_traits@D@std@@@std@@MEAAPEAV12@PEAD_J@Z 0000000180003960 f i libcpmt:cout.obj
 0001:00002960       ??4?$WebSocketProtocol@$00U?$WebSocket@$00@uWS@@@uWS@@QEAAAEAV01@AEBV01@@Z 0000000180003960 f i Group.obj
 0001:00002960       ??4?$WebSocketProtocol@$0A@U?$WebSocket@$0A@@uWS@@@uWS@@QEAAAEAV01@$$QEAV01@@Z 0000000180003960 f i WebSocket.obj
 0001:00002960       ??4?$WebSocketProtocol@$0A@U?$WebSocket@$0A@@uWS@@@uWS@@QEAAAEAV01@AEBV01@@Z 0000000180003960 f i WebSocket.obj
 0001:00002970       ??0?$function@$$A6AXPEAU?$HttpSocket@$0A@@uWS@@@Z@std@@QEAA@$$QEAV01@@Z 0000000180003970 f i Group.obj
 0001:00002970       ??0?$function@$$A6AXPEAX@Z@std@@QEAA@$$QEAV01@@Z 0000000180003970 f i Group.obj
 0001:00002970       ??0?$function@$$A6AXPEAU?$WebSocket@$0A@@uWS@@PEAD_K@Z@std@@QEAA@$$QEAV01@@Z 0000000180003970 f i Group.obj
 0001:00002970       ??0?$function@$$A6AXPEAU?$WebSocket@$0A@@uWS@@UHttpRequest@2@@Z@std@@QEAA@$$QEAV01@@Z 0000000180003970 f i Group.obj
 0001:00002970       ??0?$function@$$A6AXPEAU?$HttpSocket@$00@uWS@@@Z@std@@QEAA@$$QEAV01@@Z 0000000180003970 f i Group.obj
 0001:00002970       ??0?$function@$$A6AXPEAU?$WebSocket@$00@uWS@@HPEAD_K@Z@std@@QEAA@$$QEAV01@@Z 0000000180003970 f i Group.obj
 0001:00002970       ??0?$function@$$A6AXPEAU?$HttpSocket@$0A@@uWS@@UHttpRequest@2@@Z@std@@QEAA@$$QEAV01@@Z 0000000180003970 f i Group.obj
 0001:00002970       ??0?$function@$$A6AXPEAU?$WebSocket@$00@uWS@@UHttpRequest@2@@Z@std@@QEAA@$$QEAV01@@Z 0000000180003970 f i Group.obj
 0001:00002970       ??0?$function@$$A6AXPEAU?$WebSocket@$0A@@uWS@@PEAD_KW4OpCode@2@@Z@std@@QEAA@$$QEAV01@@Z 0000000180003970 f i Group.obj
 0001:00002970       ??0?$function@$$A6AXPEAU?$WebSocket@$00@uWS@@PEAD_KW4OpCode@2@@Z@std@@QEAA@$$QEAV01@@Z 0000000180003970 f i Group.obj
 0001:00002970       ??0?$function@$$A6AXPEAUHttpResponse@uWS@@UHttpRequest@2@PEAD_K3@Z@std@@QEAA@$$QEAV01@@Z 0000000180003970 f i Group.obj
 0001:00002970       ??0?$function@$$A6AXPEAU?$WebSocket@$00@uWS@@PEAD_K@Z@std@@QEAA@$$QEAV01@@Z 0000000180003970 f i Group.obj
 0001:00002970       ??0?$function@$$A6AXPEAU?$WebSocket@$0A@@uWS@@@Z@std@@QEAA@$$QEAV01@@Z 0000000180003970 f i Group.obj
 0001:00002970       ??0?$function@$$A6AXPEAUHttpResponse@uWS@@PEAD_K2@Z@std@@QEAA@$$QEAV01@@Z 0000000180003970 f i Group.obj
 0001:00002970       ??0?$function@$$A6AXPEAU?$WebSocket@$00@uWS@@@Z@std@@QEAA@$$QEAV01@@Z 0000000180003970 f i Group.obj
 0001:00002970       ??0?$function@$$A6AXH@Z@std@@QEAA@$$QEAV01@@Z 0000000180003970 f i Group.obj
 0001:00002970       ??0?$function@$$A6AXPEAU?$HttpSocket@$00@uWS@@UHttpRequest@2@@Z@std@@QEAA@$$QEAV01@@Z 0000000180003970 f i Group.obj
 0001:00002970       ??0?$function@$$A6AXPEAUHttpResponse@uWS@@@Z@std@@QEAA@$$QEAV01@@Z 0000000180003970 f i Group.obj
 0001:00002970       ??0?$function@$$A6AXPEAU?$WebSocket@$0A@@uWS@@HPEAD_K@Z@std@@QEAA@$$QEAV01@@Z 0000000180003970 f i Group.obj
 0001:000029f0       ??$?4AEAV?$function@$$A6AXPEAU?$WebSocket@$00@uWS@@@Z@std@@XX@?$function@$$A6AXPEAU?$WebSocket@$00@uWS@@@Z@std@@QEAAAEAV01@AEAV01@@Z 00000001800039f0 f i Group.obj
 0001:000029f0       ??4?$function@$$A6AXPEAUHttpResponse@uWS@@UHttpRequest@2@PEAD_K3@Z@std@@QEAAAEAV01@AEBV01@@Z 00000001800039f0 f i Group.obj
 0001:000029f0       ??$?4AEAV?$function@$$A6AXPEAU?$WebSocket@$00@uWS@@UHttpRequest@2@@Z@std@@XX@?$function@$$A6AXPEAU?$WebSocket@$00@uWS@@UHttpRequest@2@@Z@std@@QEAAAEAV01@AEAV01@@Z 00000001800039f0 f i Group.obj
 0001:000029f0       ??4?$function@$$A6AXPEAU?$WebSocket@$0A@@uWS@@PEAD_K@Z@std@@QEAAAEAV01@AEBV01@@Z 00000001800039f0 f i Group.obj
 0001:000029f0       ??$?4AEAV?$function@$$A6AXPEAU?$HttpSocket@$0A@@uWS@@UHttpRequest@2@@Z@std@@XX@?$function@$$A6AXPEAU?$HttpSocket@$0A@@uWS@@UHttpRequest@2@@Z@std@@QEAAAEAV01@AEAV01@@Z 00000001800039f0 f i Group.obj
 0001:000029f0       ??$?4AEAV?$function@$$A6AXPEAU?$HttpSocket@$00@uWS@@UHttpRequest@2@@Z@std@@XX@?$function@$$A6AXPEAU?$HttpSocket@$00@uWS@@UHttpRequest@2@@Z@std@@QEAAAEAV01@AEAV01@@Z 00000001800039f0 f i Group.obj
 0001:000029f0       ??$?4AEAV?$function@$$A6AXPEAU?$WebSocket@$0A@@uWS@@PEAD_KW4OpCode@2@@Z@std@@XX@?$function@$$A6AXPEAU?$WebSocket@$0A@@uWS@@PEAD_KW4OpCode@2@@Z@std@@QEAAAEAV01@AEAV01@@Z 00000001800039f0 f i Group.obj
 0001:000029f0       ??4?$function@$$A6AXPEAUHttpResponse@uWS@@@Z@std@@QEAAAEAV01@AEBV01@@Z 00000001800039f0 f i Group.obj
 0001:000029f0       ??$?4AEAV?$function@$$A6AXPEAUHttpResponse@uWS@@@Z@std@@XX@?$function@$$A6AXPEAUHttpResponse@uWS@@@Z@std@@QEAAAEAV01@AEAV01@@Z 00000001800039f0 f i Group.obj
 0001:000029f0       ??$?4AEAV?$function@$$A6AXPEAU?$WebSocket@$0A@@uWS@@HPEAD_K@Z@std@@XX@?$function@$$A6AXPEAU?$WebSocket@$0A@@uWS@@HPEAD_K@Z@std@@QEAAAEAV01@AEAV01@@Z 00000001800039f0 f i Group.obj
 0001:000029f0       ??$?4AEAV?$function@$$A6AXPEAUHttpResponse@uWS@@UHttpRequest@2@PEAD_K3@Z@std@@XX@?$function@$$A6AXPEAUHttpResponse@uWS@@UHttpRequest@2@PEAD_K3@Z@std@@QEAAAEAV01@AEAV01@@Z 00000001800039f0 f i Group.obj
 0001:000029f0       ??4?$function@$$A6AXPEAU?$WebSocket@$00@uWS@@UHttpRequest@2@@Z@std@@QEAAAEAV01@AEBV01@@Z 00000001800039f0 f i Group.obj
 0001:000029f0       ??$?4AEAV?$function@$$A6AXPEAU?$WebSocket@$0A@@uWS@@PEAD_K@Z@std@@XX@?$function@$$A6AXPEAU?$WebSocket@$0A@@uWS@@PEAD_K@Z@std@@QEAAAEAV01@AEAV01@@Z 00000001800039f0 f i Group.obj
 0001:000029f0       ??4?$function@$$A6AXPEAU?$WebSocket@$00@uWS@@@Z@std@@QEAAAEAV01@AEBV01@@Z 00000001800039f0 f i Group.obj
 0001:000029f0       ??$?4AEAV?$function@$$A6AXH@Z@std@@XX@?$function@$$A6AXH@Z@std@@QEAAAEAV01@AEAV01@@Z 00000001800039f0 f i Group.obj
 0001:000029f0       ??$?4AEAV?$function@$$A6AXPEAU?$WebSocket@$0A@@uWS@@UHttpRequest@2@@Z@std@@XX@?$function@$$A6AXPEAU?$WebSocket@$0A@@uWS@@UHttpRequest@2@@Z@std@@QEAAAEAV01@AEAV01@@Z 00000001800039f0 f i Group.obj
 0001:000029f0       ??4?$function@$$A6AXPEAU?$WebSocket@$00@uWS@@PEAD_KW4OpCode@2@@Z@std@@QEAAAEAV01@AEBV01@@Z 00000001800039f0 f i Group.obj
 0001:000029f0       ??4?$function@$$A6AXPEAUHttpResponse@uWS@@PEAD_K2@Z@std@@QEAAAEAV01@AEBV01@@Z 00000001800039f0 f i Group.obj
 0001:000029f0       ??$?4AEAV?$function@$$A6AXPEAU?$HttpSocket@$00@uWS@@@Z@std@@XX@?$function@$$A6AXPEAU?$HttpSocket@$00@uWS@@@Z@std@@QEAAAEAV01@AEAV01@@Z 00000001800039f0 f i Group.obj
 0001:000029f0       ??4?$function@$$A6AXPEAU?$WebSocket@$0A@@uWS@@UHttpRequest@2@@Z@std@@QEAAAEAV01@AEBV01@@Z 00000001800039f0 f i Group.obj
 0001:000029f0       ??4?$function@$$A6AXPEAU?$WebSocket@$0A@@uWS@@HPEAD_K@Z@std@@QEAAAEAV01@AEBV01@@Z 00000001800039f0 f i Group.obj
 0001:000029f0       ??$?4AEAV?$function@$$A6AXPEAX@Z@std@@XX@?$function@$$A6AXPEAX@Z@std@@QEAAAEAV01@AEAV01@@Z 00000001800039f0 f i Group.obj
 0001:000029f0       ??4?$function@$$A6AXPEAU?$WebSocket@$0A@@uWS@@@Z@std@@QEAAAEAV01@AEBV01@@Z 00000001800039f0 f i Group.obj
 0001:000029f0       ??$?4AEAV?$function@$$A6AXPEAU?$HttpSocket@$0A@@uWS@@@Z@std@@XX@?$function@$$A6AXPEAU?$HttpSocket@$0A@@uWS@@@Z@std@@QEAAAEAV01@AEAV01@@Z 00000001800039f0 f i Group.obj
 0001:000029f0       ??4?$function@$$A6AXPEAX@Z@std@@QEAAAEAV01@AEBV01@@Z 00000001800039f0 f i Group.obj
 0001:000029f0       ??4?$function@$$A6AXPEAU?$WebSocket@$00@uWS@@PEAD_K@Z@std@@QEAAAEAV01@AEBV01@@Z 00000001800039f0 f i Group.obj
 0001:000029f0       ??$?4AEAV?$function@$$A6AXPEAU?$WebSocket@$0A@@uWS@@@Z@std@@XX@?$function@$$A6AXPEAU?$WebSocket@$0A@@uWS@@@Z@std@@QEAAAEAV01@AEAV01@@Z 00000001800039f0 f i Group.obj
 0001:000029f0       ??4?$function@$$A6AXPEAU?$HttpSocket@$00@uWS@@UHttpRequest@2@@Z@std@@QEAAAEAV01@AEBV01@@Z 00000001800039f0 f i Group.obj
 0001:000029f0       ??$?4AEAV?$function@$$A6AXPEAU?$WebSocket@$00@uWS@@HPEAD_K@Z@std@@XX@?$function@$$A6AXPEAU?$WebSocket@$00@uWS@@HPEAD_K@Z@std@@QEAAAEAV01@AEAV01@@Z 00000001800039f0 f i Group.obj
 0001:000029f0       ??4?$function@$$A6AXPEAU?$WebSocket@$00@uWS@@HPEAD_K@Z@std@@QEAAAEAV01@AEBV01@@Z 00000001800039f0 f i Group.obj
 0001:000029f0       ??4?$function@$$A6AXPEAU?$HttpSocket@$0A@@uWS@@@Z@std@@QEAAAEAV01@AEBV01@@Z 00000001800039f0 f i Group.obj
 0001:000029f0       ??4?$function@$$A6AXPEAU?$HttpSocket@$0A@@uWS@@UHttpRequest@2@@Z@std@@QEAAAEAV01@AEBV01@@Z 00000001800039f0 f i Group.obj
 0001:000029f0       ??4?$function@$$A6AXPEAU?$HttpSocket@$00@uWS@@@Z@std@@QEAAAEAV01@AEBV01@@Z 00000001800039f0 f i Group.obj
 0001:000029f0       ??$?4AEAV?$function@$$A6AXPEAU?$WebSocket@$00@uWS@@PEAD_KW4OpCode@2@@Z@std@@XX@?$function@$$A6AXPEAU?$WebSocket@$00@uWS@@PEAD_KW4OpCode@2@@Z@std@@QEAAAEAV01@AEAV01@@Z 00000001800039f0 f i Group.obj
 0001:000029f0       ??4?$function@$$A6AXPEAU?$WebSocket@$0A@@uWS@@PEAD_KW4OpCode@2@@Z@std@@QEAAAEAV01@AEBV01@@Z 00000001800039f0 f i Group.obj
 0001:000029f0       ??$?4AEAV?$function@$$A6AXPEAUHttpResponse@uWS@@PEAD_K2@Z@std@@XX@?$function@$$A6AXPEAUHttpResponse@uWS@@PEAD_K2@Z@std@@QEAAAEAV01@AEAV01@@Z 00000001800039f0 f i Group.obj
 0001:000029f0       ??4?$function@$$A6AXH@Z@std@@QEAAAEAV01@AEBV01@@Z 00000001800039f0 f i Group.obj
 0001:000029f0       ??$?4AEAV?$function@$$A6AXPEAU?$WebSocket@$00@uWS@@PEAD_K@Z@std@@XX@?$function@$$A6AXPEAU?$WebSocket@$00@uWS@@PEAD_K@Z@std@@QEAAAEAV01@AEAV01@@Z 00000001800039f0 f i Group.obj
 0001:00002a70       ?listen@?$Group@$0A@@uWS@@QEAAXW4ListenOptions@2@@Z 0000000180003a70 f i Group.obj
 0001:00002a70       ?listen@?$Group@$00@uWS@@QEAAXW4ListenOptions@2@@Z 0000000180003a70 f i Group.obj
 0001:00002ac0       ?addAsync@?$Group@$0A@@uWS@@QEAAXXZ 0000000180003ac0 f i Group.obj
 0001:00002ac0       ?addAsync@?$Group@$00@uWS@@QEAAXXZ 0000000180003ac0 f i Group.obj
 0001:00002b10       ??4?$vector@PEAUPoll@uS@@V?$allocator@PEAUPoll@uS@@@std@@@std@@QEAAAEAV01@AEBV01@@Z 0000000180003b10 f i Group.obj
 0001:00002c40       ??4?$vector@PEAUPoll@uS@@V?$allocator@PEAUPoll@uS@@@std@@@std@@QEAAAEAV01@$$QEAV01@@Z 0000000180003c40 f i Group.obj
 0001:00002cc0       ??0?$vector@PEAUPoll@uS@@V?$allocator@PEAUPoll@uS@@@std@@@std@@QEAA@AEBV01@@Z 0000000180003cc0 f i Group.obj
 0001:00002d70       ??0?$WebSocketState@$0A@@uWS@@QEAA@XZ 0000000180003d70 f i Group.obj
 0001:00002d90       ??4?$WebSocketState@$0A@@uWS@@QEAAAEAU01@$$QEAU01@@Z 0000000180003d90 f i Group.obj
 0001:00002db0       ??4?$WebSocketState@$0A@@uWS@@QEAAAEAU01@AEBU01@@Z 0000000180003db0 f i Group.obj
 0001:00002dd0       ??1?$WebSocket@$0A@@uWS@@QEAA@XZ 0000000180003dd0 f i Group.obj
 0001:00002e30       ??0?$WebSocket@$0A@@uWS@@QEAA@$$QEAU01@@Z 0000000180003e30 f i Group.obj
 0001:00002ee0       ??0?$WebSocketState@$00@uWS@@QEAA@XZ 0000000180003ee0 f i Group.obj
 0001:00002f00       ??4?$WebSocketState@$00@uWS@@QEAAAEAU01@$$QEAU01@@Z 0000000180003f00 f i Group.obj
 0001:00002f40       ??4?$WebSocketState@$00@uWS@@QEAAAEAU01@AEBU01@@Z 0000000180003f40 f i Group.obj
 0001:00002f60       ??0?$WebSocket@$00@uWS@@QEAA@$$QEAU01@@Z 0000000180003f60 f i Group.obj
 0001:00003020       ?_Reset_move@?$_Func_class@XPEAU?$HttpSocket@$00@uWS@@@std@@IEAAX$$QEAV12@@Z 0000000180004020 f i Group.obj
 0001:00003020       ?_Reset_move@?$_Func_class@XPEAU?$WebSocket@$00@uWS@@UHttpRequest@2@@std@@IEAAX$$QEAV12@@Z 0000000180004020 f i Group.obj
 0001:00003020       ?_Reset_move@?$_Func_class@XPEAU?$WebSocket@$00@uWS@@PEAD_KW4OpCode@2@@std@@IEAAX$$QEAV12@@Z 0000000180004020 f i Group.obj
 0001:00003020       ?_Reset_move@?$_Func_class@XPEAU?$WebSocket@$0A@@uWS@@UHttpRequest@2@@std@@IEAAX$$QEAV12@@Z 0000000180004020 f i Group.obj
 0001:00003020       ?_Reset_move@?$_Func_class@XPEAU?$WebSocket@$00@uWS@@PEAD_K@std@@IEAAX$$QEAV12@@Z 0000000180004020 f i Group.obj
 0001:00003020       ?_Reset_move@?$_Func_class@XPEAU?$HttpSocket@$0A@@uWS@@UHttpRequest@2@@std@@IEAAX$$QEAV12@@Z 0000000180004020 f i Group.obj
 0001:00003020       ?_Reset_move@?$_Func_class@XPEAUHttpResponse@uWS@@PEAD_K_K@std@@IEAAX$$QEAV12@@Z 0000000180004020 f i Group.obj
 0001:00003020       ?_Reset_move@?$_Func_class@XPEAU?$WebSocket@$0A@@uWS@@PEAD_KW4OpCode@2@@std@@IEAAX$$QEAV12@@Z 0000000180004020 f i Group.obj
 0001:00003020       ?_Reset_move@?$_Func_class@XPEAU?$WebSocket@$0A@@uWS@@@std@@IEAAX$$QEAV12@@Z 0000000180004020 f i Group.obj
 0001:00003020       ?_Reset_move@?$_Func_class@XPEAU?$HttpSocket@$00@uWS@@UHttpRequest@2@@std@@IEAAX$$QEAV12@@Z 0000000180004020 f i Group.obj
 0001:00003020       ?_Reset_move@?$_Func_class@XPEAU?$WebSocket@$00@uWS@@@std@@IEAAX$$QEAV12@@Z 0000000180004020 f i Group.obj
 0001:00003020       ?_Reset_move@?$_Func_class@XPEAU?$WebSocket@$0A@@uWS@@PEAD_K@std@@IEAAX$$QEAV12@@Z 0000000180004020 f i Group.obj
 0001:00003020       ?_Reset_move@?$_Func_class@XPEAUHttpResponse@uWS@@UHttpRequest@2@PEAD_K_K@std@@IEAAX$$QEAV12@@Z 0000000180004020 f i Group.obj
 0001:00003020       ?_Reset_move@?$_Func_class@XH@std@@IEAAX$$QEAV12@@Z 0000000180004020 f i Group.obj
 0001:00003020       ?_Reset_move@?$_Func_class@XPEAU?$WebSocket@$00@uWS@@HPEAD_K@std@@IEAAX$$QEAV12@@Z 0000000180004020 f i Group.obj
 0001:00003020       ?_Reset_move@?$_Func_class@XPEAU?$WebSocket@$0A@@uWS@@HPEAD_K@std@@IEAAX$$QEAV12@@Z 0000000180004020 f i Group.obj
 0001:00003020       ?_Reset_move@?$_Func_class@XPEAUHttpResponse@uWS@@@std@@IEAAX$$QEAV12@@Z 0000000180004020 f i Group.obj
 0001:00003020       ?_Reset_move@?$_Func_class@XPEAX@std@@IEAAX$$QEAV12@@Z 0000000180004020 f i Group.obj
 0001:00003020       ?_Reset_move@?$_Func_class@XPEAU?$HttpSocket@$0A@@uWS@@@std@@IEAAX$$QEAV12@@Z 0000000180004020 f i Group.obj
 0001:00003090       ?_Tidy@?$deque@PEAUPoll@uS@@V?$allocator@PEAUPoll@uS@@@std@@@std@@IEAAXXZ 0000000180004090 f i Group.obj
 0001:00003180       ??4?$deque@PEAUPoll@uS@@V?$allocator@PEAUPoll@uS@@@std@@@std@@QEAAAEAV01@AEBV01@@Z 0000000180004180 f i Group.obj
 0001:000033d0       ??4?$deque@PEAUPoll@uS@@V?$allocator@PEAUPoll@uS@@@std@@@std@@QEAAAEAV01@$$QEAV01@@Z 00000001800043d0 f i Group.obj
 0001:00003450       ??0?$deque@PEAUPoll@uS@@V?$allocator@PEAUPoll@uS@@@std@@@std@@QEAA@$$QEAV01@@Z 0000000180004450 f i Group.obj
 0001:00003510       ??0?$deque@PEAUPoll@uS@@V?$allocator@PEAUPoll@uS@@@std@@@std@@QEAA@AEBV01@@Z 0000000180004510 f i Group.obj
 0001:000035d0       ?deallocate@?$_Wrap_alloc@V?$allocator@PEAUPoll@uS@@@std@@@std@@QEAAXPEAPEAUPoll@uS@@_K@Z 00000001800045d0 f i Group.obj
 0001:00003640       ?_Reserve@?$vector@PEAUPoll@uS@@V?$allocator@PEAUPoll@uS@@@std@@@std@@IEAAX_K@Z 0000000180004640 f i Group.obj
 0001:000036d0       ?_Buy@?$vector@PEAUPoll@uS@@V?$allocator@PEAUPoll@uS@@@std@@@std@@IEAA_N_K@Z 00000001800046d0 f i Group.obj
 0001:00003730       ?assign@?$basic_string@DU?$char_traits@D@std@@V?$allocator@D@2@@std@@QEAAAEAV12@AEBV12@_K1@Z 0000000180004730 f i Group.obj
 0001:00003860       ?_Swap@?$_Func_class@XPEAU?$HttpSocket@$00@uWS@@@std@@IEAAXAEAV12@@Z 0000000180004860 f i Group.obj
 0001:00003860       ?_Swap@?$_Func_class@XPEAU?$WebSocket@$00@uWS@@HPEAD_K@std@@IEAAXAEAV12@@Z 0000000180004860 f i Group.obj
 0001:00003860       ?_Swap@?$_Func_class@XPEAU?$HttpSocket@$0A@@uWS@@UHttpRequest@2@@std@@IEAAXAEAV12@@Z 0000000180004860 f i Group.obj
 0001:00003860       ?_Swap@?$_Func_class@XPEAU?$WebSocket@$00@uWS@@PEAD_KW4OpCode@2@@std@@IEAAXAEAV12@@Z 0000000180004860 f i Group.obj
 0001:00003860       ?_Swap@?$_Func_class@XPEAU?$WebSocket@$0A@@uWS@@@std@@IEAAXAEAV12@@Z 0000000180004860 f i Group.obj
 0001:00003860       ?_Swap@?$_Func_class@XPEAU?$WebSocket@$00@uWS@@UHttpRequest@2@@std@@IEAAXAEAV12@@Z 0000000180004860 f i Group.obj
 0001:00003860       ?_Swap@?$_Func_class@XPEAUHttpResponse@uWS@@UHttpRequest@2@PEAD_K_K@std@@IEAAXAEAV12@@Z 0000000180004860 f i Group.obj
 0001:00003860       ?_Swap@?$_Func_class@XPEAU?$WebSocket@$00@uWS@@@std@@IEAAXAEAV12@@Z 0000000180004860 f i Group.obj
 0001:00003860       ?_Swap@?$_Func_class@XPEAU?$WebSocket@$00@uWS@@PEAD_K@std@@IEAAXAEAV12@@Z 0000000180004860 f i Group.obj
 0001:00003860       ?_Swap@?$_Func_class@XH@std@@IEAAXAEAV12@@Z 0000000180004860 f i Group.obj
 0001:00003860       ?_Swap@?$_Func_class@XPEAUHttpResponse@uWS@@@std@@IEAAXAEAV12@@Z 0000000180004860 f i Group.obj
 0001:00003860       ?_Swap@?$_Func_class@XPEAX@std@@IEAAXAEAV12@@Z 0000000180004860 f i Group.obj
 0001:00003860       ?_Swap@?$_Func_class@XPEAU?$HttpSocket@$00@uWS@@UHttpRequest@2@@std@@IEAAXAEAV12@@Z 0000000180004860 f i Group.obj
 0001:00003860       ?_Swap@?$_Func_class@XPEAUHttpResponse@uWS@@PEAD_K_K@std@@IEAAXAEAV12@@Z 0000000180004860 f i Group.obj
 0001:00003860       ?_Swap@?$_Func_class@XPEAU?$WebSocket@$0A@@uWS@@HPEAD_K@std@@IEAAXAEAV12@@Z 0000000180004860 f i Group.obj
 0001:00003860       ?_Swap@?$_Func_class@XPEAU?$WebSocket@$0A@@uWS@@PEAD_K@std@@IEAAXAEAV12@@Z 0000000180004860 f i Group.obj
 0001:00003860       ?_Swap@?$_Func_class@XPEAU?$HttpSocket@$0A@@uWS@@@std@@IEAAXAEAV12@@Z 0000000180004860 f i Group.obj
 0001:00003860       ?_Swap@?$_Func_class@XPEAU?$WebSocket@$0A@@uWS@@UHttpRequest@2@@std@@IEAAXAEAV12@@Z 0000000180004860 f i Group.obj
 0001:00003860       ?_Swap@?$_Func_class@XPEAU?$WebSocket@$0A@@uWS@@PEAD_KW4OpCode@2@@std@@IEAAXAEAV12@@Z 0000000180004860 f i Group.obj
 0001:000039a0       ?erase@?$deque@PEAUPoll@uS@@V?$allocator@PEAUPoll@uS@@@std@@@std@@QEAA?AV?$_Deque_iterator@V?$_Deque_val@U?$_Deque_simple_types@PEAUPoll@uS@@@std@@@std@@@2@V?$_Deque_const_iterator@V?$_Deque_val@U?$_Deque_simple_types@PEAUPoll@uS@@@std@@@std@@@2@0@Z 00000001800049a0 f i Group.obj
 0001:00003bd0       ?_Reallocate@?$vector@PEAUPoll@uS@@V?$allocator@PEAUPoll@uS@@@std@@@std@@IEAAX_K@Z 0000000180004bd0 f i Group.obj
 0001:00003c50       ?erase@?$basic_string@DU?$char_traits@D@std@@V?$allocator@D@2@@std@@QEAAAEAV12@_K0@Z 0000000180004c50 f i Group.obj
 0001:00003d20       ?allocate@?$allocator@PEAUPoll@uS@@@std@@QEAAPEAPEAUPoll@uS@@_K@Z 0000000180004d20 f i Group.obj
 0001:00003da0       ?timerCallback@?$Group@$00@uWS@@KAXPEAUTimer@uS@@@Z 0000000180004da0 f i Group.obj
 0001:00003e30       ?addWebSocket@?$Group@$0A@@uWS@@IEAAXPEAU?$WebSocket@$0A@@2@@Z 0000000180004e30 f i Group.obj
 0001:00003e30       ?addWebSocket@?$Group@$00@uWS@@IEAAXPEAU?$WebSocket@$00@2@@Z 0000000180004e30 f i Group.obj
 0001:00003e70       ?removeWebSocket@?$Group@$0A@@uWS@@IEAAXPEAU?$WebSocket@$0A@@2@@Z 0000000180004e70 f i Group.obj
 0001:00003e70       ?removeWebSocket@?$Group@$00@uWS@@IEAAXPEAU?$WebSocket@$00@2@@Z 0000000180004e70 f i Group.obj
 0001:00003f30       ?addHttpSocket@?$Group@$00@uWS@@IEAAXPEAU?$HttpSocket@$00@2@@Z 0000000180004f30 f i Group.obj
 0001:00004000       ?removeHttpSocket@?$Group@$00@uWS@@IEAAXPEAU?$HttpSocket@$00@2@@Z 0000000180005000 f i Group.obj
 0001:00004000       ?removeHttpSocket@?$Group@$0A@@uWS@@IEAAXPEAU?$HttpSocket@$0A@@2@@Z 0000000180005000 f i Group.obj
 0001:000040f0       ??0?$Group@$00@uWS@@IEAA@HIPEAUHub@1@PEAUNodeData@uS@@@Z 00000001800050f0 f i Group.obj
 0001:00004500       ?stopListening@?$Group@$00@uWS@@IEAAXXZ 0000000180005500 f i Group.obj
 0001:00004570       ?onConnection@?$Group@$0A@@uWS@@QEAAXV?$function@$$A6AXPEAU?$WebSocket@$0A@@uWS@@UHttpRequest@2@@Z@std@@@Z 0000000180005570 f i Group.obj
 0001:00004570       ?onConnection@?$Group@$00@uWS@@QEAAXV?$function@$$A6AXPEAU?$WebSocket@$00@uWS@@UHttpRequest@2@@Z@std@@@Z 0000000180005570 f i Group.obj
 0001:000045b0       ?onTransfer@?$Group@$00@uWS@@QEAAXV?$function@$$A6AXPEAU?$WebSocket@$00@uWS@@@Z@std@@@Z 00000001800055b0 f i Group.obj
 0001:000045b0       ?onTransfer@?$Group@$0A@@uWS@@QEAAXV?$function@$$A6AXPEAU?$WebSocket@$0A@@uWS@@@Z@std@@@Z 00000001800055b0 f i Group.obj
 0001:000045f0       ?onMessage@?$Group@$00@uWS@@QEAAXV?$function@$$A6AXPEAU?$WebSocket@$00@uWS@@PEAD_KW4OpCode@2@@Z@std@@@Z 00000001800055f0 f i Group.obj
 0001:000045f0       ?onMessage@?$Group@$0A@@uWS@@QEAAXV?$function@$$A6AXPEAU?$WebSocket@$0A@@uWS@@PEAD_KW4OpCode@2@@Z@std@@@Z 00000001800055f0 f i Group.obj
 0001:00004630       ?onDisconnection@?$Group@$0A@@uWS@@QEAAXV?$function@$$A6AXPEAU?$WebSocket@$0A@@uWS@@HPEAD_K@Z@std@@@Z 0000000180005630 f i Group.obj
 0001:00004630       ?onDisconnection@?$Group@$00@uWS@@QEAAXV?$function@$$A6AXPEAU?$WebSocket@$00@uWS@@HPEAD_K@Z@std@@@Z 0000000180005630 f i Group.obj
 0001:00004670       ?onPing@?$Group@$0A@@uWS@@QEAAXV?$function@$$A6AXPEAU?$WebSocket@$0A@@uWS@@PEAD_K@Z@std@@@Z 0000000180005670 f i Group.obj
 0001:00004670       ?onPing@?$Group@$00@uWS@@QEAAXV?$function@$$A6AXPEAU?$WebSocket@$00@uWS@@PEAD_K@Z@std@@@Z 0000000180005670 f i Group.obj
 0001:000046b0       ?onPong@?$Group@$00@uWS@@QEAAXV?$function@$$A6AXPEAU?$WebSocket@$00@uWS@@PEAD_K@Z@std@@@Z 00000001800056b0 f i Group.obj
 0001:000046b0       ?onPong@?$Group@$0A@@uWS@@QEAAXV?$function@$$A6AXPEAU?$WebSocket@$0A@@uWS@@PEAD_K@Z@std@@@Z 00000001800056b0 f i Group.obj
 0001:000046f0       ?onError@?$Group@$00@uWS@@QEAAXV?$function@$$A6AXH@Z@std@@@Z 00000001800056f0 f i Group.obj
 0001:000046f0       ?onError@?$Group@$0A@@uWS@@QEAAXV?$function@$$A6AXPEAX@Z@std@@@Z 00000001800056f0 f i Group.obj
 0001:00004730       ?onHttpConnection@?$Group@$0A@@uWS@@QEAAXV?$function@$$A6AXPEAU?$HttpSocket@$0A@@uWS@@@Z@std@@@Z 0000000180005730 f i Group.obj
 0001:00004730       ?onHttpConnection@?$Group@$00@uWS@@QEAAXV?$function@$$A6AXPEAU?$HttpSocket@$00@uWS@@@Z@std@@@Z 0000000180005730 f i Group.obj
 0001:00004770       ?onHttpRequest@?$Group@$00@uWS@@QEAAXV?$function@$$A6AXPEAUHttpResponse@uWS@@UHttpRequest@2@PEAD_K3@Z@std@@@Z 0000000180005770 f i Group.obj
 0001:00004770       ?onHttpRequest@?$Group@$0A@@uWS@@QEAAXV?$function@$$A6AXPEAUHttpResponse@uWS@@UHttpRequest@2@PEAD_K3@Z@std@@@Z 0000000180005770 f i Group.obj
 0001:000047b0       ?onHttpData@?$Group@$0A@@uWS@@QEAAXV?$function@$$A6AXPEAUHttpResponse@uWS@@PEAD_K2@Z@std@@@Z 00000001800057b0 f i Group.obj
 0001:000047b0       ?onHttpData@?$Group@$00@uWS@@QEAAXV?$function@$$A6AXPEAUHttpResponse@uWS@@PEAD_K2@Z@std@@@Z 00000001800057b0 f i Group.obj
 0001:000047f0       ?onHttpDisconnection@?$Group@$0A@@uWS@@QEAAXV?$function@$$A6AXPEAU?$HttpSocket@$0A@@uWS@@@Z@std@@@Z 00000001800057f0 f i Group.obj
 0001:000047f0       ?onHttpDisconnection@?$Group@$00@uWS@@QEAAXV?$function@$$A6AXPEAU?$HttpSocket@$00@uWS@@@Z@std@@@Z 00000001800057f0 f i Group.obj
 0001:00004830       ?onCancelledHttpRequest@?$Group@$00@uWS@@QEAAXV?$function@$$A6AXPEAUHttpResponse@uWS@@@Z@std@@@Z 0000000180005830 f i Group.obj
 0001:00004830       ?onCancelledHttpRequest@?$Group@$0A@@uWS@@QEAAXV?$function@$$A6AXPEAUHttpResponse@uWS@@@Z@std@@@Z 0000000180005830 f i Group.obj
 0001:00004870       ?onHttpUpgrade@?$Group@$0A@@uWS@@QEAAXV?$function@$$A6AXPEAU?$HttpSocket@$0A@@uWS@@UHttpRequest@2@@Z@std@@@Z 0000000180005870 f i Group.obj
 0001:00004870       ?onHttpUpgrade@?$Group@$00@uWS@@QEAAXV?$function@$$A6AXPEAU?$HttpSocket@$00@uWS@@UHttpRequest@2@@Z@std@@@Z 0000000180005870 f i Group.obj
 0001:000048b0       ?broadcast@?$Group@$00@uWS@@QEAAXPEBD_KW4OpCode@2@@Z 00000001800058b0 f i Group.obj
 0001:00004920       ?setUserData@?$Group@$0A@@uWS@@QEAAXPEAX@Z 0000000180005920 f i Group.obj
 0001:00004920       ?setUserData@?$Group@$00@uWS@@QEAAXPEAX@Z 0000000180005920 f i Group.obj
 0001:00004930       ?getUserData@?$Group@$00@uWS@@QEAAPEAXXZ 0000000180005930 f i Group.obj
 0001:00004930       ?getUserData@?$Group@$0A@@uWS@@QEAAPEAXXZ 0000000180005930 f i Group.obj
 0001:00004940       ?terminate@?$Group@$00@uWS@@QEAAXXZ 0000000180005940 f i Group.obj
 0001:000049b0       ?close@?$Group@$00@uWS@@QEAAXHPEAD_K@Z 00000001800059b0 f i Group.obj
 0001:00004a60       ?startAutoPing@?$Group@$00@uWS@@QEAAXHV?$basic_string@DU?$char_traits@D@std@@V?$allocator@D@2@@std@@@Z 0000000180005a60 f i Group.obj
 0001:00004b10       ?timerCallback@?$Group@$0A@@uWS@@KAXPEAUTimer@uS@@@Z 0000000180005b10 f i Group.obj
 0001:00004ba0       ?addHttpSocket@?$Group@$0A@@uWS@@IEAAXPEAU?$HttpSocket@$0A@@2@@Z 0000000180005ba0 f i Group.obj
 0001:00004c70       ??0?$Group@$0A@@uWS@@IEAA@HIPEAUHub@1@PEAUNodeData@uS@@@Z 0000000180005c70 f i Group.obj
 0001:00005080       ?stopListening@?$Group@$0A@@uWS@@IEAAXXZ 0000000180006080 f i Group.obj
 0001:000050a0       ?broadcast@?$Group@$0A@@uWS@@QEAAXPEBD_KW4OpCode@2@@Z 00000001800060a0 f i Group.obj
 0001:00005110       ?terminate@?$Group@$0A@@uWS@@QEAAXXZ 0000000180006110 f i Group.obj
 0001:00005140       ?close@?$Group@$0A@@uWS@@QEAAXHPEAD_K@Z 0000000180006140 f i Group.obj
 0001:000051b0       ?startAutoPing@?$Group@$0A@@uWS@@QEAAXHV?$basic_string@DU?$char_traits@D@std@@V?$allocator@D@2@@std@@@Z 00000001800061b0 f i Group.obj
 0001:00005260       ??$copy@V?$_Deque_const_iterator@V?$_Deque_val@U?$_Deque_simple_types@PEAUPoll@uS@@@std@@@std@@@std@@V?$_Deque_iterator@V?$_Deque_val@U?$_Deque_simple_types@PEAUPoll@uS@@@std@@@std@@@2@@std@@YA?AV?$_Deque_iterator@V?$_Deque_val@U?$_Deque_simple_types@PEAUPoll@uS@@@std@@@std@@@0@V?$_Deque_const_iterator@V?$_Deque_val@U?$_Deque_simple_types@PEAUPoll@uS@@@std@@@std@@@0@0V10@@Z 0000000180006260 f i Group.obj
 0001:00005300       ??$insert@V?$_Deque_const_iterator@V?$_Deque_val@U?$_Deque_simple_types@PEAUPoll@uS@@@std@@@std@@@std@@@?$deque@PEAUPoll@uS@@V?$allocator@PEAUPoll@uS@@@std@@@std@@QEAA?AV?$_Deque_iterator@V?$_Deque_val@U?$_Deque_simple_types@PEAUPoll@uS@@@std@@@std@@@1@V?$_Deque_const_iterator@V?$_Deque_val@U?$_Deque_simple_types@PEAUPoll@uS@@@std@@@std@@@1@00@Z 0000000180006300 f i Group.obj
 0001:000055b0       ??$move_backward@V?$_Deque_iterator@V?$_Deque_val@U?$_Deque_simple_types@PEAUPoll@uS@@@std@@@std@@@std@@V12@@std@@YA?AV?$_Deque_iterator@V?$_Deque_val@U?$_Deque_simple_types@PEAUPoll@uS@@@std@@@std@@@0@V10@00@Z 00000001800065b0 f i Group.obj
 0001:00005710       ??D?$_Deque_const_iterator@V?$_Deque_val@U?$_Deque_simple_types@PEAUPoll@uS@@@std@@@std@@@std@@QEBAAEBQEAUPoll@uS@@XZ 0000000180006710 f i Group.obj
 0001:00005750       ?push_back@?$deque@PEAUPoll@uS@@V?$allocator@PEAUPoll@uS@@@std@@@std@@QEAAXAEBQEAUPoll@uS@@@Z 0000000180006750 f i Group.obj
 0001:00005750       ??$emplace_back@AEBQEAUPoll@uS@@@?$deque@PEAUPoll@uS@@V?$allocator@PEAUPoll@uS@@@std@@@std@@QEAAXAEBQEAUPoll@uS@@@Z 0000000180006750 f i Group.obj
 0001:00005810       ?push_front@?$deque@PEAUPoll@uS@@V?$allocator@PEAUPoll@uS@@@std@@@std@@QEAAXAEBQEAUPoll@uS@@@Z 0000000180006810 f i Group.obj
 0001:000058e0       ?terminate@?$HttpSocket@$0A@@uWS@@QEAAXXZ 00000001800068e0 f i Group.obj
 0001:000058f0       ?terminate@?$HttpSocket@$00@uWS@@QEAAXXZ 00000001800068f0 f i Group.obj
 0001:00005900       ?_Growmap@?$deque@PEAUPoll@uS@@V?$allocator@PEAUPoll@uS@@@std@@@std@@IEAAX_K@Z 0000000180006900 f i Group.obj
 0001:00005b60       ??$forEach@V<lambda_80f782442506c7fa6d6aeef1a12471b7>@@@?$Group@$00@uWS@@QEAAXAEBV<lambda_80f782442506c7fa6d6aeef1a12471b7>@@@Z 0000000180006b60 f i Group.obj
 0001:00005cb0       ??$forEachHttpSocket@V<lambda_17ff7c254700e90f7256454d86073eca>@@@?$Group@$00@uWS@@QEAAXAEBV<lambda_17ff7c254700e90f7256454d86073eca>@@@Z 0000000180006cb0 f i Group.obj
 0001:00005e00       ??$closeSocket@UListenSocket@uS@@@Socket@uS@@QEAAXXZ 0000000180006e00 f i Group.obj
 0001:00005e90       ??$forEach@V<lambda_820529b9f6fde9e8f7185a04d48d4919>@@@?$Group@$0A@@uWS@@QEAAXAEBV<lambda_820529b9f6fde9e8f7185a04d48d4919>@@@Z 0000000180006e90 f i Group.obj
 0001:00005e90       ??$forEach@V<lambda_4bd5ffb5432a522713c66c61c8561692>@@@?$Group@$00@uWS@@QEAAXAEBV<lambda_4bd5ffb5432a522713c66c61c8561692>@@@Z 0000000180006e90 f i Group.obj
 0001:00005fd0       ??$forEach@V<lambda_dac5425407134c3ad1fc5d689b618274>@@@?$Group@$00@uWS@@QEAAXAEBV<lambda_dac5425407134c3ad1fc5d689b618274>@@@Z 0000000180006fd0 f i Group.obj
 0001:00006110       ??$forEach@V<lambda_b3593f67ea0e2bc354cc56d37223a8e1>@@@?$Group@$00@uWS@@QEAAXAEBV<lambda_b3593f67ea0e2bc354cc56d37223a8e1>@@@Z 0000000180007110 f i Group.obj
 0001:00006260       ??$forEach@V<lambda_9be886e0c495a699bd6d1e551918ab1b>@@@?$Group@$0A@@uWS@@QEAAXAEBV<lambda_9be886e0c495a699bd6d1e551918ab1b>@@@Z 0000000180007260 f i Group.obj
 0001:000063b0       ??$forEachHttpSocket@V<lambda_4b5f1ac3a6c768869acf512d1c6476eb>@@@?$Group@$0A@@uWS@@QEAAXAEBV<lambda_4b5f1ac3a6c768869acf512d1c6476eb>@@@Z 00000001800073b0 f i Group.obj
 0001:00006500       ??$forEach@V<lambda_7b72ecf7eb32a9a4dae114748b789669>@@@?$Group@$0A@@uWS@@QEAAXAEBV<lambda_7b72ecf7eb32a9a4dae114748b789669>@@@Z 0000000180007500 f i Group.obj
 0001:00006640       ??$forEach@V<lambda_57c17a60ae854d66cbe009548d358f46>@@@?$Group@$0A@@uWS@@QEAAXAEBV<lambda_57c17a60ae854d66cbe009548d358f46>@@@Z 0000000180007640 f i Group.obj
 0001:00006790       ??$_Copy_no_deprecate@V?$_Deque_const_iterator@V?$_Deque_val@U?$_Deque_simple_types@PEAUPoll@uS@@@std@@@std@@@std@@V?$_Deque_iterator@V?$_Deque_val@U?$_Deque_simple_types@PEAUPoll@uS@@@std@@@std@@@2@@std@@YA?AV?$_Deque_iterator@V?$_Deque_val@U?$_Deque_simple_types@PEAUPoll@uS@@@std@@@std@@@0@V?$_Deque_const_iterator@V?$_Deque_val@U?$_Deque_simple_types@PEAUPoll@uS@@@std@@@std@@@0@0V10@@Z 0000000180007790 f i Group.obj
 0001:00006790       ??$_Move_no_deprecate@V?$_Deque_iterator@V?$_Deque_val@U?$_Deque_simple_types@PEAUPoll@uS@@@std@@@std@@@std@@V12@@std@@YA?AV?$_Deque_iterator@V?$_Deque_val@U?$_Deque_simple_types@PEAUPoll@uS@@@std@@@std@@@0@V10@00@Z 0000000180007790 f i Group.obj
 0001:00006910       ??$reverse@V?$_Deque_iterator@V?$_Deque_val@U?$_Deque_simple_types@PEAUPoll@uS@@@std@@@std@@@std@@@std@@YAXV?$_Deque_iterator@V?$_Deque_val@U?$_Deque_simple_types@PEAUPoll@uS@@@std@@@std@@@0@0@Z 0000000180007910 f i Group.obj
 0001:00006a10       ??$rotate@V?$_Deque_iterator@V?$_Deque_val@U?$_Deque_simple_types@PEAUPoll@uS@@@std@@@std@@@std@@@std@@YA?AV?$_Deque_iterator@V?$_Deque_val@U?$_Deque_simple_types@PEAUPoll@uS@@@std@@@std@@@0@V10@00@Z 0000000180007a10 f i Group.obj
 0001:00006ba0       ??1ListenSocket@uS@@QEAA@XZ 0000000180007ba0 f i Group.obj
 0001:00006c10       ??$_Rotate@V?$_Deque_unchecked_iterator@V?$_Deque_val@U?$_Deque_simple_types@PEAUPoll@uS@@@std@@@std@@@std@@@std@@YA?AV?$_Deque_unchecked_iterator@V?$_Deque_val@U?$_Deque_simple_types@PEAUPoll@uS@@@std@@@std@@@0@V10@00Urandom_access_iterator_tag@0@@Z 0000000180007c10 f i Group.obj
 0001:00006e40       ?_Delete_this@?$_Func_impl@V<lambda_a8ef02e52f510361621b8831e97d6fe5>@@V?$allocator@H@std@@XPEAUHttpResponse@uWS@@UHttpRequest@5@PEAD_K_K@std@@EEAAX_N@Z 0000000180007e40 f i Group.obj
 0001:00006e40       ?_Delete_this@?$_Func_impl@V<lambda_1ea449dbbe6c4a9ff2706a11ec691fab>@@V?$allocator@H@std@@XPEAU?$WebSocket@$0A@@uWS@@PEAD_KW4OpCode@5@@std@@EEAAX_N@Z 0000000180007e40 f i addon.obj
 0001:00006e40       ?_Delete_this@?$_Func_impl@V<lambda_f4f36bdfa1d4948f2a44b7caf93ba028>@@V?$allocator@H@std@@XPEAUHttpResponse@uWS@@@std@@EEAAX_N@Z 0000000180007e40 f i Group.obj
 0001:00006e40       ?_Delete_this@?$_Func_impl@V<lambda_8cc912af1f457cfea0d4ba1cc691c089>@@V?$allocator@H@std@@XH@std@@EEAAX_N@Z 0000000180007e40 f i Group.obj
 0001:00006e40       ?_Delete_this@?$_Func_impl@V<lambda_44c2ae3261b8a3837fe161100d7627a5>@@V?$allocator@H@std@@XPEAU?$WebSocket@$0A@@uWS@@@std@@EEAAX_N@Z 0000000180007e40 f i Group.obj
 0001:00006e40       ?_Delete_this@?$_Func_impl@V<lambda_a4841af2b27d100227ba4fc38e1775c0>@@V?$allocator@H@std@@XPEAU?$WebSocket@$00@uWS@@UHttpRequest@5@@std@@EEAAX_N@Z 0000000180007e40 f i Group.obj
 0001:00006e40       ?_Delete_this@?$_Func_impl@V<lambda_a3ecdec81f70a9fe73dcb758a7fed5a7>@@V?$allocator@H@std@@XPEAU?$WebSocket@$00@uWS@@PEAD_K@std@@EEAAX_N@Z 0000000180007e40 f i Group.obj
 0001:00006e40       ?_Delete_this@?$_Func_impl@V<lambda_faaa5f5890ff3be9fbce2836205fee3b>@@V?$allocator@H@std@@XPEAU?$WebSocket@$00@uWS@@UHttpRequest@5@@std@@EEAAX_N@Z 0000000180007e40 f i addon.obj
 0001:00006e40       ?_Delete_this@?$_Func_impl@V<lambda_06b3790a6438be8c984e27831cd7ebe1>@@V?$allocator@H@std@@XPEAU?$WebSocket@$00@uWS@@PEAD_K@std@@EEAAX_N@Z 0000000180007e40 f i addon.obj
 0001:00006e40       ?_Delete_this@?$_Func_impl@V<lambda_627f71350547a88590b856e4dc8f03a3>@@V?$allocator@H@std@@XPEAUHttpResponse@uWS@@@std@@EEAAX_N@Z 0000000180007e40 f i addon.obj
 0001:00006e40       ?_Delete_this@?$_Func_impl@V<lambda_d881a2c7a1e94701640214c77e3dc049>@@V?$allocator@H@std@@XPEAU?$WebSocket@$0A@@uWS@@UHttpRequest@5@@std@@EEAAX_N@Z 0000000180007e40 f i Group.obj
 0001:00006e40       ?_Delete_this@?$_Func_impl@V<lambda_2ba66bc05ba93ca83268b0bf8e7eaaf7>@@V?$allocator@H@std@@XPEAU?$WebSocket@$00@uWS@@PEAD_K@std@@EEAAX_N@Z 0000000180007e40 f i addon.obj
 0001:00006e40       ?_Delete_this@?$_Func_impl@V<lambda_28546b2bf5fff94df39539b2c8fdbe8e>@@V?$allocator@H@std@@XPEAX@std@@EEAAX_N@Z 0000000180007e40 f i Group.obj
 0001:00006e40       ?_Delete_this@?$_Func_impl@V<lambda_adbdade2acdb425a95e1d65016bf1258>@@V?$allocator@H@std@@XPEAUHttpResponse@uWS@@UHttpRequest@5@PEAD_K_K@std@@EEAAX_N@Z 0000000180007e40 f i addon.obj
 0001:00006e40       ?_Delete_this@?$_Func_impl@V<lambda_b966d8f42a0351f524477ccae8980970>@@V?$allocator@H@std@@XPEAU?$WebSocket@$00@uWS@@HPEAD_K@std@@EEAAX_N@Z 0000000180007e40 f i addon.obj
 0001:00006e40       ?_Delete_this@?$_Func_impl@V<lambda_fadd044f7e86bc60b9387df73115f306>@@V?$allocator@H@std@@XPEAU?$WebSocket@$0A@@uWS@@UHttpRequest@5@@std@@EEAAX_N@Z 0000000180007e40 f i addon.obj
 0001:00006e40       ?_Delete_this@?$_Func_impl@V<lambda_c6520c99f61bc482201622fd3ba6d6a8>@@V?$allocator@H@std@@XPEAU?$WebSocket@$00@uWS@@@std@@EEAAX_N@Z 0000000180007e40 f i Group.obj
 0001:00006e40       ?_Delete_this@?$_Func_impl@V<lambda_c75e75b8ce235a770095cf5e3315fdec>@@V?$allocator@H@std@@XPEAU?$WebSocket@$0A@@uWS@@HPEAD_K@std@@EEAAX_N@Z 0000000180007e40 f i addon.obj
 0001:00006e40       ?_Delete_this@?$_Func_impl@V<lambda_192be0d4e8e564445903b882b614d20b>@@V?$allocator@H@std@@XPEAU?$HttpSocket@$0A@@uWS@@@std@@EEAAX_N@Z 0000000180007e40 f i Group.obj
 0001:00006e40       ?_Delete_this@?$_Func_impl@V<lambda_1e1913856f7aaf7dc79da8070652544a>@@V?$allocator@H@std@@XPEAU?$WebSocket@$00@uWS@@HPEAD_K@std@@EEAAX_N@Z 0000000180007e40 f i Group.obj
 0001:00006e40       ?_Delete_this@?$_Func_impl@V<lambda_e97c96979ea8c6fefbbf0e4dbcda2be5>@@V?$allocator@H@std@@XPEAU?$HttpSocket@$0A@@uWS@@@std@@EEAAX_N@Z 0000000180007e40 f i Group.obj
 0001:00006e40       ?_Delete_this@?$_Func_impl@V<lambda_14b7b541ae08ea1c954e985f6a5857b4>@@V?$allocator@H@std@@XPEAU?$WebSocket@$0A@@uWS@@PEAD_K@std@@EEAAX_N@Z 0000000180007e40 f i Group.obj
 0001:00006e40       ?_Delete_this@?$_Func_impl@V<lambda_676b05d5fcd7eb23155de59028af8c84>@@V?$allocator@H@std@@XPEAU?$WebSocket@$0A@@uWS@@HPEAD_K@std@@EEAAX_N@Z 0000000180007e40 f i Group.obj
 0001:00006e40       ?_Delete_this@?$_Func_impl@V<lambda_4acf657190c75d6154df1f8279f608b3>@@V?$allocator@H@std@@XPEAU?$WebSocket@$00@uWS@@PEAD_KW4OpCode@5@@std@@EEAAX_N@Z 0000000180007e40 f i addon.obj
 0001:00006e40       ?_Delete_this@?$_Func_impl@V<lambda_93c0d08600f8b6900f0f2f49a4d25d7a>@@V?$allocator@H@std@@XPEAU?$HttpSocket@$00@uWS@@@std@@EEAAX_N@Z 0000000180007e40 f i Group.obj
 0001:00006e40       ?_Delete_this@?$_Func_impl@V<lambda_7434f3cae99d0dcd112468417ee977b0>@@V?$allocator@H@std@@XPEAU?$HttpSocket@$00@uWS@@@std@@EEAAX_N@Z 0000000180007e40 f i Group.obj
 0001:00006e40       ?_Delete_this@?$_Func_impl@V<lambda_5203bc642fa96e6a4d3687e7b4a8a1dd>@@V?$allocator@H@std@@XPEAU?$WebSocket@$0A@@uWS@@PEAD_K@std@@EEAAX_N@Z 0000000180007e40 f i addon.obj
 0001:00006e40       ?_Delete_this@?$_Func_impl@V<lambda_e5e8c2fb959005491ebaf75befe1e41f>@@V?$allocator@H@std@@XPEAU?$WebSocket@$00@uWS@@PEAD_KW4OpCode@5@@std@@EEAAX_N@Z 0000000180007e40 f i Group.obj
 0001:00006e40       ?_Delete_this@?$_Func_impl@V<lambda_2084e076f6151854c0db1be6acabce48>@@V?$allocator@H@std@@XPEAX@std@@EEAAX_N@Z 0000000180007e40 f i addon.obj
 0001:00006e40       ?_Delete_this@?$_Func_impl@V<lambda_2348f224942daab74e5fd550b84d90ff>@@V?$allocator@H@std@@XPEAUHttpResponse@uWS@@PEAD_K_K@std@@EEAAX_N@Z 0000000180007e40 f i addon.obj
 0001:00006e40       ?_Delete_this@?$_Func_impl@V<lambda_2be8697520db48762f797b9c727a68ff>@@V?$allocator@H@std@@XPEAUHttpResponse@uWS@@PEAD_K_K@std@@EEAAX_N@Z 0000000180007e40 f i Group.obj
 0001:00006e40       ?_Delete_this@?$_Func_impl@V<lambda_fee28d472d968bf8cf28d0644c64f87f>@@V?$allocator@H@std@@XPEAUHttpResponse@uWS@@UHttpRequest@5@PEAD_K_K@std@@EEAAX_N@Z 0000000180007e40 f i Group.obj
 0001:00006e40       ?_Delete_this@?$_Func_impl@V<lambda_be55859939e08d27a0fb932e2b03dde6>@@V?$allocator@H@std@@XPEAUHttpResponse@uWS@@@std@@EEAAX_N@Z 0000000180007e40 f i Group.obj
 0001:00006e40       ?_Delete_this@?$_Func_impl@V<lambda_90c955ed1fea1ab5aabbcf78f378525c>@@V?$allocator@H@std@@XPEAUHttpResponse@uWS@@PEAD_K_K@std@@EEAAX_N@Z 0000000180007e40 f i Group.obj
 0001:00006e40       ?_Delete_this@?$_Func_impl@V<lambda_47e56f5e9252a482bd9c0aa7befe2a4e>@@V?$allocator@H@std@@XPEAU?$WebSocket@$0A@@uWS@@PEAD_K@std@@EEAAX_N@Z 0000000180007e40 f i addon.obj
 0001:00006e40       ?_Delete_this@?$_Func_impl@V<lambda_a9a913c8f103bffe7fddf72259ae7d5c>@@V?$allocator@H@std@@XPEAU?$WebSocket@$0A@@uWS@@PEAD_KW4OpCode@5@@std@@EEAAX_N@Z 0000000180007e40 f i Group.obj
 0001:00006e60       ?_Get@?$_Func_impl@V<lambda_2be8697520db48762f797b9c727a68ff>@@V?$allocator@H@std@@XPEAUHttpResponse@uWS@@PEAD_K_K@std@@EEBAPEBXXZ 0000000180007e60 f i Group.obj
 0001:00006e60       ?_Get@?$_Func_impl@V<lambda_1e1913856f7aaf7dc79da8070652544a>@@V?$allocator@H@std@@XPEAU?$WebSocket@$00@uWS@@HPEAD_K@std@@EEBAPEBXXZ 0000000180007e60 f i Group.obj
 0001:00006e60       ?_Get@?$_Func_impl@V<lambda_be55859939e08d27a0fb932e2b03dde6>@@V?$allocator@H@std@@XPEAUHttpResponse@uWS@@@std@@EEBAPEBXXZ 0000000180007e60 f i Group.obj
 0001:00006e60       ?_Get@?$_Func_impl@V<lambda_06b3790a6438be8c984e27831cd7ebe1>@@V?$allocator@H@std@@XPEAU?$WebSocket@$00@uWS@@PEAD_K@std@@EEBAPEBXXZ 0000000180007e60 f i addon.obj
 0001:00006e60       ?_Get@?$_Func_impl@V<lambda_faaa5f5890ff3be9fbce2836205fee3b>@@V?$allocator@H@std@@XPEAU?$WebSocket@$00@uWS@@UHttpRequest@5@@std@@EEBAPEBXXZ 0000000180007e60 f i addon.obj
 0001:00006e60       ?_Get@?$_Func_impl@V<lambda_adbdade2acdb425a95e1d65016bf1258>@@V?$allocator@H@std@@XPEAUHttpResponse@uWS@@UHttpRequest@5@PEAD_K_K@std@@EEBAPEBXXZ 0000000180007e60 f i addon.obj
 0001:00006e60       _Mtx_getconcrtcs           0000000180007e60 f i libcpmt:mutex.obj
 0001:00006e60       ?_Get@?$_Func_impl@V<lambda_fee28d472d968bf8cf28d0644c64f87f>@@V?$allocator@H@std@@XPEAUHttpResponse@uWS@@UHttpRequest@5@PEAD_K_K@std@@EEBAPEBXXZ 0000000180007e60 f i Group.obj
 0001:00006e60       ?_Get@?$_Func_impl@V<lambda_676b05d5fcd7eb23155de59028af8c84>@@V?$allocator@H@std@@XPEAU?$WebSocket@$0A@@uWS@@HPEAD_K@std@@EEBAPEBXXZ 0000000180007e60 f i Group.obj
 0001:00006e60       ?_Get@?$_Func_impl@V<lambda_47e56f5e9252a482bd9c0aa7befe2a4e>@@V?$allocator@H@std@@XPEAU?$WebSocket@$0A@@uWS@@PEAD_K@std@@EEBAPEBXXZ 0000000180007e60 f i addon.obj
 0001:00006e60       ?_Get@?$_Func_impl@V<lambda_e97c96979ea8c6fefbbf0e4dbcda2be5>@@V?$allocator@H@std@@XPEAU?$HttpSocket@$0A@@uWS@@@std@@EEBAPEBXXZ 0000000180007e60 f i Group.obj
 0001:00006e60       ?_Get@?$_Func_impl@V<lambda_f4f36bdfa1d4948f2a44b7caf93ba028>@@V?$allocator@H@std@@XPEAUHttpResponse@uWS@@@std@@EEBAPEBXXZ 0000000180007e60 f i Group.obj
 0001:00006e60       ?_Get@?$_Func_impl@V<lambda_c75e75b8ce235a770095cf5e3315fdec>@@V?$allocator@H@std@@XPEAU?$WebSocket@$0A@@uWS@@HPEAD_K@std@@EEBAPEBXXZ 0000000180007e60 f i addon.obj
 0001:00006e60       ?_Get@?$_Func_impl@V<lambda_a8ef02e52f510361621b8831e97d6fe5>@@V?$allocator@H@std@@XPEAUHttpResponse@uWS@@UHttpRequest@5@PEAD_K_K@std@@EEBAPEBXXZ 0000000180007e60 f i Group.obj
 0001:00006e60       ?_Get@?$_Func_impl@V<lambda_1ea449dbbe6c4a9ff2706a11ec691fab>@@V?$allocator@H@std@@XPEAU?$WebSocket@$0A@@uWS@@PEAD_KW4OpCode@5@@std@@EEBAPEBXXZ 0000000180007e60 f i addon.obj
 0001:00006e60       ?_Get@?$_Func_impl@V<lambda_5203bc642fa96e6a4d3687e7b4a8a1dd>@@V?$allocator@H@std@@XPEAU?$WebSocket@$0A@@uWS@@PEAD_K@std@@EEBAPEBXXZ 0000000180007e60 f i addon.obj
 0001:00006e60       ?_Get@?$_Func_impl@V<lambda_44c2ae3261b8a3837fe161100d7627a5>@@V?$allocator@H@std@@XPEAU?$WebSocket@$0A@@uWS@@@std@@EEBAPEBXXZ 0000000180007e60 f i Group.obj
 0001:00006e60       ?_Get@?$_Func_impl@V<lambda_192be0d4e8e564445903b882b614d20b>@@V?$allocator@H@std@@XPEAU?$HttpSocket@$0A@@uWS@@@std@@EEBAPEBXXZ 0000000180007e60 f i Group.obj
 0001:00006e60       ?_Get@?$_Func_impl@V<lambda_28546b2bf5fff94df39539b2c8fdbe8e>@@V?$allocator@H@std@@XPEAX@std@@EEBAPEBXXZ 0000000180007e60 f i Group.obj
 0001:00006e60       ?_Get@?$_Func_impl@V<lambda_2084e076f6151854c0db1be6acabce48>@@V?$allocator@H@std@@XPEAX@std@@EEBAPEBXXZ 0000000180007e60 f i addon.obj
 0001:00006e60       ?_Get@?$_Func_impl@V<lambda_c6520c99f61bc482201622fd3ba6d6a8>@@V?$allocator@H@std@@XPEAU?$WebSocket@$00@uWS@@@std@@EEBAPEBXXZ 0000000180007e60 f i Group.obj
 0001:00006e60       ?_Get@?$_Func_impl@V<lambda_14b7b541ae08ea1c954e985f6a5857b4>@@V?$allocator@H@std@@XPEAU?$WebSocket@$0A@@uWS@@PEAD_K@std@@EEBAPEBXXZ 0000000180007e60 f i Group.obj
 0001:00006e60       ?_Get@?$_Func_impl@V<lambda_2348f224942daab74e5fd550b84d90ff>@@V?$allocator@H@std@@XPEAUHttpResponse@uWS@@PEAD_K_K@std@@EEBAPEBXXZ 0000000180007e60 f i addon.obj
 0001:00006e60       ?_Get@?$_Func_impl@V<lambda_a3ecdec81f70a9fe73dcb758a7fed5a7>@@V?$allocator@H@std@@XPEAU?$WebSocket@$00@uWS@@PEAD_K@std@@EEBAPEBXXZ 0000000180007e60 f i Group.obj
 0001:00006e60       ?_Get@?$_Func_impl@V<lambda_90c955ed1fea1ab5aabbcf78f378525c>@@V?$allocator@H@std@@XPEAUHttpResponse@uWS@@PEAD_K_K@std@@EEBAPEBXXZ 0000000180007e60 f i Group.obj
 0001:00006e60       ?_Get@?$_Func_impl@V<lambda_627f71350547a88590b856e4dc8f03a3>@@V?$allocator@H@std@@XPEAUHttpResponse@uWS@@@std@@EEBAPEBXXZ 0000000180007e60 f i addon.obj
 0001:00006e60       ?_Get@?$_Func_impl@V<lambda_a4841af2b27d100227ba4fc38e1775c0>@@V?$allocator@H@std@@XPEAU?$WebSocket@$00@uWS@@UHttpRequest@5@@std@@EEBAPEBXXZ 0000000180007e60 f i Group.obj
 0001:00006e60       ?_Get@?$_Func_impl@V<lambda_93c0d08600f8b6900f0f2f49a4d25d7a>@@V?$allocator@H@std@@XPEAU?$HttpSocket@$00@uWS@@@std@@EEBAPEBXXZ 0000000180007e60 f i Group.obj
 0001:00006e60       ?_Get@?$_Func_impl@V<lambda_fadd044f7e86bc60b9387df73115f306>@@V?$allocator@H@std@@XPEAU?$WebSocket@$0A@@uWS@@UHttpRequest@5@@std@@EEBAPEBXXZ 0000000180007e60 f i addon.obj
 0001:00006e60       ?_Get@?$_Func_impl@V<lambda_2ba66bc05ba93ca83268b0bf8e7eaaf7>@@V?$allocator@H@std@@XPEAU?$WebSocket@$00@uWS@@PEAD_K@std@@EEBAPEBXXZ 0000000180007e60 f i addon.obj
 0001:00006e60       ?_Get@?$_Func_impl@V<lambda_4acf657190c75d6154df1f8279f608b3>@@V?$allocator@H@std@@XPEAU?$WebSocket@$00@uWS@@PEAD_KW4OpCode@5@@std@@EEBAPEBXXZ 0000000180007e60 f i addon.obj
 0001:00006e60       ?_Get@?$_Func_impl@V<lambda_7434f3cae99d0dcd112468417ee977b0>@@V?$allocator@H@std@@XPEAU?$HttpSocket@$00@uWS@@@std@@EEBAPEBXXZ 0000000180007e60 f i Group.obj
 0001:00006e60       ?_Get@?$_Func_impl@V<lambda_a9a913c8f103bffe7fddf72259ae7d5c>@@V?$allocator@H@std@@XPEAU?$WebSocket@$0A@@uWS@@PEAD_KW4OpCode@5@@std@@EEBAPEBXXZ 0000000180007e60 f i Group.obj
 0001:00006e60       ?_Get@?$_Func_impl@V<lambda_b966d8f42a0351f524477ccae8980970>@@V?$allocator@H@std@@XPEAU?$WebSocket@$00@uWS@@HPEAD_K@std@@EEBAPEBXXZ 0000000180007e60 f i addon.obj
 0001:00006e60       ?_Get@?$_Func_impl@V<lambda_e5e8c2fb959005491ebaf75befe1e41f>@@V?$allocator@H@std@@XPEAU?$WebSocket@$00@uWS@@PEAD_KW4OpCode@5@@std@@EEBAPEBXXZ 0000000180007e60 f i Group.obj
 0001:00006e60       ?_Get@?$_Func_impl@V<lambda_8cc912af1f457cfea0d4ba1cc691c089>@@V?$allocator@H@std@@XH@std@@EEBAPEBXXZ 0000000180007e60 f i Group.obj
 0001:00006e60       ?_Get@?$_Func_impl@V<lambda_d881a2c7a1e94701640214c77e3dc049>@@V?$allocator@H@std@@XPEAU?$WebSocket@$0A@@uWS@@UHttpRequest@5@@std@@EEBAPEBXXZ 0000000180007e60 f i Group.obj
 0001:00006e70       ?_Target_type@?$_Func_impl@V<lambda_2be8697520db48762f797b9c727a68ff>@@V?$allocator@H@std@@XPEAUHttpResponse@uWS@@PEAD_K_K@std@@EEBAAEBVtype_info@@XZ 0000000180007e70 f i Group.obj
 0001:00006e80       ?_Copy@?$_Func_impl@V<lambda_2be8697520db48762f797b9c727a68ff>@@V?$allocator@H@std@@XPEAUHttpResponse@uWS@@PEAD_K_K@std@@EEBAPEAV?$_Func_base@XPEAUHttpResponse@uWS@@PEAD_K_K@2@PEAX@Z 0000000180007e80 f i Group.obj
 0001:00006e80       ?_Move@?$_Func_impl@V<lambda_2be8697520db48762f797b9c727a68ff>@@V?$allocator@H@std@@XPEAUHttpResponse@uWS@@PEAD_K_K@std@@EEAAPEAV?$_Func_base@XPEAUHttpResponse@uWS@@PEAD_K_K@2@PEAX@Z 0000000180007e80 f i Group.obj
 0001:00006ea0       ?_Target_type@?$_Func_impl@V<lambda_be55859939e08d27a0fb932e2b03dde6>@@V?$allocator@H@std@@XPEAUHttpResponse@uWS@@@std@@EEBAAEBVtype_info@@XZ 0000000180007ea0 f i Group.obj
 0001:00006eb0       ?_Copy@?$_Func_impl@V<lambda_be55859939e08d27a0fb932e2b03dde6>@@V?$allocator@H@std@@XPEAUHttpResponse@uWS@@@std@@EEBAPEAV?$_Func_base@XPEAUHttpResponse@uWS@@@2@PEAX@Z 0000000180007eb0 f i Group.obj
 0001:00006eb0       ?_Move@?$_Func_impl@V<lambda_be55859939e08d27a0fb932e2b03dde6>@@V?$allocator@H@std@@XPEAUHttpResponse@uWS@@@std@@EEAAPEAV?$_Func_base@XPEAUHttpResponse@uWS@@@2@PEAX@Z 0000000180007eb0 f i Group.obj
 0001:00006ed0       ?_Target_type@?$_Func_impl@V<lambda_192be0d4e8e564445903b882b614d20b>@@V?$allocator@H@std@@XPEAU?$HttpSocket@$0A@@uWS@@@std@@EEBAAEBVtype_info@@XZ 0000000180007ed0 f i Group.obj
 0001:00006ee0       ?_Move@?$_Func_impl@V<lambda_192be0d4e8e564445903b882b614d20b>@@V?$allocator@H@std@@XPEAU?$HttpSocket@$0A@@uWS@@@std@@EEAAPEAV?$_Func_base@XPEAU?$HttpSocket@$0A@@uWS@@@2@PEAX@Z 0000000180007ee0 f i Group.obj
 0001:00006ee0       ?_Copy@?$_Func_impl@V<lambda_192be0d4e8e564445903b882b614d20b>@@V?$allocator@H@std@@XPEAU?$HttpSocket@$0A@@uWS@@@std@@EEBAPEAV?$_Func_base@XPEAU?$HttpSocket@$0A@@uWS@@@2@PEAX@Z 0000000180007ee0 f i Group.obj
 0001:00006f00       ?_Target_type@?$_Func_impl@V<lambda_e97c96979ea8c6fefbbf0e4dbcda2be5>@@V?$allocator@H@std@@XPEAU?$HttpSocket@$0A@@uWS@@@std@@EEBAAEBVtype_info@@XZ 0000000180007f00 f i Group.obj
 0001:00006f10       ?_Copy@?$_Func_impl@V<lambda_e97c96979ea8c6fefbbf0e4dbcda2be5>@@V?$allocator@H@std@@XPEAU?$HttpSocket@$0A@@uWS@@@std@@EEBAPEAV?$_Func_base@XPEAU?$HttpSocket@$0A@@uWS@@@2@PEAX@Z 0000000180007f10 f i Group.obj
 0001:00006f10       ?_Move@?$_Func_impl@V<lambda_e97c96979ea8c6fefbbf0e4dbcda2be5>@@V?$allocator@H@std@@XPEAU?$HttpSocket@$0A@@uWS@@@std@@EEAAPEAV?$_Func_base@XPEAU?$HttpSocket@$0A@@uWS@@@2@PEAX@Z 0000000180007f10 f i Group.obj
 0001:00006f30       ?_Target_type@?$_Func_impl@V<lambda_fee28d472d968bf8cf28d0644c64f87f>@@V?$allocator@H@std@@XPEAUHttpResponse@uWS@@UHttpRequest@5@PEAD_K_K@std@@EEBAAEBVtype_info@@XZ 0000000180007f30 f i Group.obj
 0001:00006f40       ?_Move@?$_Func_impl@V<lambda_fee28d472d968bf8cf28d0644c64f87f>@@V?$allocator@H@std@@XPEAUHttpResponse@uWS@@UHttpRequest@5@PEAD_K_K@std@@EEAAPEAV?$_Func_base@XPEAUHttpResponse@uWS@@UHttpRequest@2@PEAD_K_K@2@PEAX@Z 0000000180007f40 f i Group.obj
 0001:00006f40       ?_Copy@?$_Func_impl@V<lambda_fee28d472d968bf8cf28d0644c64f87f>@@V?$allocator@H@std@@XPEAUHttpResponse@uWS@@UHttpRequest@5@PEAD_K_K@std@@EEBAPEAV?$_Func_base@XPEAUHttpResponse@uWS@@UHttpRequest@2@PEAD_K_K@2@PEAX@Z 0000000180007f40 f i Group.obj
 0001:00006f60       ?_Target_type@?$_Func_impl@V<lambda_28546b2bf5fff94df39539b2c8fdbe8e>@@V?$allocator@H@std@@XPEAX@std@@EEBAAEBVtype_info@@XZ 0000000180007f60 f i Group.obj
 0001:00006f70       ?_Move@?$_Func_impl@V<lambda_28546b2bf5fff94df39539b2c8fdbe8e>@@V?$allocator@H@std@@XPEAX@std@@EEAAPEAV?$_Func_base@XPEAX@2@PEAX@Z 0000000180007f70 f i Group.obj
 0001:00006f70       ?_Copy@?$_Func_impl@V<lambda_28546b2bf5fff94df39539b2c8fdbe8e>@@V?$allocator@H@std@@XPEAX@std@@EEBAPEAV?$_Func_base@XPEAX@2@PEAX@Z 0000000180007f70 f i Group.obj
 0001:00006f90       ?_Target_type@?$_Func_impl@V<lambda_14b7b541ae08ea1c954e985f6a5857b4>@@V?$allocator@H@std@@XPEAU?$WebSocket@$0A@@uWS@@PEAD_K@std@@EEBAAEBVtype_info@@XZ 0000000180007f90 f i Group.obj
 0001:00006fa0       ?_Move@?$_Func_impl@V<lambda_14b7b541ae08ea1c954e985f6a5857b4>@@V?$allocator@H@std@@XPEAU?$WebSocket@$0A@@uWS@@PEAD_K@std@@EEAAPEAV?$_Func_base@XPEAU?$WebSocket@$0A@@uWS@@PEAD_K@2@PEAX@Z 0000000180007fa0 f i Group.obj
 0001:00006fa0       ?_Copy@?$_Func_impl@V<lambda_14b7b541ae08ea1c954e985f6a5857b4>@@V?$allocator@H@std@@XPEAU?$WebSocket@$0A@@uWS@@PEAD_K@std@@EEBAPEAV?$_Func_base@XPEAU?$WebSocket@$0A@@uWS@@PEAD_K@2@PEAX@Z 0000000180007fa0 f i Group.obj
 0001:00006fc0       ?_Target_type@?$_Func_impl@V<lambda_676b05d5fcd7eb23155de59028af8c84>@@V?$allocator@H@std@@XPEAU?$WebSocket@$0A@@uWS@@HPEAD_K@std@@EEBAAEBVtype_info@@XZ 0000000180007fc0 f i Group.obj
 0001:00006fd0       ?_Copy@?$_Func_impl@V<lambda_676b05d5fcd7eb23155de59028af8c84>@@V?$allocator@H@std@@XPEAU?$WebSocket@$0A@@uWS@@HPEAD_K@std@@EEBAPEAV?$_Func_base@XPEAU?$WebSocket@$0A@@uWS@@HPEAD_K@2@PEAX@Z 0000000180007fd0 f i Group.obj
 0001:00006fd0       ?_Move@?$_Func_impl@V<lambda_676b05d5fcd7eb23155de59028af8c84>@@V?$allocator@H@std@@XPEAU?$WebSocket@$0A@@uWS@@HPEAD_K@std@@EEAAPEAV?$_Func_base@XPEAU?$WebSocket@$0A@@uWS@@HPEAD_K@2@PEAX@Z 0000000180007fd0 f i Group.obj
 0001:00006ff0       ?_Target_type@?$_Func_impl@V<lambda_a9a913c8f103bffe7fddf72259ae7d5c>@@V?$allocator@H@std@@XPEAU?$WebSocket@$0A@@uWS@@PEAD_KW4OpCode@5@@std@@EEBAAEBVtype_info@@XZ 0000000180007ff0 f i Group.obj
 0001:00007000       ?_Move@?$_Func_impl@V<lambda_a9a913c8f103bffe7fddf72259ae7d5c>@@V?$allocator@H@std@@XPEAU?$WebSocket@$0A@@uWS@@PEAD_KW4OpCode@5@@std@@EEAAPEAV?$_Func_base@XPEAU?$WebSocket@$0A@@uWS@@PEAD_KW4OpCode@2@@2@PEAX@Z 0000000180008000 f i Group.obj
 0001:00007000       ?_Copy@?$_Func_impl@V<lambda_a9a913c8f103bffe7fddf72259ae7d5c>@@V?$allocator@H@std@@XPEAU?$WebSocket@$0A@@uWS@@PEAD_KW4OpCode@5@@std@@EEBAPEAV?$_Func_base@XPEAU?$WebSocket@$0A@@uWS@@PEAD_KW4OpCode@2@@2@PEAX@Z 0000000180008000 f i Group.obj
 0001:00007020       ?_Target_type@?$_Func_impl@V<lambda_44c2ae3261b8a3837fe161100d7627a5>@@V?$allocator@H@std@@XPEAU?$WebSocket@$0A@@uWS@@@std@@EEBAAEBVtype_info@@XZ 0000000180008020 f i Group.obj
 0001:00007030       ?_Copy@?$_Func_impl@V<lambda_44c2ae3261b8a3837fe161100d7627a5>@@V?$allocator@H@std@@XPEAU?$WebSocket@$0A@@uWS@@@std@@EEBAPEAV?$_Func_base@XPEAU?$WebSocket@$0A@@uWS@@@2@PEAX@Z 0000000180008030 f i Group.obj
 0001:00007030       ?_Move@?$_Func_impl@V<lambda_44c2ae3261b8a3837fe161100d7627a5>@@V?$allocator@H@std@@XPEAU?$WebSocket@$0A@@uWS@@@std@@EEAAPEAV?$_Func_base@XPEAU?$WebSocket@$0A@@uWS@@@2@PEAX@Z 0000000180008030 f i Group.obj
 0001:00007050       ?_Target_type@?$_Func_impl@V<lambda_d881a2c7a1e94701640214c77e3dc049>@@V?$allocator@H@std@@XPEAU?$WebSocket@$0A@@uWS@@UHttpRequest@5@@std@@EEBAAEBVtype_info@@XZ 0000000180008050 f i Group.obj
 0001:00007060       ?_Copy@?$_Func_impl@V<lambda_d881a2c7a1e94701640214c77e3dc049>@@V?$allocator@H@std@@XPEAU?$WebSocket@$0A@@uWS@@UHttpRequest@5@@std@@EEBAPEAV?$_Func_base@XPEAU?$WebSocket@$0A@@uWS@@UHttpRequest@2@@2@PEAX@Z 0000000180008060 f i Group.obj
 0001:00007060       ?_Move@?$_Func_impl@V<lambda_d881a2c7a1e94701640214c77e3dc049>@@V?$allocator@H@std@@XPEAU?$WebSocket@$0A@@uWS@@UHttpRequest@5@@std@@EEAAPEAV?$_Func_base@XPEAU?$WebSocket@$0A@@uWS@@UHttpRequest@2@@2@PEAX@Z 0000000180008060 f i Group.obj
 0001:00007080       ?_Target_type@?$_Func_impl@V<lambda_90c955ed1fea1ab5aabbcf78f378525c>@@V?$allocator@H@std@@XPEAUHttpResponse@uWS@@PEAD_K_K@std@@EEBAAEBVtype_info@@XZ 0000000180008080 f i Group.obj
 0001:00007090       ?_Move@?$_Func_impl@V<lambda_90c955ed1fea1ab5aabbcf78f378525c>@@V?$allocator@H@std@@XPEAUHttpResponse@uWS@@PEAD_K_K@std@@EEAAPEAV?$_Func_base@XPEAUHttpResponse@uWS@@PEAD_K_K@2@PEAX@Z 0000000180008090 f i Group.obj
 0001:00007090       ?_Copy@?$_Func_impl@V<lambda_90c955ed1fea1ab5aabbcf78f378525c>@@V?$allocator@H@std@@XPEAUHttpResponse@uWS@@PEAD_K_K@std@@EEBAPEAV?$_Func_base@XPEAUHttpResponse@uWS@@PEAD_K_K@2@PEAX@Z 0000000180008090 f i Group.obj
 0001:000070b0       ?_Target_type@?$_Func_impl@V<lambda_f4f36bdfa1d4948f2a44b7caf93ba028>@@V?$allocator@H@std@@XPEAUHttpResponse@uWS@@@std@@EEBAAEBVtype_info@@XZ 00000001800080b0 f i Group.obj
 0001:000070c0       ?_Copy@?$_Func_impl@V<lambda_f4f36bdfa1d4948f2a44b7caf93ba028>@@V?$allocator@H@std@@XPEAUHttpResponse@uWS@@@std@@EEBAPEAV?$_Func_base@XPEAUHttpResponse@uWS@@@2@PEAX@Z 00000001800080c0 f i Group.obj
 0001:000070c0       ?_Move@?$_Func_impl@V<lambda_f4f36bdfa1d4948f2a44b7caf93ba028>@@V?$allocator@H@std@@XPEAUHttpResponse@uWS@@@std@@EEAAPEAV?$_Func_base@XPEAUHttpResponse@uWS@@@2@PEAX@Z 00000001800080c0 f i Group.obj
 0001:000070e0       ?_Target_type@?$_Func_impl@V<lambda_7434f3cae99d0dcd112468417ee977b0>@@V?$allocator@H@std@@XPEAU?$HttpSocket@$00@uWS@@@std@@EEBAAEBVtype_info@@XZ 00000001800080e0 f i Group.obj
 0001:000070f0       ?_Move@?$_Func_impl@V<lambda_7434f3cae99d0dcd112468417ee977b0>@@V?$allocator@H@std@@XPEAU?$HttpSocket@$00@uWS@@@std@@EEAAPEAV?$_Func_base@XPEAU?$HttpSocket@$00@uWS@@@2@PEAX@Z 00000001800080f0 f i Group.obj
 0001:000070f0       ?_Copy@?$_Func_impl@V<lambda_7434f3cae99d0dcd112468417ee977b0>@@V?$allocator@H@std@@XPEAU?$HttpSocket@$00@uWS@@@std@@EEBAPEAV?$_Func_base@XPEAU?$HttpSocket@$00@uWS@@@2@PEAX@Z 00000001800080f0 f i Group.obj
 0001:00007110       ?_Target_type@?$_Func_impl@V<lambda_93c0d08600f8b6900f0f2f49a4d25d7a>@@V?$allocator@H@std@@XPEAU?$HttpSocket@$00@uWS@@@std@@EEBAAEBVtype_info@@XZ 0000000180008110 f i Group.obj
 0001:00007120       ?_Move@?$_Func_impl@V<lambda_93c0d08600f8b6900f0f2f49a4d25d7a>@@V?$allocator@H@std@@XPEAU?$HttpSocket@$00@uWS@@@std@@EEAAPEAV?$_Func_base@XPEAU?$HttpSocket@$00@uWS@@@2@PEAX@Z 0000000180008120 f i Group.obj
 0001:00007120       ?_Copy@?$_Func_impl@V<lambda_93c0d08600f8b6900f0f2f49a4d25d7a>@@V?$allocator@H@std@@XPEAU?$HttpSocket@$00@uWS@@@std@@EEBAPEAV?$_Func_base@XPEAU?$HttpSocket@$00@uWS@@@2@PEAX@Z 0000000180008120 f i Group.obj
 0001:00007140       ?_Target_type@?$_Func_impl@V<lambda_a8ef02e52f510361621b8831e97d6fe5>@@V?$allocator@H@std@@XPEAUHttpResponse@uWS@@UHttpRequest@5@PEAD_K_K@std@@EEBAAEBVtype_info@@XZ 0000000180008140 f i Group.obj
 0001:00007150       ?_Move@?$_Func_impl@V<lambda_a8ef02e52f510361621b8831e97d6fe5>@@V?$allocator@H@std@@XPEAUHttpResponse@uWS@@UHttpRequest@5@PEAD_K_K@std@@EEAAPEAV?$_Func_base@XPEAUHttpResponse@uWS@@UHttpRequest@2@PEAD_K_K@2@PEAX@Z 0000000180008150 f i Group.obj
 0001:00007150       ?_Copy@?$_Func_impl@V<lambda_a8ef02e52f510361621b8831e97d6fe5>@@V?$allocator@H@std@@XPEAUHttpResponse@uWS@@UHttpRequest@5@PEAD_K_K@std@@EEBAPEAV?$_Func_base@XPEAUHttpResponse@uWS@@UHttpRequest@2@PEAD_K_K@2@PEAX@Z 0000000180008150 f i Group.obj
 0001:00007170       ?_Target_type@?$_Func_impl@V<lambda_8cc912af1f457cfea0d4ba1cc691c089>@@V?$allocator@H@std@@XH@std@@EEBAAEBVtype_info@@XZ 0000000180008170 f i Group.obj
 0001:00007180       ?_Copy@?$_Func_impl@V<lambda_8cc912af1f457cfea0d4ba1cc691c089>@@V?$allocator@H@std@@XH@std@@EEBAPEAV?$_Func_base@XH@2@PEAX@Z 0000000180008180 f i Group.obj
 0001:00007180       ?_Move@?$_Func_impl@V<lambda_8cc912af1f457cfea0d4ba1cc691c089>@@V?$allocator@H@std@@XH@std@@EEAAPEAV?$_Func_base@XH@2@PEAX@Z 0000000180008180 f i Group.obj
 0001:000071a0       ?_Target_type@?$_Func_impl@V<lambda_a3ecdec81f70a9fe73dcb758a7fed5a7>@@V?$allocator@H@std@@XPEAU?$WebSocket@$00@uWS@@PEAD_K@std@@EEBAAEBVtype_info@@XZ 00000001800081a0 f i Group.obj
 0001:000071b0       ?_Copy@?$_Func_impl@V<lambda_a3ecdec81f70a9fe73dcb758a7fed5a7>@@V?$allocator@H@std@@XPEAU?$WebSocket@$00@uWS@@PEAD_K@std@@EEBAPEAV?$_Func_base@XPEAU?$WebSocket@$00@uWS@@PEAD_K@2@PEAX@Z 00000001800081b0 f i Group.obj
 0001:000071b0       ?_Move@?$_Func_impl@V<lambda_a3ecdec81f70a9fe73dcb758a7fed5a7>@@V?$allocator@H@std@@XPEAU?$WebSocket@$00@uWS@@PEAD_K@std@@EEAAPEAV?$_Func_base@XPEAU?$WebSocket@$00@uWS@@PEAD_K@2@PEAX@Z 00000001800081b0 f i Group.obj
 0001:000071d0       ?_Target_type@?$_Func_impl@V<lambda_1e1913856f7aaf7dc79da8070652544a>@@V?$allocator@H@std@@XPEAU?$WebSocket@$00@uWS@@HPEAD_K@std@@EEBAAEBVtype_info@@XZ 00000001800081d0 f i Group.obj
 0001:000071e0       ?_Move@?$_Func_impl@V<lambda_1e1913856f7aaf7dc79da8070652544a>@@V?$allocator@H@std@@XPEAU?$WebSocket@$00@uWS@@HPEAD_K@std@@EEAAPEAV?$_Func_base@XPEAU?$WebSocket@$00@uWS@@HPEAD_K@2@PEAX@Z 00000001800081e0 f i Group.obj
 0001:000071e0       ?_Copy@?$_Func_impl@V<lambda_1e1913856f7aaf7dc79da8070652544a>@@V?$allocator@H@std@@XPEAU?$WebSocket@$00@uWS@@HPEAD_K@std@@EEBAPEAV?$_Func_base@XPEAU?$WebSocket@$00@uWS@@HPEAD_K@2@PEAX@Z 00000001800081e0 f i Group.obj
 0001:00007200       ?_Target_type@?$_Func_impl@V<lambda_e5e8c2fb959005491ebaf75befe1e41f>@@V?$allocator@H@std@@XPEAU?$WebSocket@$00@uWS@@PEAD_KW4OpCode@5@@std@@EEBAAEBVtype_info@@XZ 0000000180008200 f i Group.obj
 0001:00007210       ?_Copy@?$_Func_impl@V<lambda_e5e8c2fb959005491ebaf75befe1e41f>@@V?$allocator@H@std@@XPEAU?$WebSocket@$00@uWS@@PEAD_KW4OpCode@5@@std@@EEBAPEAV?$_Func_base@XPEAU?$WebSocket@$00@uWS@@PEAD_KW4OpCode@2@@2@PEAX@Z 0000000180008210 f i Group.obj
 0001:00007210       ?_Move@?$_Func_impl@V<lambda_e5e8c2fb959005491ebaf75befe1e41f>@@V?$allocator@H@std@@XPEAU?$WebSocket@$00@uWS@@PEAD_KW4OpCode@5@@std@@EEAAPEAV?$_Func_base@XPEAU?$WebSocket@$00@uWS@@PEAD_KW4OpCode@2@@2@PEAX@Z 0000000180008210 f i Group.obj
 0001:00007230       ?_Target_type@?$_Func_impl@V<lambda_c6520c99f61bc482201622fd3ba6d6a8>@@V?$allocator@H@std@@XPEAU?$WebSocket@$00@uWS@@@std@@EEBAAEBVtype_info@@XZ 0000000180008230 f i Group.obj
 0001:00007240       ?_Move@?$_Func_impl@V<lambda_c6520c99f61bc482201622fd3ba6d6a8>@@V?$allocator@H@std@@XPEAU?$WebSocket@$00@uWS@@@std@@EEAAPEAV?$_Func_base@XPEAU?$WebSocket@$00@uWS@@@2@PEAX@Z 0000000180008240 f i Group.obj
 0001:00007240       ?_Copy@?$_Func_impl@V<lambda_c6520c99f61bc482201622fd3ba6d6a8>@@V?$allocator@H@std@@XPEAU?$WebSocket@$00@uWS@@@std@@EEBAPEAV?$_Func_base@XPEAU?$WebSocket@$00@uWS@@@2@PEAX@Z 0000000180008240 f i Group.obj
 0001:00007260       ?_Target_type@?$_Func_impl@V<lambda_a4841af2b27d100227ba4fc38e1775c0>@@V?$allocator@H@std@@XPEAU?$WebSocket@$00@uWS@@UHttpRequest@5@@std@@EEBAAEBVtype_info@@XZ 0000000180008260 f i Group.obj
 0001:00007270       ?_Copy@?$_Func_impl@V<lambda_a4841af2b27d100227ba4fc38e1775c0>@@V?$allocator@H@std@@XPEAU?$WebSocket@$00@uWS@@UHttpRequest@5@@std@@EEBAPEAV?$_Func_base@XPEAU?$WebSocket@$00@uWS@@UHttpRequest@2@@2@PEAX@Z 0000000180008270 f i Group.obj
 0001:00007270       ?_Move@?$_Func_impl@V<lambda_a4841af2b27d100227ba4fc38e1775c0>@@V?$allocator@H@std@@XPEAU?$WebSocket@$00@uWS@@UHttpRequest@5@@std@@EEAAPEAV?$_Func_base@XPEAU?$WebSocket@$00@uWS@@UHttpRequest@2@@2@PEAX@Z 0000000180008270 f i Group.obj
 0001:00007290       ?EnterCriticalRegion@ContextBase@details@Concurrency@@QEAAHXZ 0000000180008290 f i libconcrt:ContextBase.obj
 0001:00007290       ?_Get_deleter@_Ref_count_base@std@@UEBAPEAXAEBVtype_info@@@Z 0000000180008290 f i Networking.obj
 0001:00007290       ?GetContextKind@ExternalContextBase@details@Concurrency@@EEBA?AW4ContextKind@ContextBase@23@XZ 0000000180008290 f i libconcrt:ExternalContextBase.obj
 0001:00007290       ?GetDefaultDestination@VirtualProcessor@details@Concurrency@@UEAAPEAUIExecutionContext@3@XZ 0000000180008290 f i libconcrt:VirtualProcessor.obj
 0001:00007290       ?sync@?$basic_streambuf@DU?$char_traits@D@std@@@std@@MEAAHXZ 0000000180008290 f i libcpmt:cout.obj
 0001:00007290       ?ExitCriticalRegion@ContextBase@details@Concurrency@@QEAAHXZ 0000000180008290 f i libconcrt:ContextBase.obj
 0001:00007290       ?PreRunnableSearch@VirtualProcessor@details@Concurrency@@UEAAPEAVInternalContextBase@23@XZ 0000000180008290 f i libconcrt:VirtualProcessor.obj
 0001:00007290       ?showmanyc@?$basic_streambuf@DU?$char_traits@D@std@@@std@@MEAA_JXZ 0000000180008290 f i libcpmt:cout.obj
 0001:00007290       ?EnterHyperCriticalRegion@ContextBase@details@Concurrency@@QEAAHXZ 0000000180008290 f i libconcrt:ContextBase.obj
 0001:00007290       ?ExitHyperCriticalRegion@ContextBase@details@Concurrency@@QEAAHXZ 0000000180008290 f i libconcrt:ContextBase.obj
 0001:000072a0       ??_G_Ref_count_base@std@@UEAAPEAXI@Z 00000001800082a0 f i Networking.obj
 0001:000072a0       ??_E_Ref_count_base@std@@UEAAPEAXI@Z 00000001800082a0 f i * CIL library *:* CIL module *
 0001:000072d0       ??0Context@TLS@uS@@QEAA@AEBV012@@Z 00000001800082d0 f   Networking.obj
 0001:00007300       ??4Context@TLS@uS@@QEAAAEAV012@AEBV012@@Z 0000000180008300 f   Networking.obj
 0001:00007320       ??1Context@TLS@uS@@QEAA@XZ 0000000180008320 f   Networking.obj
 0001:00007380       ?createContext@TLS@uS@@YA?AVContext@12@V?$basic_string@DU?$char_traits@D@std@@V?$allocator@D@2@@std@@00@Z 0000000180008380 f   Networking.obj
 0001:00007630       ?_Delete_this@?$_Ref_count@V?$basic_string@DU?$char_traits@D@std@@V?$allocator@D@2@@std@@@std@@EEAAXXZ 0000000180008630 f i Networking.obj
 0001:00007650       ?_Destroy@?$_Ref_count@V?$basic_string@DU?$char_traits@D@std@@V?$allocator@D@2@@std@@@std@@EEAAXXZ 0000000180008650 f i Networking.obj
 0001:000076b0       ??_E?$_Ref_count@V?$basic_string@DU?$char_traits@D@std@@V?$allocator@D@2@@std@@@std@@UEAAPEAXI@Z 00000001800086b0 f i * CIL library *:* CIL module *
 0001:000076b0       ??_E?$_Ref_count@V__ExceptionPtr@@@std@@UEAAPEAXI@Z 00000001800086b0 f i libcpmt:excptptr.obj
 0001:000076b0       ??_G?$_Ref_count@V__ExceptionPtr@@@std@@UEAAPEAXI@Z 00000001800086b0 f i libcpmt:excptptr.obj
 0001:000076b0       ??_G?$_Ref_count@V?$basic_string@DU?$char_traits@D@std@@V?$allocator@D@2@@std@@@std@@UEAAPEAXI@Z 00000001800086b0 f i Networking.obj
 0001:000076e0       ?inflate@Hub@uWS@@IEAAPEADPEADAEA_K_K@Z 00000001800086e0 f   Hub.obj
 0001:00007830       ?onServerAccept@Hub@uWS@@KAXPEAUSocket@uS@@@Z 0000000180008830 f   Hub.obj
 0001:00007990       ?onClientConnection@Hub@uWS@@KAXPEAUSocket@uS@@_N@Z 0000000180008990 f   Hub.obj
 0001:00007a50       ?listen@Hub@uWS@@QEAA_NPEBDHVContext@TLS@uS@@HPEAU?$Group@$00@2@@Z 0000000180008a50 f   Hub.obj
 0001:00007ba0       ?listen@Hub@uWS@@QEAA_NHVContext@TLS@uS@@HPEAU?$Group@$00@2@@Z 0000000180008ba0 f   Hub.obj
 0001:00007c60       ?allocateHttpSocket@uWS@@YAPEAUSocket@uS@@PEAU23@@Z 0000000180008c60 f   Hub.obj
 0001:00007d00       ?parseURI@uWS@@YA_NAEAV?$basic_string@DU?$char_traits@D@std@@V?$allocator@D@2@@std@@AEA_N0AEAH0@Z 0000000180008d00 f   Hub.obj
 0001:00008160       ?connect@Hub@uWS@@QEAAXV?$basic_string@DU?$char_traits@D@std@@V?$allocator@D@2@@std@@PEAXV?$map@V?$basic_string@DU?$char_traits@D@std@@V?$allocator@D@2@@std@@V12@U?$less@V?$basic_string@DU?$char_traits@D@std@@V?$allocator@D@2@@std@@@2@V?$allocator@U?$pair@$$CBV?$basic_string@DU?$char_traits@D@std@@V?$allocator@D@2@@std@@V12@@std@@@2@@4@HPEAU?$Group@$0A@@2@@Z 0000000180009160 f   Hub.obj
 0001:000088e0       ?upgrade@Hub@uWS@@QEAAX_KPEBDPEAUssl_st@@1010PEAU?$Group@$00@2@@Z 00000001800098e0 f   Hub.obj
 0001:00008c00       ??_G?$HttpSocket@$0A@@uWS@@QEAAPEAXI@Z 0000000180009c00 f i HTTPSocket.obj
 0001:00008c00       ??_G?$HttpSocket@$00@uWS@@QEAAPEAXI@Z 0000000180009c00 f i Hub.obj
 0001:00008c70       ??0?$WebSocket@$00@uWS@@IEAA@_NPEAUSocket@uS@@@Z 0000000180009c70 f i Hub.obj
 0001:00008d00       ??0?$HttpSocket@$00@uWS@@QEAA@PEAUSocket@uS@@@Z 0000000180009d00 f i Hub.obj
 0001:00008d00       ??0?$HttpSocket@$0A@@uWS@@QEAA@PEAUSocket@uS@@@Z 0000000180009d00 f i Hub.obj
 0001:00008d80       ?find@?$basic_string@DU?$char_traits@D@std@@V?$allocator@D@2@@std@@QEBA_KD_K@Z 0000000180009d80 f i Hub.obj
 0001:00008e20       ?find_first_of@?$basic_string@DU?$char_traits@D@std@@V?$allocator@D@2@@std@@QEBA_KPEBD_K1@Z 0000000180009e20 f i Hub.obj
 0001:00008ed0       ?assign@?$basic_string@DU?$char_traits@D@std@@V?$allocator@D@2@@std@@QEAAAEAV12@PEBD_K@Z 0000000180009ed0 f i Hub.obj
 0001:00009010       ?erase@?$_Tree@V?$_Tmap_traits@V?$basic_string@DU?$char_traits@D@std@@V?$allocator@D@2@@std@@V12@U?$less@V?$basic_string@DU?$char_traits@D@std@@V?$allocator@D@2@@std@@@2@V?$allocator@U?$pair@$$CBV?$basic_string@DU?$char_traits@D@std@@V?$allocator@D@2@@std@@V12@@std@@@2@$0A@@std@@@std@@QEAA?AV?$_Tree_iterator@V?$_Tree_val@U?$_Tree_simple_types@U?$pair@$$CBV?$basic_string@DU?$char_traits@D@std@@V?$allocator@D@2@@std@@V12@@std@@@std@@@std@@@2@V?$_Tree_const_iterator@V?$_Tree_val@U?$_Tree_simple_types@U?$pair@$$CBV?$basic_string@DU?$char_traits@D@std@@V?$allocator@D@2@@std@@V12@@std@@@std@@@std@@@2@0@Z 000000018000a010 f i Hub.obj
 0001:000090f0       ?clear@?$_Tree@V?$_Tmap_traits@V?$basic_string@DU?$char_traits@D@std@@V?$allocator@D@2@@std@@V12@U?$less@V?$basic_string@DU?$char_traits@D@std@@V?$allocator@D@2@@std@@@2@V?$allocator@U?$pair@$$CBV?$basic_string@DU?$char_traits@D@std@@V?$allocator@D@2@@std@@V12@@std@@@2@$0A@@std@@@std@@QEAAXXZ 000000018000a0f0 f i Hub.obj
 0001:00009170       ?erase@?$_Tree@V?$_Tmap_traits@V?$basic_string@DU?$char_traits@D@std@@V?$allocator@D@2@@std@@V12@U?$less@V?$basic_string@DU?$char_traits@D@std@@V?$allocator@D@2@@std@@@2@V?$allocator@U?$pair@$$CBV?$basic_string@DU?$char_traits@D@std@@V?$allocator@D@2@@std@@V12@@std@@@2@$0A@@std@@@std@@QEAA?AV?$_Tree_iterator@V?$_Tree_val@U?$_Tree_simple_types@U?$pair@$$CBV?$basic_string@DU?$char_traits@D@std@@V?$allocator@D@2@@std@@V12@@std@@@std@@@std@@@2@V?$_Tree_const_iterator@V?$_Tree_val@U?$_Tree_simple_types@U?$pair@$$CBV?$basic_string@DU?$char_traits@D@std@@V?$allocator@D@2@@std@@V12@@std@@@std@@@std@@@2@@Z 000000018000a170 f i Hub.obj
 0001:00009660       ?_Erase@?$_Tree@V?$_Tmap_traits@V?$basic_string@DU?$char_traits@D@std@@V?$allocator@D@2@@std@@V12@U?$less@V?$basic_string@DU?$char_traits@D@std@@V?$allocator@D@2@@std@@@2@V?$allocator@U?$pair@$$CBV?$basic_string@DU?$char_traits@D@std@@V?$allocator@D@2@@std@@V12@@std@@@2@$0A@@std@@@std@@IEAAXPEAU?$_Tree_node@U?$pair@$$CBV?$basic_string@DU?$char_traits@D@std@@V?$allocator@D@2@@std@@V12@@std@@PEAX@2@@Z 000000018000a660 f i Hub.obj
 0001:000096c0       ??$_Integral_to_string@DH@std@@YA?AV?$basic_string@DU?$char_traits@D@std@@V?$allocator@D@2@@0@H@Z 000000018000a6c0 f i Hub.obj
 0001:000097a0       ??$listen@$1?onServerAccept@Hub@uWS@@KAXPEAUSocket@uS@@@Z@Node@uS@@QEAA_NPEBDHVContext@TLS@1@HPEAUNodeData@1@PEAX@Z 000000018000a7a0 f i Hub.obj
 0001:00009ad0       ??$connect@$1?allocateHttpSocket@uWS@@YAPEAUSocket@uS@@PEAU34@@Z$1?onClientConnection@Hub@2@KAX0_N@Z@Node@uS@@QEAAPEAUSocket@1@PEBDH_NPEAUNodeData@1@@Z 000000018000aad0 f i Hub.obj
 0001:00009d50       ??$sslIoHandler@U?$HttpSocket@$00@uWS@@@Socket@uS@@KAXPEAUPoll@1@HH@Z 000000018000ad50 f i Hub.obj
 0001:00009f70       ??$ioHandler@U?$HttpSocket@$00@uWS@@@Socket@uS@@KAXPEAUPoll@1@HH@Z 000000018000af70 f i Hub.obj
 0001:0000a0f0       ??$sslIoHandler@U?$HttpSocket@$0A@@uWS@@@Socket@uS@@KAXPEAUPoll@1@HH@Z 000000018000b0f0 f i Hub.obj
 0001:0000a310       ??$ioHandler@U?$HttpSocket@$0A@@uWS@@@Socket@uS@@KAXPEAUPoll@1@HH@Z 000000018000b310 f i Hub.obj
 0001:0000a490       ??$accept_poll_cb@$1?onServerAccept@Hub@uWS@@KAXPEAUSocket@uS@@@Z@Node@uS@@CAXPEAUPoll@1@HH@Z 000000018000b490 f i Hub.obj
 0001:0000a4a0       ??$connect_cb@$1?onClientConnection@Hub@uWS@@KAXPEAUSocket@uS@@_N@Z@Node@uS@@CAXPEAUPoll@1@HH@Z 000000018000b4a0 f i Hub.obj
 0001:0000a4b0       ??$sslIoHandler@U?$WebSocket@$00@uWS@@@Socket@uS@@KAXPEAUPoll@1@HH@Z 000000018000b4b0 f i Hub.obj
 0001:0000a6d0       ??$ioHandler@U?$WebSocket@$00@uWS@@@Socket@uS@@KAXPEAUPoll@1@HH@Z 000000018000b6d0 f i Hub.obj
 0001:0000a870       ??$accept_cb@$1?onServerAccept@Hub@uWS@@KAXPEAUSocket@uS@@@Z$0A@@Node@uS@@CAXPEAUListenSocket@1@@Z 000000018000b870 f i Hub.obj
 0001:0000aa10       ??1?$pair@$$CBV?$basic_string@DU?$char_traits@D@std@@V?$allocator@D@2@@std@@V12@@std@@QEAA@XZ 000000018000ba10 f i Hub.obj
 0001:0000aa90       ??$accept_timer_cb@$1?onServerAccept@Hub@uWS@@KAXPEAUSocket@uS@@@Z@Node@uS@@CAXPEAUTimer@1@@Z 000000018000ba90 f i Hub.obj
 0001:0000aaa0       ??$accept_cb@$1?onServerAccept@Hub@uWS@@KAXPEAUSocket@uS@@@Z$00@Node@uS@@CAXPEAUListenSocket@1@@Z 000000018000baa0 f i Hub.obj
 0001:0000ac30       ?asyncCallback@NodeData@uS@@SAXPEAUAsync@2@@Z 000000018000bc30 f   Node.obj
 0001:0000adf0       ??0Node@uS@@QEAA@HHH_N@Z   000000018000bdf0 f   Node.obj
 0001:0000afe0       ?run@Node@uS@@QEAAXXZ      000000018000bfe0 f   Node.obj
 0001:0000b010       ??1Node@uS@@QEAA@XZ        000000018000c010 f   Node.obj
 0001:0000b0d0       ?send@?$WebSocket@$0A@@uWS@@QEAAXPEBDW4OpCode@2@@Z 000000018000c0d0 f i WebSocket.obj
 0001:0000b110       ?ping@?$WebSocket@$0A@@uWS@@QEAAXPEBD@Z 000000018000c110 f i WebSocket.obj
 0001:0000b150       ?forceClose@?$WebSocket@$0A@@uWS@@KAXPEAU?$WebSocketState@$0A@@2@@Z 000000018000c150 f i WebSocket.obj
 0001:0000b170       ?setCompressed@?$WebSocket@$0A@@uWS@@KA_NPEAU?$WebSocketState@$0A@@2@@Z 000000018000c170 f i WebSocket.obj
 0001:0000b1a0       ?refusePayloadLength@?$WebSocket@$0A@@uWS@@KA_N_KPEAU?$WebSocketState@$0A@@2@@Z 000000018000c1a0 f i WebSocket.obj
 0001:0000b1a0       ?refusePayloadLength@?$WebSocket@$00@uWS@@KA_N_KPEAU?$WebSocketState@$00@2@@Z 000000018000c1a0 f i WebSocket.obj
 0001:0000b1d0       ??0?$WebSocket@$0A@@uWS@@IEAA@_NPEAUSocket@uS@@@Z 000000018000c1d0 f i WebSocket.obj
 0001:0000b260       ?send@?$WebSocket@$00@uWS@@QEAAXPEBDW4OpCode@2@@Z 000000018000c260 f i WebSocket.obj
 0001:0000b2a0       ?ping@?$WebSocket@$00@uWS@@QEAAXPEBD@Z 000000018000c2a0 f i WebSocket.obj
 0001:0000b2e0       ?forceClose@?$WebSocket@$00@uWS@@KAXPEAU?$WebSocketState@$00@2@@Z 000000018000c2e0 f i WebSocket.obj
 0001:0000b300       ?setCompressed@?$WebSocket@$00@uWS@@KA_NPEAU?$WebSocketState@$00@2@@Z 000000018000c300 f i WebSocket.obj
 0001:0000b330       ?append@?$basic_string@DU?$char_traits@D@std@@V?$allocator@D@2@@std@@QEAAAEAV12@_KD@Z 000000018000c330 f i WebSocket.obj
 0001:0000b440       ?onData@?$WebSocket@$00@uWS@@KAPEAUSocket@uS@@PEAU34@PEAD_K@Z 000000018000c440 f i WebSocket.obj
 0001:0000b480       ?onEnd@?$WebSocket@$00@uWS@@KAXPEAUSocket@uS@@@Z 000000018000c480 f i WebSocket.obj
 0001:0000b5c0       ?handleFragment@?$WebSocket@$00@uWS@@KA_NPEAD_KIH_NPEAU?$WebSocketState@$00@2@@Z 000000018000c5c0 f i WebSocket.obj
 0001:0000ba80       ?sendPrepared@?$WebSocket@$00@uWS@@QEAAXPEAUPreparedMessage@12@PEAX@Z 000000018000ca80 f i WebSocket.obj
 0001:0000ba80       ?sendPrepared@?$WebSocket@$0A@@uWS@@QEAAXPEAUPreparedMessage@12@PEAX@Z 000000018000ca80 f i WebSocket.obj
 0001:0000bbe0       ?finalizeMessage@?$WebSocket@$00@uWS@@SAXPEAUPreparedMessage@12@@Z 000000018000cbe0 f i WebSocket.obj
 0001:0000bbe0       ?finalizeMessage@?$WebSocket@$0A@@uWS@@SAXPEAUPreparedMessage@12@@Z 000000018000cbe0 f i WebSocket.obj
 0001:0000bc10       ?close@?$WebSocket@$00@uWS@@QEAAXHPEBD_K@Z 000000018000cc10 f i WebSocket.obj
 0001:0000bdc0       ?transfer@?$WebSocket@$00@uWS@@QEAAXPEAU?$Group@$00@2@@Z 000000018000cdc0 f i WebSocket.obj
 0001:0000bdc0       ?transfer@?$WebSocket@$0A@@uWS@@QEAAXPEAU?$Group@$0A@@2@@Z 000000018000cdc0 f i WebSocket.obj
 0001:0000bee0       ?terminate@?$WebSocket@$00@uWS@@QEAAXXZ 000000018000cee0 f i WebSocket.obj
 0001:0000bef0       ?send@?$WebSocket@$00@uWS@@QEAAXPEBD_KW4OpCode@2@P6AXPEAU12@PEAX_N4@Z4@Z 000000018000cef0 f i WebSocket.obj
 0001:0000bf10       ?prepareMessage@?$WebSocket@$00@uWS@@SAPEAUPreparedMessage@12@PEAD_KW4OpCode@2@_NP6AXPEAU12@PEAX35@Z@Z 000000018000cf10 f i WebSocket.obj
 0001:0000bfa0       ?prepareMessageBatch@?$WebSocket@$00@uWS@@SAPEAUPreparedMessage@12@AEAV?$vector@V?$basic_string@DU?$char_traits@D@std@@V?$allocator@D@2@@std@@V?$allocator@V?$basic_string@DU?$char_traits@D@std@@V?$allocator@D@2@@std@@@2@@std@@AEAV?$vector@HV?$allocator@H@std@@@5@W4OpCode@2@_NP6AXPEAU12@PEAX35@Z@Z 000000018000cfa0 f i WebSocket.obj
 0001:0000c180       ?onData@?$WebSocket@$0A@@uWS@@KAPEAUSocket@uS@@PEAU34@PEAD_K@Z 000000018000d180 f i WebSocket.obj
 0001:0000c1c0       ?onEnd@?$WebSocket@$0A@@uWS@@KAXPEAUSocket@uS@@@Z 000000018000d1c0 f i WebSocket.obj
 0001:0000c300       ?handleFragment@?$WebSocket@$0A@@uWS@@KA_NPEAD_KIH_NPEAU?$WebSocketState@$0A@@2@@Z 000000018000d300 f i WebSocket.obj
 0001:0000c7b0       ?close@?$WebSocket@$0A@@uWS@@QEAAXHPEBD_K@Z 000000018000d7b0 f i WebSocket.obj
 0001:0000c910       ?terminate@?$WebSocket@$0A@@uWS@@QEAAXXZ 000000018000d910 f i WebSocket.obj
 0001:0000c920       ?send@?$WebSocket@$0A@@uWS@@QEAAXPEBD_KW4OpCode@2@P6AXPEAU12@PEAX_N4@Z4@Z 000000018000d920 f i WebSocket.obj
 0001:0000c940       ?prepareMessage@?$WebSocket@$0A@@uWS@@SAPEAUPreparedMessage@12@PEAD_KW4OpCode@2@_NP6AXPEAU12@PEAX35@Z@Z 000000018000d940 f i WebSocket.obj
 0001:0000c9d0       ?prepareMessageBatch@?$WebSocket@$0A@@uWS@@SAPEAUPreparedMessage@12@AEAV?$vector@V?$basic_string@DU?$char_traits@D@std@@V?$allocator@D@2@@std@@V?$allocator@V?$basic_string@DU?$char_traits@D@std@@V?$allocator@D@2@@std@@@2@@std@@AEAV?$vector@HV?$allocator@H@std@@@5@W4OpCode@2@_NP6AXPEAU12@PEAX35@Z@Z 000000018000d9d0 f i WebSocket.obj
 0001:0000cbb0       ?consume@?$WebSocketProtocol@$0A@U?$WebSocket@$0A@@uWS@@@uWS@@SAXPEADIPEAU?$WebSocketState@$0A@@2@@Z 000000018000dbb0 f i WebSocket.obj
 0001:0000cde0       ?formatMessage@?$WebSocketProtocol@$0A@U?$WebSocket@$0A@@uWS@@@uWS@@SA_KPEADPEBD_KW4OpCode@2@2_N@Z 000000018000dde0 f i WebSocket.obj
 0001:0000cf80       ?formatClosePayload@?$WebSocketProtocol@$00U?$WebSocket@$00@uWS@@@uWS@@SA_KPEADGPEBD_K@Z 000000018000df80 f i WebSocket.obj
 0001:0000cf80       ?formatClosePayload@?$WebSocketProtocol@$0A@U?$WebSocket@$0A@@uWS@@@uWS@@SA_KPEADGPEBD_K@Z 000000018000df80 f i WebSocket.obj
 0001:0000cfe0       ?parseClosePayload@?$WebSocketProtocol@$0A@U?$WebSocket@$0A@@uWS@@@uWS@@SA?AUCloseFrame@12@PEAD_K@Z 000000018000dfe0 f i WebSocket.obj
 0001:0000cfe0       ?parseClosePayload@?$WebSocketProtocol@$00U?$WebSocket@$00@uWS@@@uWS@@SA?AUCloseFrame@12@PEAD_K@Z 000000018000dfe0 f i WebSocket.obj
 0001:0000d0d0       ?isValidUtf8@?$WebSocketProtocol@$00U?$WebSocket@$00@uWS@@@uWS@@SA_NPEAE_K@Z 000000018000e0d0 f i WebSocket.obj
 0001:0000d0d0       ?isValidUtf8@?$WebSocketProtocol@$0A@U?$WebSocket@$0A@@uWS@@@uWS@@SA_NPEAE_K@Z 000000018000e0d0 f i WebSocket.obj
 0001:0000d210       ?consume@?$WebSocketProtocol@$00U?$WebSocket@$00@uWS@@@uWS@@SAXPEADIPEAU?$WebSocketState@$00@2@@Z 000000018000e210 f i WebSocket.obj
 0001:0000d440       ?formatMessage@?$WebSocketProtocol@$00U?$WebSocket@$00@uWS@@@uWS@@SA_KPEADPEBD_KW4OpCode@2@2_N@Z 000000018000e440 f i WebSocket.obj
 0001:0000d580       ??R?$_Func_class@XPEAU?$WebSocket@$00@uWS@@PEAD_K@std@@QEBAXPEAU?$WebSocket@$00@uWS@@PEAD_K@Z 000000018000e580 f i WebSocket.obj
 0001:0000d580       ??R?$_Func_class@XPEAU?$WebSocket@$0A@@uWS@@PEAD_K@std@@QEBAXPEAU?$WebSocket@$0A@@uWS@@PEAD_K@Z 000000018000e580 f i WebSocket.obj
 0001:0000d5c0       ?consumeContinuation@?$WebSocketProtocol@$0A@U?$WebSocket@$0A@@uWS@@@uWS@@CA_NAEAPEADAEAIPEAU?$WebSocketState@$0A@@2@@Z 000000018000e5c0 f i WebSocket.obj
 0001:0000d6a0       ?rsv1@?$WebSocketProtocol@$00U?$WebSocket@$00@uWS@@@uWS@@CA_NPEAD@Z 000000018000e6a0 f i WebSocket.obj
 0001:0000d6a0       ?rsv1@?$WebSocketProtocol@$0A@U?$WebSocket@$0A@@uWS@@@uWS@@CA_NPEAD@Z 000000018000e6a0 f i WebSocket.obj
 0001:0000d6b0       ?rsv23@?$WebSocketProtocol@$00U?$WebSocket@$00@uWS@@@uWS@@CA_NPEAD@Z 000000018000e6b0 f i WebSocket.obj
 0001:0000d6b0       ?rsv23@?$WebSocketProtocol@$0A@U?$WebSocket@$0A@@uWS@@@uWS@@CA_NPEAD@Z 000000018000e6b0 f i WebSocket.obj
 0001:0000d6c0       ?payloadLength@?$WebSocketProtocol@$0A@U?$WebSocket@$0A@@uWS@@@uWS@@CAEPEAD@Z 000000018000e6c0 f i WebSocket.obj
 0001:0000d6c0       ?payloadLength@?$WebSocketProtocol@$00U?$WebSocket@$00@uWS@@@uWS@@CAEPEAD@Z 000000018000e6c0 f i WebSocket.obj
 0001:0000d6d0       ?getOpCode@?$WebSocketProtocol@$0A@U?$WebSocket@$0A@@uWS@@@uWS@@CAEPEAD@Z 000000018000e6d0 f i WebSocket.obj
 0001:0000d6d0       ?getOpCode@?$WebSocketProtocol@$00U?$WebSocket@$00@uWS@@@uWS@@CAEPEAD@Z 000000018000e6d0 f i WebSocket.obj
 0001:0000d6e0       ?isFin@?$WebSocketProtocol@$00U?$WebSocket@$00@uWS@@@uWS@@CA_NPEAD@Z 000000018000e6e0 f i WebSocket.obj
 0001:0000d6e0       ?isFin@?$WebSocketProtocol@$0A@U?$WebSocket@$0A@@uWS@@@uWS@@CA_NPEAD@Z 000000018000e6e0 f i WebSocket.obj
 0001:0000d6f0       ?consumeContinuation@?$WebSocketProtocol@$00U?$WebSocket@$00@uWS@@@uWS@@CA_NAEAPEADAEAIPEAU?$WebSocketState@$00@2@@Z 000000018000e6f0 f i WebSocket.obj
 0001:0000d8e0       ?unmaskInplace@?$WebSocketProtocol@$0A@U?$WebSocket@$0A@@uWS@@@uWS@@CAXPEAD00@Z 000000018000e8e0 f i WebSocket.obj
 0001:0000d8e0       ?unmaskInplace@?$WebSocketProtocol@$00U?$WebSocket@$00@uWS@@@uWS@@CAXPEAD00@Z 000000018000e8e0 f i WebSocket.obj
 0001:0000d920       ?rotateMask@?$WebSocketProtocol@$0A@U?$WebSocket@$0A@@uWS@@@uWS@@CAXIPEAD@Z 000000018000e920 f i WebSocket.obj
 0001:0000d920       ?rotateMask@?$WebSocketProtocol@$00U?$WebSocket@$00@uWS@@@uWS@@CAXIPEAD@Z 000000018000e920 f i WebSocket.obj
 0001:0000da20       ??$sendTransformed@UWebSocketTransformer@?1??send@?$WebSocket@$00@uWS@@QEAAXPEBD_KW4OpCode@4@P6AXPEAU34@PEAX_N4@Z4@Z@UTransformData@?1??234@QEAAX01264@Z@@Socket@uS@@IEAAXPEBD_KP6AXPEAX2_N2@Z2UTransformData@?1??send@?$WebSocket@$00@uWS@@QEAAX01W4OpCode@5@P6AXPEAU45@232@Z2@Z@@Z 000000018000ea20 f i WebSocket.obj
 0001:0000dd70       ??$sendTransformed@UWebSocketTransformer@?1??send@?$WebSocket@$0A@@uWS@@QEAAXPEBD_KW4OpCode@4@P6AXPEAU34@PEAX_N4@Z4@Z@UTransformData@?1??234@QEAAX01264@Z@@Socket@uS@@IEAAXPEBD_KP6AXPEAX2_N2@Z2UTransformData@?1??send@?$WebSocket@$0A@@uWS@@QEAAX01W4OpCode@5@P6AXPEAU45@232@Z2@Z@@Z 000000018000ed70 f i WebSocket.obj
 0001:0000e000       ??$consumeMessage@$01E@?$WebSocketProtocol@$0A@U?$WebSocket@$0A@@uWS@@@uWS@@CA_NEAEAPEADAEAIPEAU?$WebSocketState@$0A@@1@@Z 000000018000f000 f i WebSocket.obj
 0001:0000e1d0       ??$consumeMessage@$03G@?$WebSocketProtocol@$0A@U?$WebSocket@$0A@@uWS@@@uWS@@CA_NGAEAPEADAEAIPEAU?$WebSocketState@$0A@@1@@Z 000000018000f1d0 f i WebSocket.obj
 0001:0000e3a0       ??$consumeMessage@$09_K@?$WebSocketProtocol@$0A@U?$WebSocket@$0A@@uWS@@@uWS@@CA_N_KAEAPEADAEAIPEAU?$WebSocketState@$0A@@1@@Z 000000018000f3a0 f i WebSocket.obj
 0001:0000e530       ??$consumeMessage@$05E@?$WebSocketProtocol@$00U?$WebSocket@$00@uWS@@@uWS@@CA_NEAEAPEADAEAIPEAU?$WebSocketState@$00@1@@Z 000000018000f530 f i WebSocket.obj
 0001:0000e830       ??$consumeMessage@$07G@?$WebSocketProtocol@$00U?$WebSocket@$00@uWS@@@uWS@@CA_NGAEAPEADAEAIPEAU?$WebSocketState@$00@1@@Z 000000018000f830 f i WebSocket.obj
 0001:0000eb20       ??$consumeMessage@$0O@_K@?$WebSocketProtocol@$00U?$WebSocket@$00@uWS@@@uWS@@CA_N_KAEAPEADAEAIPEAU?$WebSocketState@$00@1@@Z 000000018000fb20 f i WebSocket.obj
 0001:0000ede0       ?unmaskImpreciseCopyMask@?$WebSocketProtocol@$0A@U?$WebSocket@$0A@@uWS@@@uWS@@CAXPEAD00I@Z 000000018000fde0 f i WebSocket.obj
 0001:0000ede0       ?unmaskImpreciseCopyMask@?$WebSocketProtocol@$00U?$WebSocket@$00@uWS@@@uWS@@CAXPEAD00I@Z 000000018000fde0 f i WebSocket.obj
 0001:0000ee40       ?unmaskImprecise@?$WebSocketProtocol@$0A@U?$WebSocket@$0A@@uWS@@@uWS@@CAXPEAD00I@Z 000000018000fe40 f i WebSocket.obj
 0001:0000ee40       ?unmaskImprecise@?$WebSocketProtocol@$00U?$WebSocket@$00@uWS@@@uWS@@CAXPEAD00I@Z 000000018000fe40 f i WebSocket.obj
 0001:0000ee90       ?getMethod@HttpRequest@uWS@@QEAA?AW4HttpMethod@2@XZ 000000018000fe90 f i HTTPSocket.obj
 0001:0000f020       ?getHeaders@uWS@@YAPEADPEAD0PEAUHeader@1@_K@Z 0000000180010020 f   HTTPSocket.obj
 0001:0000f210       ?upgrade@?$HttpSocket@$00@uWS@@QEAAXPEBD0_K01PEA_N@Z 0000000180010210 f i HTTPSocket.obj
 0001:0000f640       ?onData@?$HttpSocket@$00@uWS@@CAPEAUSocket@uS@@PEAU34@PEAD_K@Z 0000000180010640 f i HTTPSocket.obj
 0001:0000fd40       ?onEnd@?$HttpSocket@$00@uWS@@CAXPEAUSocket@uS@@@Z 0000000180010d40 f i HTTPSocket.obj
 0001:0000fee0       ?upgrade@?$HttpSocket@$0A@@uWS@@QEAAXPEBD0_K01PEA_N@Z 0000000180010ee0 f i HTTPSocket.obj
 0001:0000ffa0       ?onData@?$HttpSocket@$0A@@uWS@@CAPEAUSocket@uS@@PEAU34@PEAD_K@Z 0000000180010fa0 f i HTTPSocket.obj
 0001:00010370       ?onEnd@?$HttpSocket@$0A@@uWS@@CAXPEAUSocket@uS@@@Z 0000000180011370 f i HTTPSocket.obj
 0001:00010530       ??$sslIoHandler@U?$WebSocket@$0A@@uWS@@@Socket@uS@@KAXPEAUPoll@1@HH@Z 0000000180011530 f i HTTPSocket.obj
 0001:00010750       ??$ioHandler@U?$WebSocket@$0A@@uWS@@@Socket@uS@@KAXPEAUPoll@1@HH@Z 0000000180011750 f i HTTPSocket.obj
 0001:000108f0       ?getAddress@Socket@uS@@QEAA?AUAddress@12@XZ 00000001800118f0 f   Socket.obj
 0001:00010a10       ?dup@@YA_K_K@Z             0000000180011a10 f i addon.obj
 0001:00010aa0       __local_stdio_printf_options 0000000180011aa0 f i addon.obj
 0001:00010ab0       sprintf                    0000000180011ab0 f i addon.obj
 0001:00010b10       sprintf_s                  0000000180011b10 f i addon.obj
 0001:00010b70       ?what@exception@stdext@@UEBAPEBDXZ 0000000180011b70 f i addon.obj
 0001:00010b90       ??_Eruntime_error@std@@UEAAPEAXI@Z 0000000180011b90 f i * CIL library *:* CIL module *
 0001:00010b90       ??_Gexception@stdext@@UEAAPEAXI@Z 0000000180011b90 f i addon.obj
 0001:00010b90       ??_Eexception@stdext@@UEAAPEAXI@Z 0000000180011b90 f i * CIL library *:* CIL module *
 0001:00010b90       ??_Gruntime_error@std@@UEAAPEAXI@Z 0000000180011b90 f i addon.obj
 0001:00010bc0       ??0_Locinfo@std@@QEAA@PEBD@Z 0000000180011bc0 f i addon.obj
 0001:00010c80       ??1_Locinfo@std@@QEAA@XZ   0000000180011c80 f i addon.obj
 0001:00010d20       ??_G_Facet_base@std@@UEAAPEAXI@Z 0000000180011d20 f i addon.obj
 0001:00010d20       ??_E_Facet_base@std@@UEAAPEAXI@Z 0000000180011d20 f i * CIL library *:* CIL module *
 0001:00010d50       ?_Incref@facet@locale@std@@UEAAXXZ 0000000180011d50 f i addon.obj
 0001:00010d60       ?_Decref@facet@locale@std@@UEAAPEAV_Facet_base@3@XZ 0000000180011d60 f i addon.obj
 0001:00010d70       ?_Getcat@?$ctype@D@std@@SA_KPEAPEBVfacet@locale@2@PEBV42@@Z 0000000180011d70 f i addon.obj
 0001:00010e30       ?do_tolower@?$ctype@D@std@@MEBADD@Z 0000000180011e30 f i addon.obj
 0001:00010e40       ?do_tolower@?$ctype@D@std@@MEBAPEBDPEADPEBD@Z 0000000180011e40 f i addon.obj
 0001:00010ea0       ?do_toupper@?$ctype@D@std@@MEBADD@Z 0000000180011ea0 f i addon.obj
 0001:00010eb0       ?do_toupper@?$ctype@D@std@@MEBAPEBDPEADPEBD@Z 0000000180011eb0 f i addon.obj
 0001:00010f10       ?do_widen@?$ctype@D@std@@MEBADD@Z 0000000180011f10 f i addon.obj
 0001:00010f10       ?do_narrow@?$ctype@D@std@@MEBADDD@Z 0000000180011f10 f i addon.obj
 0001:00010f20       ?do_widen@?$ctype@D@std@@MEBAPEBDPEBD0PEAD@Z 0000000180011f20 f i addon.obj
 0001:00010f40       ?do_narrow@?$ctype@D@std@@MEBAPEBDPEBD0DPEAD@Z 0000000180011f40 f i addon.obj
 0001:00010f60       ??_E?$ctype@D@std@@MEAAPEAXI@Z 0000000180011f60 f i * CIL library *:* CIL module *
 0001:00010f60       ??_G?$ctype@D@std@@MEAAPEAXI@Z 0000000180011f60 f i addon.obj
 0001:00010fd0       ??_G_Generic_error_category@std@@UEAAPEAXI@Z 0000000180011fd0 f i addon.obj
 0001:00010fd0       ??_G_Iostream_error_category@std@@UEAAPEAXI@Z 0000000180011fd0 f i addon.obj
 0001:00010fd0       ??_E_Iostream_error_category@std@@UEAAPEAXI@Z 0000000180011fd0 f i * CIL library *:* CIL module *
 0001:00010fd0       ??_Gerror_category@std@@UEAAPEAXI@Z 0000000180011fd0 f i addon.obj
 0001:00010fd0       ??_Eerror_category@std@@UEAAPEAXI@Z 0000000180011fd0 f i * CIL library *:* CIL module *
 0001:00010fd0       ??_E_Generic_error_category@std@@UEAAPEAXI@Z 0000000180011fd0 f i * CIL library *:* CIL module *
 0001:00011000       ?default_error_condition@error_category@std@@UEBA?AVerror_condition@2@H@Z 0000000180012000 f i addon.obj
 0001:00011010       ?equivalent@error_category@std@@UEBA_NHAEBVerror_condition@2@@Z 0000000180012010 f i addon.obj
 0001:00011050       ?equivalent@error_category@std@@UEBA_NAEBVerror_code@2@H@Z 0000000180012050 f i addon.obj
 0001:00011070       ??0_System_error@std@@IEAA@Verror_code@1@AEBV?$basic_string@DU?$char_traits@D@std@@V?$allocator@D@2@@1@@Z 0000000180012070 f i addon.obj
 0001:000111d0       ??_Esystem_error@std@@UEAAPEAXI@Z 00000001800121d0 f i * CIL library *:* CIL module *
 0001:000111d0       ??_Gsystem_error@std@@UEAAPEAXI@Z 00000001800121d0 f i addon.obj
 0001:000111d0       ??_Gfailure@ios_base@std@@UEAAPEAXI@Z 00000001800121d0 f i addon.obj
 0001:000111d0       ??_G_System_error@std@@UEAAPEAXI@Z 00000001800121d0 f i addon.obj
 0001:000111d0       ??_Efailure@ios_base@std@@UEAAPEAXI@Z 00000001800121d0 f i * CIL library *:* CIL module *
 0001:000111d0       ??_E_System_error@std@@UEAAPEAXI@Z 00000001800121d0 f i * CIL library *:* CIL module *
 0001:00011200       ??0system_error@std@@QEAA@Verror_code@1@PEBD@Z 0000000180012200 f i addon.obj
 0001:000112c0       ??1system_error@std@@UEAA@XZ 00000001800122c0 f i addon.obj
 0001:000112d0       ?name@_Generic_error_category@std@@UEBAPEBDXZ 00000001800122d0 f i addon.obj
 0001:000112e0       ?message@_Generic_error_category@std@@UEBA?AV?$basic_string@DU?$char_traits@D@std@@V?$allocator@D@2@@2@H@Z 00000001800122e0 f i addon.obj
 0001:00011330       ?name@_Iostream_error_category@std@@UEBAPEBDXZ 0000000180012330 f i addon.obj
 0001:00011340       ?message@_Iostream_error_category@std@@UEBA?AV?$basic_string@DU?$char_traits@D@std@@V?$allocator@D@2@@2@H@Z 0000000180012340 f i addon.obj
 0001:000113c0       ?clear@ios_base@std@@QEAAXH_N@Z 00000001800123c0 f i addon.obj
 0001:00011540       ?end@HttpResponse@uWS@@QEAAXPEBD_KP6AXPEAX2_N2@Z2@Z 0000000180012540 f i addon.obj
 0001:000116e0       ?NODE_SET_METHOD@node@@YAXV?$Local@VObject@v8@@@v8@@PEBDP6AXAEBV?$FunctionCallbackInfo@VValue@v8@@@3@@Z@Z 00000001800126e0 f i addon.obj
 0001:00011870       ??0NativeString@@QEAA@AEBV?$Local@VValue@v8@@@v8@@@Z 0000000180012870 f i addon.obj
 0001:000119e0       ?connect@@YAXAEBV?$FunctionCallbackInfo@VValue@v8@@@v8@@@Z 00000001800129e0 f   addon.obj
 0001:00011b70       ?upgrade@@YAXAEBV?$FunctionCallbackInfo@VValue@v8@@@v8@@@Z 0000000180012b70 f   addon.obj
 0001:00011d50       ?transfer@@YAXAEBV?$FunctionCallbackInfo@VValue@v8@@@v8@@@Z 0000000180012d50 f   addon.obj
 0001:00011f00       ?onError@@YAXAEBV?$FunctionCallbackInfo@VValue@v8@@@v8@@@Z 0000000180012f00 f   addon.obj
 0001:000120e0       ?forEach@@YAXAEBV?$FunctionCallbackInfo@VValue@v8@@@v8@@@Z 00000001800130e0 f   addon.obj
 0001:00012160       ?getSize@@YAXAEBV?$FunctionCallbackInfo@VValue@v8@@@v8@@@Z 0000000180013160 f   addon.obj
 0001:000121d0       ?startAutoPing@@YAXAEBV?$FunctionCallbackInfo@VValue@v8@@@v8@@@Z 00000001800131d0 f   addon.obj
 0001:000122d0       ?setNoop@@YAXAEBV?$FunctionCallbackInfo@VValue@v8@@@v8@@@Z 00000001800132d0 f   addon.obj
 0001:00012340       ?listen@@YAXAEBV?$FunctionCallbackInfo@VValue@v8@@@v8@@@Z 0000000180013340 f   addon.obj
 0001:000123d0       ?on@Request@HttpServer@@SAXAEBV?$FunctionCallbackInfo@VValue@v8@@@v8@@@Z 00000001800133d0 f i addon.obj
 0001:00012610       ?headers@Request@HttpServer@@SAXV?$Local@VString@v8@@@v8@@AEBV?$PropertyCallbackInfo@VValue@v8@@@4@@Z 0000000180013610 f i addon.obj
 0001:00012770       ?url@Request@HttpServer@@SAXV?$Local@VString@v8@@@v8@@AEBV?$PropertyCallbackInfo@VValue@v8@@@4@@Z 0000000180013770 f i addon.obj
 0001:000127f0       ?method@Request@HttpServer@@SAXV?$Local@VString@v8@@@v8@@AEBV?$PropertyCallbackInfo@VValue@v8@@@4@@Z 00000001800137f0 f i addon.obj
 0001:00012940       ?socket@Request@HttpServer@@SAXAEBV?$FunctionCallbackInfo@VValue@v8@@@v8@@@Z 0000000180013940 f i addon.obj
 0001:00012980       ?getTemplateObject@Request@HttpServer@@SA?AV?$Local@VObject@v8@@@v8@@PEAVIsolate@4@@Z 0000000180013980 f i addon.obj
 0001:00012d10       ?on@Response@HttpServer@@SAXAEBV?$FunctionCallbackInfo@VValue@v8@@@v8@@@Z 0000000180013d10 f i addon.obj
 0001:00012ec0       ?end@Response@HttpServer@@SAXAEBV?$FunctionCallbackInfo@VValue@v8@@@v8@@@Z 0000000180013ec0 f i addon.obj
 0001:00012fb0       ?writeHead@Response@HttpServer@@SAXAEBV?$FunctionCallbackInfo@VValue@v8@@@v8@@@Z 0000000180013fb0 f i addon.obj
 0001:00013310       ?write@Response@HttpServer@@SAXAEBV?$FunctionCallbackInfo@VValue@v8@@@v8@@@Z 0000000180014310 f i addon.obj
 0001:000133d0       ?getTemplateObject@Response@HttpServer@@SA?AV?$Local@VObject@v8@@@v8@@PEAVIsolate@4@@Z 00000001800143d0 f i addon.obj
 0001:00013720       ?createServer@HttpServer@@SAXAEBV?$FunctionCallbackInfo@VValue@v8@@@v8@@@Z 0000000180014720 f i addon.obj
 0001:00014040       ?on@HttpServer@@SAXAEBV?$FunctionCallbackInfo@VValue@v8@@@v8@@@Z 0000000180015040 f i addon.obj
 0001:00014130       ?listen@HttpServer@@SAXAEBV?$FunctionCallbackInfo@VValue@v8@@@v8@@@Z 0000000180015130 f i addon.obj
 0001:00014280       ?getExpressApp@HttpServer@@SAXAEBV?$FunctionCallbackInfo@VValue@v8@@@v8@@@Z 0000000180015280 f i addon.obj
 0001:00014440       ?getResponsePrototype@HttpServer@@SAXAEBV?$FunctionCallbackInfo@VValue@v8@@@v8@@@Z 0000000180015440 f i addon.obj
 0001:000144a0       ?getRequestPrototype@HttpServer@@SAXAEBV?$FunctionCallbackInfo@VValue@v8@@@v8@@@Z 00000001800154a0 f i addon.obj
 0001:00014500       ?getHttpServer@HttpServer@@SA?AV?$Local@VFunction@v8@@@v8@@PEAVIsolate@3@@Z 0000000180015500 f i addon.obj
 0001:00014880       ?Main@@YAXV?$Local@VObject@v8@@@v8@@@Z 0000000180015880 f   addon.obj
 0001:00014e70       ??0?$Namespace@$0A@@@QEAA@PEAVIsolate@v8@@@Z 0000000180015e70 f i addon.obj
 0001:00015080       ??0?$Namespace@$00@@QEAA@PEAVIsolate@v8@@@Z 0000000180016080 f i addon.obj
 0001:000152e0       ?compare@?$basic_string@DU?$char_traits@D@std@@V?$allocator@D@2@@std@@QEBAHPEBD@Z 00000001800162e0 f i addon.obj
 0001:00015370       ??6?$basic_ostream@DU?$char_traits@D@std@@@std@@QEAAAEAV01@_N@Z 0000000180016370 f i addon.obj
 0001:00015510       ??0sentry@?$basic_ostream@DU?$char_traits@D@std@@@std@@QEAA@AEAV12@@Z 0000000180016510 f i addon.obj
 0001:00015580       ?do_put@?$num_put@DV?$ostreambuf_iterator@DU?$char_traits@D@std@@@std@@@std@@MEBA?AV?$ostreambuf_iterator@DU?$char_traits@D@std@@@2@V32@AEAVios_base@2@DPEBX@Z 0000000180016580 f i addon.obj
 0001:00015620       ?do_put@?$num_put@DV?$ostreambuf_iterator@DU?$char_traits@D@std@@@std@@@std@@MEBA?AV?$ostreambuf_iterator@DU?$char_traits@D@std@@@2@V32@AEAVios_base@2@DO@Z 0000000180016620 f i addon.obj
 0001:00015860       ?do_put@?$num_put@DV?$ostreambuf_iterator@DU?$char_traits@D@std@@@std@@@std@@MEBA?AV?$ostreambuf_iterator@DU?$char_traits@D@std@@@2@V32@AEAVios_base@2@DN@Z 0000000180016860 f i addon.obj
 0001:00015aa0       ?do_put@?$num_put@DV?$ostreambuf_iterator@DU?$char_traits@D@std@@@std@@@std@@MEBA?AV?$ostreambuf_iterator@DU?$char_traits@D@std@@@2@V32@AEAVios_base@2@D_K@Z 0000000180016aa0 f i addon.obj
 0001:00015ba0       ?do_put@?$num_put@DV?$ostreambuf_iterator@DU?$char_traits@D@std@@@std@@@std@@MEBA?AV?$ostreambuf_iterator@DU?$char_traits@D@std@@@2@V32@AEAVios_base@2@D_J@Z 0000000180016ba0 f i addon.obj
 0001:00015ca0       ?do_put@?$num_put@DV?$ostreambuf_iterator@DU?$char_traits@D@std@@@std@@@std@@MEBA?AV?$ostreambuf_iterator@DU?$char_traits@D@std@@@2@V32@AEAVios_base@2@DK@Z 0000000180016ca0 f i addon.obj
 0001:00015da0       ?do_put@?$num_put@DV?$ostreambuf_iterator@DU?$char_traits@D@std@@@std@@@std@@MEBA?AV?$ostreambuf_iterator@DU?$char_traits@D@std@@@2@V32@AEAVios_base@2@DJ@Z 0000000180016da0 f i addon.obj
 0001:00015ea0       ?do_put@?$num_put@DV?$ostreambuf_iterator@DU?$char_traits@D@std@@@std@@@std@@MEBA?AV?$ostreambuf_iterator@DU?$char_traits@D@std@@@2@V32@AEAVios_base@2@D_N@Z 0000000180016ea0 f i addon.obj
 0001:000161c0       ?assign@?$basic_string@DU?$char_traits@D@std@@V?$allocator@D@2@@std@@QEAAAEAV12@_KD@Z 00000001800171c0 f i addon.obj
 0001:000162d0       ??_E?$codecvt@DDU_Mbstatet@@@std@@MEAAPEAXI@Z 00000001800172d0 f i libcpmt:cout.obj
 0001:000162d0       ??_E?$num_put@DV?$ostreambuf_iterator@DU?$char_traits@D@std@@@std@@@std@@MEAAPEAXI@Z 00000001800172d0 f i * CIL library *:* CIL module *
 0001:000162d0       ??_G?$codecvt@DDU_Mbstatet@@@std@@MEAAPEAXI@Z 00000001800172d0 f i libcpmt:cout.obj
 0001:000162d0       ??_G?$num_put@DV?$ostreambuf_iterator@DU?$char_traits@D@std@@@std@@@std@@MEAAPEAXI@Z 00000001800172d0 f i addon.obj
 0001:00016300       ?do_truename@?$numpunct@D@std@@MEBA?AV?$basic_string@DU?$char_traits@D@std@@V?$allocator@D@2@@2@XZ 0000000180017300 f i addon.obj
 0001:00016350       ?do_falsename@?$numpunct@D@std@@MEBA?AV?$basic_string@DU?$char_traits@D@std@@V?$allocator@D@2@@2@XZ 0000000180017350 f i addon.obj
 0001:000163a0       ?do_grouping@?$numpunct@D@std@@MEBA?AV?$basic_string@DU?$char_traits@D@std@@V?$allocator@D@2@@2@XZ 00000001800173a0 f i addon.obj
 0001:000163f0       ?do_thousands_sep@?$numpunct@D@std@@MEBADXZ 00000001800173f0 f i addon.obj
 0001:00016400       ?do_decimal_point@?$numpunct@D@std@@MEBADXZ 0000000180017400 f i addon.obj
 0001:00016410       ?_Iput@?$num_put@DV?$ostreambuf_iterator@DU?$char_traits@D@std@@@std@@@std@@AEBA?AV?$ostreambuf_iterator@DU?$char_traits@D@std@@@2@V32@AEAVios_base@2@DPEAD_K@Z 0000000180017410 f i addon.obj
 0001:00016ac0       ?_Fput@?$num_put@DV?$ostreambuf_iterator@DU?$char_traits@D@std@@@std@@@std@@AEBA?AV?$ostreambuf_iterator@DU?$char_traits@D@std@@@2@V32@AEAVios_base@2@DPEBD_K@Z 0000000180017ac0 f i addon.obj
 0001:000171f0       ?flush@?$basic_ostream@DU?$char_traits@D@std@@@std@@QEAAAEAV12@XZ 00000001800181f0 f i addon.obj
 0001:000172e0       ??_G?$numpunct@D@std@@MEAAPEAXI@Z 00000001800182e0 f i addon.obj
 0001:000172e0       ??_E?$numpunct@D@std@@MEAAPEAXI@Z 00000001800182e0 f i * CIL library *:* CIL module *
 0001:00017340       ??$use_facet@V?$ctype@D@std@@@std@@YAAEBV?$ctype@D@0@AEBVlocale@0@@Z 0000000180018340 f i addon.obj
 0001:00017450       ??$_Immortalize@V_Iostream_error_category@std@@@std@@YAAEAV_Iostream_error_category@0@XZ 0000000180018450 f i addon.obj
 0001:000174d0       ??$_Integral_to_string@D_J@std@@YA?AV?$basic_string@DU?$char_traits@D@std@@V?$allocator@D@2@@0@_J@Z 00000001800184d0 f i addon.obj
 0001:000175c0       ??$sendTransformed@UNoopTransformer@?1??write@HttpResponse@uWS@@QEAAXPEBD_KP6AXPEAX2_N2@Z2@Z@H@Socket@uS@@IEAAXPEBD_KP6AXPEAX2_N2@Z2H@Z 00000001800185c0 f i addon.obj
 0001:00017770       ??$sendTransformed@UHttpTransformer@?1??end@HttpResponse@uWS@@QEAAXPEBD_KP6AXPEAX2_N2@Z2@Z@UTransformData@?1??234@QEAAX0142@Z@@Socket@uS@@IEAAXPEBD_KP6AXPEAX2_N2@Z2UTransformData@?1??end@HttpResponse@uWS@@QEAAX0142@Z@@Z 0000000180018770 f i addon.obj
 0001:000179b0       ??$forEach@V<lambda_f579d7c9d7b81c3c99776603c828d8de>@@@?$Group@$00@uWS@@QEAAXAEBV<lambda_f579d7c9d7b81c3c99776603c828d8de>@@@Z 00000001800189b0 f i addon.obj
 0001:00017b40       ??$?6U?$char_traits@D@std@@@std@@YAAEAV?$basic_ostream@DU?$char_traits@D@std@@@0@AEAV10@PEBD@Z 0000000180018b40 f i addon.obj
 0001:00017d90       ??$?6DU?$char_traits@D@std@@V?$allocator@D@1@@std@@YAAEAV?$basic_ostream@DU?$char_traits@D@std@@@0@AEAV10@AEBV?$basic_string@DU?$char_traits@D@std@@V?$allocator@D@2@@0@@Z 0000000180018d90 f i addon.obj
 0001:00017fd0       ??$endl@DU?$char_traits@D@std@@@std@@YAAEAV?$basic_ostream@DU?$char_traits@D@std@@@0@AEAV10@@Z 0000000180018fd0 f i addon.obj
 0001:00018060       ??$setUserData@$00@@YAXAEBV?$FunctionCallbackInfo@VValue@v8@@@v8@@@Z 0000000180019060 f i addon.obj
 0001:00018150       ??$getUserData@$00@@YAXAEBV?$FunctionCallbackInfo@VValue@v8@@@v8@@@Z 0000000180019150 f i addon.obj
 0001:000181e0       ??$clearUserData@$00@@YAXAEBV?$FunctionCallbackInfo@VValue@v8@@@v8@@@Z 00000001800191e0 f i addon.obj
 0001:00018250       ??$getAddress@$00@@YAXAEBV?$FunctionCallbackInfo@VValue@v8@@@v8@@@Z 0000000180019250 f i addon.obj
 0001:00018360       ??$send@$0A@@@YAXAEBV?$FunctionCallbackInfo@VValue@v8@@@v8@@@Z 0000000180019360 f i addon.obj
 0001:000184e0       ??$closeSocket@$0A@@@YAXAEBV?$FunctionCallbackInfo@VValue@v8@@@v8@@@Z 00000001800194e0 f i addon.obj
 0001:000185d0       ??$terminateSocket@$0A@@@YAXAEBV?$FunctionCallbackInfo@VValue@v8@@@v8@@@Z 00000001800195d0 f i addon.obj
 0001:00018610       ??$prepareMessage@$0A@@@YAXAEBV?$FunctionCallbackInfo@VValue@v8@@@v8@@@Z 0000000180019610 f i addon.obj
 0001:00018710       ??$sendPrepared@$00@@YAXAEBV?$FunctionCallbackInfo@VValue@v8@@@v8@@@Z 0000000180019710 f i addon.obj
 0001:00018710       ??$sendPrepared@$0A@@@YAXAEBV?$FunctionCallbackInfo@VValue@v8@@@v8@@@Z 0000000180019710 f i addon.obj
 0001:00018780       ??$finalizeMessage@$00@@YAXAEBV?$FunctionCallbackInfo@VValue@v8@@@v8@@@Z 0000000180019780 f i addon.obj
 0001:00018780       ??$finalizeMessage@$0A@@@YAXAEBV?$FunctionCallbackInfo@VValue@v8@@@v8@@@Z 0000000180019780 f i addon.obj
 0001:000187d0       ??$onConnection@$0A@@@YAXAEBV?$FunctionCallbackInfo@VValue@v8@@@v8@@@Z 00000001800197d0 f i addon.obj
 0001:000189a0       ??$onMessage@$0A@@@YAXAEBV?$FunctionCallbackInfo@VValue@v8@@@v8@@@Z 00000001800199a0 f i addon.obj
 0001:00018bc0       ??$onDisconnection@$0A@@@YAXAEBV?$FunctionCallbackInfo@VValue@v8@@@v8@@@Z 0000000180019bc0 f i addon.obj
 0001:00018e40       ??$onPing@$0A@@@YAXAEBV?$FunctionCallbackInfo@VValue@v8@@@v8@@@Z 0000000180019e40 f i addon.obj
 0001:00019040       ??$onPong@$0A@@@YAXAEBV?$FunctionCallbackInfo@VValue@v8@@@v8@@@Z 000000018001a040 f i addon.obj
 0001:00019140       ??$createGroup@$0A@@@YAXAEBV?$FunctionCallbackInfo@VValue@v8@@@v8@@@Z 000000018001a140 f i addon.obj
 0001:00019250       ??$deleteGroup@$0A@@@YAXAEBV?$FunctionCallbackInfo@VValue@v8@@@v8@@@Z 000000018001a250 f i addon.obj
 0001:00019250       ??$deleteGroup@$00@@YAXAEBV?$FunctionCallbackInfo@VValue@v8@@@v8@@@Z 000000018001a250 f i addon.obj
 0001:000192b0       ??$closeGroup@$0A@@@YAXAEBV?$FunctionCallbackInfo@VValue@v8@@@v8@@@Z 000000018001a2b0 f i addon.obj
 0001:000193e0       ??$terminateGroup@$0A@@@YAXAEBV?$FunctionCallbackInfo@VValue@v8@@@v8@@@Z 000000018001a3e0 f i addon.obj
 0001:00019430       ??$broadcast@$0A@@@YAXAEBV?$FunctionCallbackInfo@VValue@v8@@@v8@@@Z 000000018001a430 f i addon.obj
 0001:00019550       ??$send@$00@@YAXAEBV?$FunctionCallbackInfo@VValue@v8@@@v8@@@Z 000000018001a550 f i addon.obj
 0001:000196d0       ??$closeSocket@$00@@YAXAEBV?$FunctionCallbackInfo@VValue@v8@@@v8@@@Z 000000018001a6d0 f i addon.obj
 0001:000197c0       ??$terminateSocket@$00@@YAXAEBV?$FunctionCallbackInfo@VValue@v8@@@v8@@@Z 000000018001a7c0 f i addon.obj
 0001:00019800       ??$prepareMessage@$00@@YAXAEBV?$FunctionCallbackInfo@VValue@v8@@@v8@@@Z 000000018001a800 f i addon.obj
 0001:00019900       ??$onConnection@$00@@YAXAEBV?$FunctionCallbackInfo@VValue@v8@@@v8@@@Z 000000018001a900 f i addon.obj
 0001:00019a10       ??$onMessage@$00@@YAXAEBV?$FunctionCallbackInfo@VValue@v8@@@v8@@@Z 000000018001aa10 f i addon.obj
 0001:00019b10       ??$onDisconnection@$00@@YAXAEBV?$FunctionCallbackInfo@VValue@v8@@@v8@@@Z 000000018001ab10 f i addon.obj
 0001:00019c30       ??$onPing@$00@@YAXAEBV?$FunctionCallbackInfo@VValue@v8@@@v8@@@Z 000000018001ac30 f i addon.obj
 0001:00019d30       ??$onPong@$00@@YAXAEBV?$FunctionCallbackInfo@VValue@v8@@@v8@@@Z 000000018001ad30 f i addon.obj
 0001:00019e30       ??$createGroup@$00@@YAXAEBV?$FunctionCallbackInfo@VValue@v8@@@v8@@@Z 000000018001ae30 f i addon.obj
 0001:00019f40       ??$closeGroup@$00@@YAXAEBV?$FunctionCallbackInfo@VValue@v8@@@v8@@@Z 000000018001af40 f i addon.obj
 0001:0001a030       ??$terminateGroup@$00@@YAXAEBV?$FunctionCallbackInfo@VValue@v8@@@v8@@@Z 000000018001b030 f i addon.obj
 0001:0001a070       ??$broadcast@$00@@YAXAEBV?$FunctionCallbackInfo@VValue@v8@@@v8@@@Z 000000018001b070 f i addon.obj
 0001:0001a190       ??$use_facet@V?$num_put@DV?$ostreambuf_iterator@DU?$char_traits@D@std@@@std@@@std@@@std@@YAAEBV?$num_put@DV?$ostreambuf_iterator@DU?$char_traits@D@std@@@std@@@0@AEBVlocale@0@@Z 000000018001b190 f i addon.obj
 0001:0001a2a0       ??$use_facet@V?$numpunct@D@std@@@std@@YAAEBV?$numpunct@D@0@AEBVlocale@0@@Z 000000018001b2a0 f i addon.obj
 0001:0001a3b0       ?_Getcat@?$numpunct@D@std@@SA_KPEAPEBVfacet@locale@2@PEBV42@@Z 000000018001b3b0 f i addon.obj
 0001:0001a470       ?_Getcat@?$num_put@DV?$ostreambuf_iterator@DU?$char_traits@D@std@@@std@@@std@@SA_KPEAPEBVfacet@locale@2@PEBV42@@Z 000000018001b470 f i addon.obj
 0001:0001a520       ?put@?$basic_ostream@DU?$char_traits@D@std@@@std@@QEAAAEAV12@D@Z 000000018001b520 f i addon.obj
 0001:0001a670       ?widen@?$basic_ios@DU?$char_traits@D@std@@@std@@QEBADD@Z 000000018001b670 f i addon.obj
 0001:0001a6e0       ?insert@?$basic_string@DU?$char_traits@D@std@@V?$allocator@D@2@@std@@QEAAAEAV12@_KPEBD0@Z 000000018001b6e0 f i addon.obj
 0001:0001a860       ?_Init@?$numpunct@D@std@@IEAAXAEBV_Locinfo@2@_N@Z 000000018001b860 f i addon.obj
 0001:0001a9e0       ?insert@?$basic_string@DU?$char_traits@D@std@@V?$allocator@D@2@@std@@QEAAAEAV12@_KAEBV12@00@Z 000000018001b9e0 f i addon.obj
 0001:0001ab80       ??$sendCallback@$00@@YAXPEAU?$WebSocket@$00@uWS@@PEAX_N1@Z 000000018001bb80 f i addon.obj
 0001:0001ab80       ??$sendCallback@$0A@@@YAXPEAU?$WebSocket@$0A@@uWS@@PEAX_N1@Z 000000018001bb80 f i addon.obj
 0001:0001ac40       ?_Target_type@?$_Func_impl@V<lambda_2348f224942daab74e5fd550b84d90ff>@@V?$allocator@H@std@@XPEAUHttpResponse@uWS@@PEAD_K_K@std@@EEBAAEBVtype_info@@XZ 000000018001bc40 f i addon.obj
 0001:0001ac50       ?_Do_call@?$_Func_impl@V<lambda_2348f224942daab74e5fd550b84d90ff>@@V?$allocator@H@std@@XPEAUHttpResponse@uWS@@PEAD_K_K@std@@EEAAX$$QEAPEAUHttpResponse@uWS@@$$QEAPEAD$$QEA_K2@Z 000000018001bc50 f i addon.obj
 0001:0001ac70       ?_Move@?$_Func_impl@V<lambda_2348f224942daab74e5fd550b84d90ff>@@V?$allocator@H@std@@XPEAUHttpResponse@uWS@@PEAD_K_K@std@@EEAAPEAV?$_Func_base@XPEAUHttpResponse@uWS@@PEAD_K_K@2@PEAX@Z 000000018001bc70 f i addon.obj
 0001:0001ac70       ?_Copy@?$_Func_impl@V<lambda_2348f224942daab74e5fd550b84d90ff>@@V?$allocator@H@std@@XPEAUHttpResponse@uWS@@PEAD_K_K@std@@EEBAPEAV?$_Func_base@XPEAUHttpResponse@uWS@@PEAD_K_K@2@PEAX@Z 000000018001bc70 f i addon.obj
 0001:0001ac90       ?_Target_type@?$_Func_impl@V<lambda_627f71350547a88590b856e4dc8f03a3>@@V?$allocator@H@std@@XPEAUHttpResponse@uWS@@@std@@EEBAAEBVtype_info@@XZ 000000018001bc90 f i addon.obj
 0001:0001aca0       ?_Do_call@?$_Func_impl@V<lambda_627f71350547a88590b856e4dc8f03a3>@@V?$allocator@H@std@@XPEAUHttpResponse@uWS@@@std@@EEAAX$$QEAPEAUHttpResponse@uWS@@@Z 000000018001bca0 f i addon.obj
 0001:0001acb0       ?_Move@?$_Func_impl@V<lambda_627f71350547a88590b856e4dc8f03a3>@@V?$allocator@H@std@@XPEAUHttpResponse@uWS@@@std@@EEAAPEAV?$_Func_base@XPEAUHttpResponse@uWS@@@2@PEAX@Z 000000018001bcb0 f i addon.obj
 0001:0001acb0       ?_Copy@?$_Func_impl@V<lambda_627f71350547a88590b856e4dc8f03a3>@@V?$allocator@H@std@@XPEAUHttpResponse@uWS@@@std@@EEBAPEAV?$_Func_base@XPEAUHttpResponse@uWS@@@2@PEAX@Z 000000018001bcb0 f i addon.obj
 0001:0001acd0       ?_Target_type@?$_Func_impl@V<lambda_adbdade2acdb425a95e1d65016bf1258>@@V?$allocator@H@std@@XPEAUHttpResponse@uWS@@UHttpRequest@5@PEAD_K_K@std@@EEBAAEBVtype_info@@XZ 000000018001bcd0 f i addon.obj
 0001:0001ace0       ?_Do_call@?$_Func_impl@V<lambda_adbdade2acdb425a95e1d65016bf1258>@@V?$allocator@H@std@@XPEAUHttpResponse@uWS@@UHttpRequest@5@PEAD_K_K@std@@EEAAX$$QEAPEAUHttpResponse@uWS@@$$QEAUHttpRequest@4@$$QEAPEAD$$QEA_K3@Z 000000018001bce0 f i addon.obj
 0001:0001ad10       ?_Copy@?$_Func_impl@V<lambda_adbdade2acdb425a95e1d65016bf1258>@@V?$allocator@H@std@@XPEAUHttpResponse@uWS@@UHttpRequest@5@PEAD_K_K@std@@EEBAPEAV?$_Func_base@XPEAUHttpResponse@uWS@@UHttpRequest@2@PEAD_K_K@2@PEAX@Z 000000018001bd10 f i addon.obj
 0001:0001ad10       ?_Move@?$_Func_impl@V<lambda_adbdade2acdb425a95e1d65016bf1258>@@V?$allocator@H@std@@XPEAUHttpResponse@uWS@@UHttpRequest@5@PEAD_K_K@std@@EEAAPEAV?$_Func_base@XPEAUHttpResponse@uWS@@UHttpRequest@2@PEAD_K_K@2@PEAX@Z 000000018001bd10 f i addon.obj
 0001:0001ad30       ?_Target_type@?$_Func_impl@V<lambda_2084e076f6151854c0db1be6acabce48>@@V?$allocator@H@std@@XPEAX@std@@EEBAAEBVtype_info@@XZ 000000018001bd30 f i addon.obj
 0001:0001ad40       ?_Do_call@?$_Func_impl@V<lambda_2084e076f6151854c0db1be6acabce48>@@V?$allocator@H@std@@XPEAX@std@@EEAAX$$QEAPEAX@Z 000000018001bd40 f i addon.obj
 0001:0001ad50       ?_Copy@?$_Func_impl@V<lambda_2084e076f6151854c0db1be6acabce48>@@V?$allocator@H@std@@XPEAX@std@@EEBAPEAV?$_Func_base@XPEAX@2@PEAX@Z 000000018001bd50 f i addon.obj
 0001:0001ad50       ?_Move@?$_Func_impl@V<lambda_2084e076f6151854c0db1be6acabce48>@@V?$allocator@H@std@@XPEAX@std@@EEAAPEAV?$_Func_base@XPEAX@2@PEAX@Z 000000018001bd50 f i addon.obj
 0001:0001ad70       ?_Target_type@?$_Func_impl@V<lambda_06b3790a6438be8c984e27831cd7ebe1>@@V?$allocator@H@std@@XPEAU?$WebSocket@$00@uWS@@PEAD_K@std@@EEBAAEBVtype_info@@XZ 000000018001bd70 f i addon.obj
 0001:0001ad80       ?_Do_call@?$_Func_impl@V<lambda_5203bc642fa96e6a4d3687e7b4a8a1dd>@@V?$allocator@H@std@@XPEAU?$WebSocket@$0A@@uWS@@PEAD_K@std@@EEAAX$$QEAPEAU?$WebSocket@$0A@@uWS@@$$QEAPEAD$$QEA_K@Z 000000018001bd80 f i addon.obj
 0001:0001ad80       ?_Do_call@?$_Func_impl@V<lambda_06b3790a6438be8c984e27831cd7ebe1>@@V?$allocator@H@std@@XPEAU?$WebSocket@$00@uWS@@PEAD_K@std@@EEAAX$$QEAPEAU?$WebSocket@$00@uWS@@$$QEAPEAD$$QEA_K@Z 000000018001bd80 f i addon.obj
 0001:0001ad80       ?_Do_call@?$_Func_impl@V<lambda_47e56f5e9252a482bd9c0aa7befe2a4e>@@V?$allocator@H@std@@XPEAU?$WebSocket@$0A@@uWS@@PEAD_K@std@@EEAAX$$QEAPEAU?$WebSocket@$0A@@uWS@@$$QEAPEAD$$QEA_K@Z 000000018001bd80 f i addon.obj
 0001:0001ad80       ?_Do_call@?$_Func_impl@V<lambda_2ba66bc05ba93ca83268b0bf8e7eaaf7>@@V?$allocator@H@std@@XPEAU?$WebSocket@$00@uWS@@PEAD_K@std@@EEAAX$$QEAPEAU?$WebSocket@$00@uWS@@$$QEAPEAD$$QEA_K@Z 000000018001bd80 f i addon.obj
 0001:0001ada0       ?_Move@?$_Func_impl@V<lambda_06b3790a6438be8c984e27831cd7ebe1>@@V?$allocator@H@std@@XPEAU?$WebSocket@$00@uWS@@PEAD_K@std@@EEAAPEAV?$_Func_base@XPEAU?$WebSocket@$00@uWS@@PEAD_K@2@PEAX@Z 000000018001bda0 f i addon.obj
 0001:0001ada0       ?_Copy@?$_Func_impl@V<lambda_06b3790a6438be8c984e27831cd7ebe1>@@V?$allocator@H@std@@XPEAU?$WebSocket@$00@uWS@@PEAD_K@std@@EEBAPEAV?$_Func_base@XPEAU?$WebSocket@$00@uWS@@PEAD_K@2@PEAX@Z 000000018001bda0 f i addon.obj
 0001:0001adc0       ?_Target_type@?$_Func_impl@V<lambda_2ba66bc05ba93ca83268b0bf8e7eaaf7>@@V?$allocator@H@std@@XPEAU?$WebSocket@$00@uWS@@PEAD_K@std@@EEBAAEBVtype_info@@XZ 000000018001bdc0 f i addon.obj
 0001:0001add0       ?_Copy@?$_Func_impl@V<lambda_2ba66bc05ba93ca83268b0bf8e7eaaf7>@@V?$allocator@H@std@@XPEAU?$WebSocket@$00@uWS@@PEAD_K@std@@EEBAPEAV?$_Func_base@XPEAU?$WebSocket@$00@uWS@@PEAD_K@2@PEAX@Z 000000018001bdd0 f i addon.obj
 0001:0001add0       ?_Move@?$_Func_impl@V<lambda_2ba66bc05ba93ca83268b0bf8e7eaaf7>@@V?$allocator@H@std@@XPEAU?$WebSocket@$00@uWS@@PEAD_K@std@@EEAAPEAV?$_Func_base@XPEAU?$WebSocket@$00@uWS@@PEAD_K@2@PEAX@Z 000000018001bdd0 f i addon.obj
 0001:0001adf0       ?_Target_type@?$_Func_impl@V<lambda_b966d8f42a0351f524477ccae8980970>@@V?$allocator@H@std@@XPEAU?$WebSocket@$00@uWS@@HPEAD_K@std@@EEBAAEBVtype_info@@XZ 000000018001bdf0 f i addon.obj
 0001:0001ae00       ?_Do_call@?$_Func_impl@V<lambda_b966d8f42a0351f524477ccae8980970>@@V?$allocator@H@std@@XPEAU?$WebSocket@$00@uWS@@HPEAD_K@std@@EEAAX$$QEAPEAU?$WebSocket@$00@uWS@@$$QEAH$$QEAPEAD$$QEA_K@Z 000000018001be00 f i addon.obj
 0001:0001ae00       ?_Do_call@?$_Func_impl@V<lambda_c75e75b8ce235a770095cf5e3315fdec>@@V?$allocator@H@std@@XPEAU?$WebSocket@$0A@@uWS@@HPEAD_K@std@@EEAAX$$QEAPEAU?$WebSocket@$0A@@uWS@@$$QEAH$$QEAPEAD$$QEA_K@Z 000000018001be00 f i addon.obj
 0001:0001ae20       ?_Move@?$_Func_impl@V<lambda_b966d8f42a0351f524477ccae8980970>@@V?$allocator@H@std@@XPEAU?$WebSocket@$00@uWS@@HPEAD_K@std@@EEAAPEAV?$_Func_base@XPEAU?$WebSocket@$00@uWS@@HPEAD_K@2@PEAX@Z 000000018001be20 f i addon.obj
 0001:0001ae20       ?_Copy@?$_Func_impl@V<lambda_b966d8f42a0351f524477ccae8980970>@@V?$allocator@H@std@@XPEAU?$WebSocket@$00@uWS@@HPEAD_K@std@@EEBAPEAV?$_Func_base@XPEAU?$WebSocket@$00@uWS@@HPEAD_K@2@PEAX@Z 000000018001be20 f i addon.obj
 0001:0001ae50       ?_Target_type@?$_Func_impl@V<lambda_4acf657190c75d6154df1f8279f608b3>@@V?$allocator@H@std@@XPEAU?$WebSocket@$00@uWS@@PEAD_KW4OpCode@5@@std@@EEBAAEBVtype_info@@XZ 000000018001be50 f i addon.obj
 0001:0001ae60       ?_Do_call@?$_Func_impl@V<lambda_4acf657190c75d6154df1f8279f608b3>@@V?$allocator@H@std@@XPEAU?$WebSocket@$00@uWS@@PEAD_KW4OpCode@5@@std@@EEAAX$$QEAPEAU?$WebSocket@$00@uWS@@$$QEAPEAD$$QEA_K$$QEAW4OpCode@4@@Z 000000018001be60 f i addon.obj
 0001:0001ae60       ?_Do_call@?$_Func_impl@V<lambda_1ea449dbbe6c4a9ff2706a11ec691fab>@@V?$allocator@H@std@@XPEAU?$WebSocket@$0A@@uWS@@PEAD_KW4OpCode@5@@std@@EEAAX$$QEAPEAU?$WebSocket@$0A@@uWS@@$$QEAPEAD$$QEA_K$$QEAW4OpCode@4@@Z 000000018001be60 f i addon.obj
 0001:0001ae80       ?_Copy@?$_Func_impl@V<lambda_4acf657190c75d6154df1f8279f608b3>@@V?$allocator@H@std@@XPEAU?$WebSocket@$00@uWS@@PEAD_KW4OpCode@5@@std@@EEBAPEAV?$_Func_base@XPEAU?$WebSocket@$00@uWS@@PEAD_KW4OpCode@2@@2@PEAX@Z 000000018001be80 f i addon.obj
 0001:0001ae80       ?_Move@?$_Func_impl@V<lambda_4acf657190c75d6154df1f8279f608b3>@@V?$allocator@H@std@@XPEAU?$WebSocket@$00@uWS@@PEAD_KW4OpCode@5@@std@@EEAAPEAV?$_Func_base@XPEAU?$WebSocket@$00@uWS@@PEAD_KW4OpCode@2@@2@PEAX@Z 000000018001be80 f i addon.obj
 0001:0001aea0       ?_Target_type@?$_Func_impl@V<lambda_faaa5f5890ff3be9fbce2836205fee3b>@@V?$allocator@H@std@@XPEAU?$WebSocket@$00@uWS@@UHttpRequest@5@@std@@EEBAAEBVtype_info@@XZ 000000018001bea0 f i addon.obj
 0001:0001aeb0       ?_Do_call@?$_Func_impl@V<lambda_faaa5f5890ff3be9fbce2836205fee3b>@@V?$allocator@H@std@@XPEAU?$WebSocket@$00@uWS@@UHttpRequest@5@@std@@EEAAX$$QEAPEAU?$WebSocket@$00@uWS@@$$QEAUHttpRequest@4@@Z 000000018001beb0 f i addon.obj
 0001:0001aeb0       ?_Do_call@?$_Func_impl@V<lambda_fadd044f7e86bc60b9387df73115f306>@@V?$allocator@H@std@@XPEAU?$WebSocket@$0A@@uWS@@UHttpRequest@5@@std@@EEAAX$$QEAPEAU?$WebSocket@$0A@@uWS@@$$QEAUHttpRequest@4@@Z 000000018001beb0 f i addon.obj
 0001:0001aec0       ?_Move@?$_Func_impl@V<lambda_faaa5f5890ff3be9fbce2836205fee3b>@@V?$allocator@H@std@@XPEAU?$WebSocket@$00@uWS@@UHttpRequest@5@@std@@EEAAPEAV?$_Func_base@XPEAU?$WebSocket@$00@uWS@@UHttpRequest@2@@2@PEAX@Z 000000018001bec0 f i addon.obj
 0001:0001aec0       ?_Copy@?$_Func_impl@V<lambda_faaa5f5890ff3be9fbce2836205fee3b>@@V?$allocator@H@std@@XPEAU?$WebSocket@$00@uWS@@UHttpRequest@5@@std@@EEBAPEAV?$_Func_base@XPEAU?$WebSocket@$00@uWS@@UHttpRequest@2@@2@PEAX@Z 000000018001bec0 f i addon.obj
 0001:0001aef0       ?_Target_type@?$_Func_impl@V<lambda_5203bc642fa96e6a4d3687e7b4a8a1dd>@@V?$allocator@H@std@@XPEAU?$WebSocket@$0A@@uWS@@PEAD_K@std@@EEBAAEBVtype_info@@XZ 000000018001bef0 f i addon.obj
 0001:0001af00       ?_Copy@?$_Func_impl@V<lambda_5203bc642fa96e6a4d3687e7b4a8a1dd>@@V?$allocator@H@std@@XPEAU?$WebSocket@$0A@@uWS@@PEAD_K@std@@EEBAPEAV?$_Func_base@XPEAU?$WebSocket@$0A@@uWS@@PEAD_K@2@PEAX@Z 000000018001bf00 f i addon.obj
 0001:0001af00       ?_Move@?$_Func_impl@V<lambda_5203bc642fa96e6a4d3687e7b4a8a1dd>@@V?$allocator@H@std@@XPEAU?$WebSocket@$0A@@uWS@@PEAD_K@std@@EEAAPEAV?$_Func_base@XPEAU?$WebSocket@$0A@@uWS@@PEAD_K@2@PEAX@Z 000000018001bf00 f i addon.obj
 0001:0001af20       ?_Target_type@?$_Func_impl@V<lambda_47e56f5e9252a482bd9c0aa7befe2a4e>@@V?$allocator@H@std@@XPEAU?$WebSocket@$0A@@uWS@@PEAD_K@std@@EEBAAEBVtype_info@@XZ 000000018001bf20 f i addon.obj
 0001:0001af30       ?_Copy@?$_Func_impl@V<lambda_47e56f5e9252a482bd9c0aa7befe2a4e>@@V?$allocator@H@std@@XPEAU?$WebSocket@$0A@@uWS@@PEAD_K@std@@EEBAPEAV?$_Func_base@XPEAU?$WebSocket@$0A@@uWS@@PEAD_K@2@PEAX@Z 000000018001bf30 f i addon.obj
 0001:0001af30       ?_Move@?$_Func_impl@V<lambda_47e56f5e9252a482bd9c0aa7befe2a4e>@@V?$allocator@H@std@@XPEAU?$WebSocket@$0A@@uWS@@PEAD_K@std@@EEAAPEAV?$_Func_base@XPEAU?$WebSocket@$0A@@uWS@@PEAD_K@2@PEAX@Z 000000018001bf30 f i addon.obj
 0001:0001af50       ?_Target_type@?$_Func_impl@V<lambda_c75e75b8ce235a770095cf5e3315fdec>@@V?$allocator@H@std@@XPEAU?$WebSocket@$0A@@uWS@@HPEAD_K@std@@EEBAAEBVtype_info@@XZ 000000018001bf50 f i addon.obj
 0001:0001af60       ?_Copy@?$_Func_impl@V<lambda_c75e75b8ce235a770095cf5e3315fdec>@@V?$allocator@H@std@@XPEAU?$WebSocket@$0A@@uWS@@HPEAD_K@std@@EEBAPEAV?$_Func_base@XPEAU?$WebSocket@$0A@@uWS@@HPEAD_K@2@PEAX@Z 000000018001bf60 f i addon.obj
 0001:0001af60       ?_Move@?$_Func_impl@V<lambda_c75e75b8ce235a770095cf5e3315fdec>@@V?$allocator@H@std@@XPEAU?$WebSocket@$0A@@uWS@@HPEAD_K@std@@EEAAPEAV?$_Func_base@XPEAU?$WebSocket@$0A@@uWS@@HPEAD_K@2@PEAX@Z 000000018001bf60 f i addon.obj
 0001:0001af90       ?_Target_type@?$_Func_impl@V<lambda_1ea449dbbe6c4a9ff2706a11ec691fab>@@V?$allocator@H@std@@XPEAU?$WebSocket@$0A@@uWS@@PEAD_KW4OpCode@5@@std@@EEBAAEBVtype_info@@XZ 000000018001bf90 f i addon.obj
 0001:0001afa0       ?_Copy@?$_Func_impl@V<lambda_1ea449dbbe6c4a9ff2706a11ec691fab>@@V?$allocator@H@std@@XPEAU?$WebSocket@$0A@@uWS@@PEAD_KW4OpCode@5@@std@@EEBAPEAV?$_Func_base@XPEAU?$WebSocket@$0A@@uWS@@PEAD_KW4OpCode@2@@2@PEAX@Z 000000018001bfa0 f i addon.obj
 0001:0001afa0       ?_Move@?$_Func_impl@V<lambda_1ea449dbbe6c4a9ff2706a11ec691fab>@@V?$allocator@H@std@@XPEAU?$WebSocket@$0A@@uWS@@PEAD_KW4OpCode@5@@std@@EEAAPEAV?$_Func_base@XPEAU?$WebSocket@$0A@@uWS@@PEAD_KW4OpCode@2@@2@PEAX@Z 000000018001bfa0 f i addon.obj
 0001:0001afc0       ?_Target_type@?$_Func_impl@V<lambda_fadd044f7e86bc60b9387df73115f306>@@V?$allocator@H@std@@XPEAU?$WebSocket@$0A@@uWS@@UHttpRequest@5@@std@@EEBAAEBVtype_info@@XZ 000000018001bfc0 f i addon.obj
 0001:0001afd0       ?_Move@?$_Func_impl@V<lambda_fadd044f7e86bc60b9387df73115f306>@@V?$allocator@H@std@@XPEAU?$WebSocket@$0A@@uWS@@UHttpRequest@5@@std@@EEAAPEAV?$_Func_base@XPEAU?$WebSocket@$0A@@uWS@@UHttpRequest@2@@2@PEAX@Z 000000018001bfd0 f i addon.obj
 0001:0001afd0       ?_Copy@?$_Func_impl@V<lambda_fadd044f7e86bc60b9387df73115f306>@@V?$allocator@H@std@@XPEAU?$WebSocket@$0A@@uWS@@UHttpRequest@5@@std@@EEBAPEAV?$_Func_base@XPEAU?$WebSocket@$0A@@uWS@@UHttpRequest@2@@2@PEAX@Z 000000018001bfd0 f i addon.obj
 0001:0001b04c       __imp_load_uv_close        000000018001c04c f   node:node.exe
 0001:0001b058       __tailMerge_node_exe       000000018001c058 f i node:node.exe
 0001:0001b0d1       __imp_load_SSL_free        000000018001c0d1 f   node:node.exe
 0001:0001b0dd       __imp_load_uv_poll_stop    000000018001c0dd f   node:node.exe
 0001:0001b0e9       __imp_load_uv_timer_init   000000018001c0e9 f   node:node.exe
 0001:0001b0f5       __imp_load_uv_timer_stop   000000018001c0f5 f   node:node.exe
 0001:0001b101       __imp_load_inflateEnd      000000018001c101 f   node:node.exe
 0001:0001b10d       __imp_load_SSL_set_fd      000000018001c10d f   node:node.exe
 0001:0001b119       __imp_load_uv_fileno       000000018001c119 f   node:node.exe
 0001:0001b125       __imp_load_inflateInit2_   000000018001c125 f   node:node.exe
 0001:0001b131       __imp_load_uv_timer_start  000000018001c131 f   node:node.exe
 0001:0001b13d       __imp_load_uv_poll_init_socket 000000018001c13d f   node:node.exe
 0001:0001b149       __imp_load_SSL_write       000000018001c149 f   node:node.exe
 0001:0001b155       __imp_load_SSL_ctrl        000000018001c155 f   node:node.exe
 0001:0001b161       __imp_load_uv_async_send   000000018001c161 f   node:node.exe
 0001:0001b16d       __imp_load_uv_poll_start   000000018001c16d f   node:node.exe
 0001:0001b179       __imp_load_uv_async_init   000000018001c179 f   node:node.exe
 0001:0001b185       __imp_load_SSL_shutdown    000000018001c185 f   node:node.exe
 0001:0001b191       __imp_load_SSL_get_error   000000018001c191 f   node:node.exe
 0001:0001b19d       __imp_load_SSL_CTX_set_default_passwd_cb 000000018001c19d f   node:node.exe
 0001:0001b1a9       __imp_load_SSL_CTX_free    000000018001c1a9 f   node:node.exe
 0001:0001b1b5       __imp_load_SSL_CTX_ctrl    000000018001c1b5 f   node:node.exe
 0001:0001b1c1       __imp_load_SSL_library_init 000000018001c1c1 f   node:node.exe
 0001:0001b1cd       __imp_load_SSL_CTX_use_PrivateKey_file 000000018001c1cd f   node:node.exe
 0001:0001b1d9       __imp_load_SSL_CTX_new     000000018001c1d9 f   node:node.exe
 0001:0001b1e5       __imp_load_SSL_CTX_set_default_passwd_cb_userdata 000000018001c1e5 f   node:node.exe
 0001:0001b1f1       __imp_load_SSLv23_server_method 000000018001c1f1 f   node:node.exe
 0001:0001b1fd       __imp_load_SSL_CTX_use_certificate_chain_file 000000018001c1fd f   node:node.exe
 0001:0001b209       __imp_load_SSL_new         000000018001c209 f   node:node.exe
 0001:0001b215       __imp_load_SSL_want        000000018001c215 f   node:node.exe
 0001:0001b221       __imp_load_uv_is_closing   000000018001c221 f   node:node.exe
 0001:0001b22d       __imp_load_inflate         000000018001c22d f   node:node.exe
 0001:0001b239       __imp_load_SSL_pending     000000018001c239 f   node:node.exe
 0001:0001b245       __imp_load_SSL_read        000000018001c245 f   node:node.exe
 0001:0001b251       __imp_load_SSL_set_accept_state 000000018001c251 f   node:node.exe
 0001:0001b25d       __imp_load_inflateReset    000000018001c25d f   node:node.exe
 0001:0001b269       __imp_load_SSL_set_connect_state 000000018001c269 f   node:node.exe
 0001:0001b275       __imp_load_uv_run          000000018001c275 f   node:node.exe
 0001:0001b281       __imp_load_uv_loop_new     000000018001c281 f   node:node.exe
 0001:0001b28d       __imp_load_SSLv23_client_method 000000018001c28d f   node:node.exe
 0001:0001b299       __imp_load_uv_loop_delete  000000018001c299 f   node:node.exe
 0001:0001b2a5       __imp_load_uv_default_loop 000000018001c2a5 f   node:node.exe
 0001:0001b2b1       __imp_load_SHA1            000000018001c2b1 f   node:node.exe
 0001:0001b2bd       __imp_load_uv_unref        000000018001c2bd f   node:node.exe
 0001:0001b2c9       __imp_load_?Global@Context@v8@@QEAA?AV?$Local@VObject@v8@@@2@XZ 000000018001c2c9 f   node:node.exe
 0001:0001b2d5       __imp_load_?Value@External@v8@@QEBAPEAXXZ 000000018001c2d5 f   node:node.exe
 0001:0001b2e1       __imp_load_?New@External@v8@@SA?AV?$Local@VExternal@v8@@@2@PEAVIsolate@2@PEAX@Z 000000018001c2e1 f   node:node.exe
 0001:0001b2ed       __imp_load_?New@Integer@v8@@SA?AV?$Local@VInteger@v8@@@2@PEAVIsolate@2@H@Z 000000018001c2ed f   node:node.exe
 0001:0001b2f9       __imp_load_?GetCurrentContext@Isolate@v8@@QEAA?AV?$Local@VContext@v8@@@2@XZ 000000018001c2f9 f   node:node.exe
 0001:0001b305       __imp_load_?GetCurrent@Isolate@v8@@SAPEAV12@XZ 000000018001c305 f   node:node.exe
 0001:0001b311       __imp_load_?CreateHandle@HandleScope@v8@@KAPEAPEAVObject@internal@2@PEAVIsolate@42@PEAV342@@Z 000000018001c311 f   node:node.exe
 0001:0001b31d       __imp_load_?CreateHandle@HandleScope@v8@@CAPEAPEAVObject@internal@2@PEAVHeapObject@42@PEAV342@@Z 000000018001c31d f   node:node.exe
 0001:0001b329       __imp_load_??1HandleScope@v8@@QEAA@XZ 000000018001c329 f   node:node.exe
 0001:0001b335       __imp_load_??0HandleScope@v8@@QEAA@PEAVIsolate@1@@Z 000000018001c335 f   node:node.exe
 0001:0001b341       __imp_load_?Set@Template@v8@@QEAAXV?$Local@VName@v8@@@2@V?$Local@VData@v8@@@2@W4PropertyAttribute@2@@Z 000000018001c341 f   node:node.exe
 0001:0001b34d       __imp_load_?Buffer@ArrayBufferView@v8@@QEAA?AV?$Local@VArrayBuffer@v8@@@2@XZ 000000018001c34d f   node:node.exe
 0001:0001b359       __imp_load_?New@Array@v8@@SA?AV?$Local@VArray@v8@@@2@PEAVIsolate@2@H@Z 000000018001c359 f   node:node.exe
 0001:0001b365       __imp_load_?Length@Array@v8@@QEBAIXZ 000000018001c365 f   node:node.exe
 0001:0001b371       __imp_load_?SetClassName@FunctionTemplate@v8@@QEAAXV?$Local@VString@v8@@@2@@Z 000000018001c371 f   node:node.exe
 0001:0001b37d       __imp_load_?PrototypeTemplate@FunctionTemplate@v8@@QEAA?AV?$Local@VObjectTemplate@v8@@@2@XZ 000000018001c37d f   node:node.exe
 0001:0001b389       __imp_load_?InstanceTemplate@FunctionTemplate@v8@@QEAA?AV?$Local@VObjectTemplate@v8@@@2@XZ 000000018001c389 f   node:node.exe
 0001:0001b395       __imp_load_?GetFunction@FunctionTemplate@v8@@QEAA?AV?$Local@VFunction@v8@@@2@XZ 000000018001c395 f   node:node.exe
 0001:0001b3a1       __imp_load_?New@FunctionTemplate@v8@@SA?AV?$Local@VFunctionTemplate@v8@@@2@PEAVIsolate@2@P6AXAEBV?$FunctionCallbackInfo@VValue@v8@@@2@@ZV?$Local@VValue@v8@@@2@V?$Local@VSignature@v8@@@2@HW4ConstructorBehavior@2@@Z 000000018001c3a1 f   node:node.exe
 0001:0001b3ad       __imp_load_?GetContents@ArrayBuffer@v8@@QEAA?AVContents@12@XZ 000000018001c3ad f   node:node.exe
 0001:0001b3b9       __imp_load_?New@ArrayBuffer@v8@@SA?AV?$Local@VArrayBuffer@v8@@@2@PEAVIsolate@2@PEAX_KW4ArrayBufferCreationMode@2@@Z 000000018001c3b9 f   node:node.exe
 0001:0001b3c5       __imp_load_?DisposeGlobal@V8@v8@@CAXPEAPEAVObject@internal@2@@Z 000000018001c3c5 f   node:node.exe
 0001:0001b3d1       __imp_load_?GlobalizeReference@V8@v8@@CAPEAPEAVObject@internal@2@PEAVIsolate@42@PEAPEAV342@@Z 000000018001c3d1 f   node:node.exe
 0001:0001b3dd       __imp_load_?IntegerValue@Value@v8@@QEBA_JXZ 000000018001c3dd f   node:node.exe
 0001:0001b3e9       __imp_load_?BooleanValue@Value@v8@@QEBA_NXZ 000000018001c3e9 f   node:node.exe
 0001:0001b3f5       __imp_load_?IsTypedArray@Value@v8@@QEBA_NXZ 000000018001c3f5 f   node:node.exe
 0001:0001b401       __imp_load_?IsArrayBuffer@Value@v8@@QEBA_NXZ 000000018001c401 f   node:node.exe
 0001:0001b40d       __imp_load_?IsExternal@Value@v8@@QEBA_NXZ 000000018001c40d f   node:node.exe
 0001:0001b419       __imp_load_?IsObject@Value@v8@@QEBA_NXZ 000000018001c419 f   node:node.exe
 0001:0001b425       __imp_load_?IsFunction@Value@v8@@QEBA_NXZ 000000018001c425 f   node:node.exe
 0001:0001b431       __imp_load_??1Utf8Value@String@v8@@QEAA@XZ 000000018001c431 f   node:node.exe
 0001:0001b43d       __imp_load_??0Utf8Value@String@v8@@QEAA@V?$Local@VValue@v8@@@2@@Z 000000018001c43d f   node:node.exe
 0001:0001b449       __imp_load_?NewFromOneByte@String@v8@@SA?AV?$Local@VString@v8@@@2@PEAVIsolate@2@PEBEW4NewStringType@12@H@Z 000000018001c449 f   node:node.exe
 0001:0001b455       __imp_load_?NewFromUtf8@String@v8@@SA?AV?$Local@VString@v8@@@2@PEAVIsolate@2@PEBDW4NewStringType@12@H@Z 000000018001c455 f   node:node.exe
 0001:0001b461       __imp_load_?SlowGetAlignedPointerFromInternalField@Object@v8@@AEAAPEAXH@Z 000000018001c461 f   node:node.exe
 0001:0001b46d       __imp_load_?SlowGetInternalField@Object@v8@@AEAA?AV?$Local@VValue@v8@@@2@H@Z 000000018001c46d f   node:node.exe
 0001:0001b479       __imp_load_?New@Object@v8@@SA?AV?$Local@VObject@v8@@@2@PEAVIsolate@2@@Z 000000018001c479 f   node:node.exe
 0001:0001b485       __imp_load_?GetIsolate@Object@v8@@QEAAPEAVIsolate@2@XZ 000000018001c485 f   node:node.exe
 0001:0001b491       __imp_load_?Clone@Object@v8@@QEAA?AV?$Local@VObject@v8@@@2@XZ 000000018001c491 f   node:node.exe
 0001:0001b49d       __imp_load_?SetAlignedPointerInInternalField@Object@v8@@QEAAXHPEAX@Z 000000018001c49d f   node:node.exe
 0001:0001b4a9       __imp_load_?SetInternalField@Object@v8@@QEAAXHV?$Local@VValue@v8@@@2@@Z 000000018001c4a9 f   node:node.exe
 0001:0001b4b5       __imp_load_?SetPrototype@Object@v8@@QEAA_NV?$Local@VValue@v8@@@2@@Z 000000018001c4b5 f   node:node.exe
 0001:0001b4c1       __imp_load_?GetPrototype@Object@v8@@QEAA?AV?$Local@VValue@v8@@@2@XZ 000000018001c4c1 f   node:node.exe
 0001:0001b4cd       __imp_load_?GetOwnPropertyNames@Object@v8@@QEAA?AV?$Local@VArray@v8@@@2@XZ 000000018001c4cd f   node:node.exe
 0001:0001b4d9       __imp_load_?Get@Object@v8@@QEAA?AV?$Local@VValue@v8@@@2@V32@@Z 000000018001c4d9 f   node:node.exe
 0001:0001b4e5       __imp_load_?Get@Object@v8@@QEAA?AV?$Local@VValue@v8@@@2@I@Z 000000018001c4e5 f   node:node.exe
 0001:0001b4f1       __imp_load_?Set@Object@v8@@QEAA_NV?$Local@VValue@v8@@@2@0@Z 000000018001c4f1 f   node:node.exe
 0001:0001b4fd       __imp_load_?Set@Object@v8@@QEAA_NIV?$Local@VValue@v8@@@2@@Z 000000018001c4fd f   node:node.exe
 0001:0001b509       __imp_load_?SetName@Function@v8@@QEAAXV?$Local@VString@v8@@@2@@Z 000000018001c509 f   node:node.exe
 0001:0001b515       __imp_load_?Call@Function@v8@@QEAA?AV?$Local@VValue@v8@@@2@V32@HQEAV32@@Z 000000018001c515 f   node:node.exe
 0001:0001b521       __imp_load_?NewInstance@Function@v8@@QEBA?AV?$Local@VObject@v8@@@2@XZ 000000018001c521 f   node:node.exe
 0001:0001b52d       __imp_load_?SetInternalFieldCount@ObjectTemplate@v8@@QEAAXH@Z 000000018001c52d f   node:node.exe
 0001:0001b539       __imp_load_?SetNamedPropertyHandler@ObjectTemplate@v8@@QEAAXP6AXV?$Local@VString@v8@@@2@AEBV?$PropertyCallbackInfo@VValue@v8@@@2@@ZP6AX0V?$Local@VValue@v8@@@2@1@ZP6AX0AEBV?$PropertyCallbackInfo@VInteger@v8@@@2@@ZP6AX0AEBV?$PropertyCallbackInfo@VBoolean@v8@@@2@@ZP6AXAEBV?$PropertyCallbackInfo@VArray@v8@@@2@@Z3@Z 000000018001c539 f   node:node.exe
 0001:0001b545       __imp_load_?SetAccessor@ObjectTemplate@v8@@QEAAXV?$Local@VString@v8@@@2@P6AX0AEBV?$PropertyCallbackInfo@VValue@v8@@@2@@ZP6AX0V?$Local@VValue@v8@@@2@AEBV?$PropertyCallbackInfo@X@2@@Z3W4AccessControl@2@W4PropertyAttribute@2@V?$Local@VAccessorSignature@v8@@@2@@Z 000000018001c545 f   node:node.exe
 0001:0001b551       __imp_load_?NewInstance@ObjectTemplate@v8@@QEAA?AV?$Local@VObject@v8@@@2@XZ 000000018001c551 f   node:node.exe
 0001:0001b55d       __imp_load_?New@ObjectTemplate@v8@@SA?AV?$Local@VObjectTemplate@v8@@@2@PEAVIsolate@2@V?$Local@VFunctionTemplate@v8@@@2@@Z 000000018001c55d f   node:node.exe
 0001:0001b569       __imp_load_node_module_register 000000018001c569 f   node:node.exe
 0001:0001b575       __imp_load_?HasInstance@Buffer@node@@YA_NV?$Local@VValue@v8@@@v8@@@Z 000000018001c575 f   node:node.exe
 0001:0001b581       __imp_load_?Data@Buffer@node@@YAPEADV?$Local@VValue@v8@@@v8@@@Z 000000018001c581 f   node:node.exe
 0001:0001b58d       __imp_load_?Length@Buffer@node@@YA_KV?$Local@VValue@v8@@@v8@@@Z 000000018001c58d f   node:node.exe
 0001:0001b599       __imp_load_?MakeCallback@node@@YA?AV?$Local@VValue@v8@@@v8@@PEAVIsolate@3@V?$Local@VObject@v8@@@3@V?$Local@VFunction@v8@@@3@HPEAV23@@Z 000000018001c599 f   node:node.exe
 0001:0001b5a5       __imp_load_uv_check_init   000000018001c5a5 f   node:node.exe
 0001:0001b5b1       __imp_load_uv_check_start  000000018001c5b1 f   node:node.exe
 0001:0001b5bd       __imp_load_?ToObject@Value@v8@@QEBA?AV?$Local@VObject@v8@@@2@XZ 000000018001c5bd f   node:node.exe
 0001:0001b5cc       ??0bad_alloc@std@@QEAA@AEBV01@@Z 000000018001c5cc f i libcpmt:xthrow.obj
 0001:0001b60c       ??0bad_alloc@std@@QEAA@XZ  000000018001c60c f i libcpmt:xthrow.obj
 0001:0001b62c       ??0bad_function_call@std@@QEAA@AEBV01@@Z 000000018001c62c f i libcpmt:xthrow.obj
 0001:0001b66c       ??0bad_function_call@std@@QEAA@XZ 000000018001c66c f i libcpmt:xthrow.obj
 0001:0001b684       ??0exception@std@@QEAA@AEBV01@@Z 000000018001c684 f i libcpmt:xthrow.obj
 0001:0001b6bc       ??0invalid_argument@std@@QEAA@AEBV01@@Z 000000018001c6bc f i libcpmt:xthrow.obj
 0001:0001b6fc       ??0invalid_argument@std@@QEAA@PEBD@Z 000000018001c6fc f i libcpmt:xthrow.obj
 0001:0001b748       ??0length_error@std@@QEAA@AEBV01@@Z 000000018001c748 f i libcpmt:xthrow.obj
 0001:0001b788       ??0length_error@std@@QEAA@PEBD@Z 000000018001c788 f i libcpmt:xthrow.obj
 0001:0001b7d4       ??0logic_error@std@@QEAA@AEBV01@@Z 000000018001c7d4 f i libcpmt:xthrow.obj
 0001:0001b814       ??0out_of_range@std@@QEAA@AEBV01@@Z 000000018001c814 f i libcpmt:xthrow.obj
 0001:0001b854       ??0out_of_range@std@@QEAA@PEBD@Z 000000018001c854 f i libcpmt:xthrow.obj
 0001:0001b8a0       ??0runtime_error@std@@QEAA@AEBV01@@Z 000000018001c8a0 f i libcpmt:xthrow.obj
 0001:0001b8e0       ?__scrt_throw_std_bad_alloc@@YAXXZ 000000018001c8e0 f   LIBCMT:throw_bad_alloc.obj
 0001:0001b8e0       ?_Xbad_alloc@std@@YAXXZ    000000018001c8e0 f   libcpmt:xthrow.obj
 0001:0001b900       ?_Xbad_function_call@std@@YAXXZ 000000018001c900 f   libcpmt:xthrow.obj
 0001:0001b920       ?_Xinvalid_argument@std@@YAXPEBD@Z 000000018001c920 f   libcpmt:xthrow.obj
 0001:0001b944       ?_Xlength_error@std@@YAXPEBD@Z 000000018001c944 f   libcpmt:xthrow.obj
 0001:0001b968       ?_Xout_of_range@std@@YAXPEBD@Z 000000018001c968 f   libcpmt:xthrow.obj
 0001:0001b98c       ?what@bad_function_call@std@@UEBAPEBDXZ 000000018001c98c f i libcpmt:xthrow.obj
 0001:0001b994       ?what@exception@std@@UEBAPEBDXZ 000000018001c994 f i libcpmt:xthrow.obj
 0001:0001b9a8       ??0_System_error@std@@QEAA@AEBV01@@Z 000000018001c9a8 f i libcpmt:thread0.obj
 0001:0001b9fc       ??0system_error@std@@QEAA@AEBV01@@Z 000000018001c9fc f i libcpmt:thread0.obj
 0001:0001ba58       ??0system_error@std@@QEAA@HAEBVerror_category@1@PEBD@Z 000000018001ca58 f i libcpmt:thread0.obj
 0001:0001bb24       ?_Throw_C_error@std@@YAXH@Z 000000018001cb24 f   libcpmt:thread0.obj
 0001:0001bb60       ?_Throw_Cpp_error@std@@YAXH@Z 000000018001cb60 f   libcpmt:thread0.obj
 0001:0001bba8       ?generic_category@std@@YAAEBVerror_category@1@XZ 000000018001cba8 f i libcpmt:thread0.obj
 0001:0001bbf0       ??1GlobalCore@details@Concurrency@@QEAA@XZ 000000018001cbf0 f i libcpmt:mutex.obj
 0001:0001bc00       ?create_stl_critical_section@details@Concurrency@@YAXPEAVstl_critical_section_interface@12@@Z 000000018001cc00 f i libcpmt:mutex.obj
 0001:0001bca8       ?destroy@stl_critical_section_concrt@details@Concurrency@@UEAAXXZ 000000018001cca8 f i libcpmt:mutex.obj
 0001:0001bcb4       ?destroy@stl_critical_section_vista@details@Concurrency@@UEAAXXZ 000000018001ccb4 f i libcpmt:mutex.obj
 0001:0001bcc0       ?lock@stl_critical_section_concrt@details@Concurrency@@UEAAXXZ 000000018001ccc0 f i libcpmt:mutex.obj
 0001:0001bccc       ?lock@stl_critical_section_vista@details@Concurrency@@UEAAXXZ 000000018001cccc f i libcpmt:mutex.obj
 0001:0001bcd8       ?lock@stl_critical_section_win7@details@Concurrency@@UEAAXXZ 000000018001ccd8 f i libcpmt:mutex.obj
 0001:0001be78       ?try_lock@stl_critical_section_concrt@details@Concurrency@@UEAA_NXZ 000000018001ce78 f i libcpmt:mutex.obj
 0001:0001be84       ?try_lock@stl_critical_section_vista@details@Concurrency@@UEAA_NXZ 000000018001ce84 f i libcpmt:mutex.obj
 0001:0001be84       ?try_lock_for@stl_critical_section_vista@details@Concurrency@@UEAA_NI@Z 000000018001ce84 f i libcpmt:mutex.obj
 0001:0001be9c       ?try_lock_for@stl_critical_section_concrt@details@Concurrency@@UEAA_NI@Z 000000018001ce9c f i libcpmt:mutex.obj
 0001:0001bea8       ?try_lock@stl_critical_section_win7@details@Concurrency@@UEAA_NXZ 000000018001cea8 f i libcpmt:mutex.obj
 0001:0001bea8       ?try_lock_for@stl_critical_section_win7@details@Concurrency@@UEAA_NI@Z 000000018001cea8 f i libcpmt:mutex.obj
 0001:0001bec0       ?unlock@stl_critical_section_concrt@details@Concurrency@@UEAAXXZ 000000018001cec0 f i libcpmt:mutex.obj
 0001:0001becc       ?unlock@stl_critical_section_vista@details@Concurrency@@UEAAXXZ 000000018001cecc f i libcpmt:mutex.obj
 0001:0001bed8       ?unlock@stl_critical_section_win7@details@Concurrency@@UEAAXXZ 000000018001ced8 f i libcpmt:mutex.obj
 0001:0001bee4       _Mtx_clear_owner           000000018001cee4 f   libcpmt:mutex.obj
 0001:0001beec       _Mtx_destroy_in_situ       000000018001ceec f   libcpmt:mutex.obj
 0001:0001bf1c       _Mtx_init_in_situ          000000018001cf1c f   libcpmt:mutex.obj
 0001:0001bf4c       _Mtx_lock                  000000018001cf4c f   libcpmt:mutex.obj
 0001:0001bf54       _Mtx_reset_owner           000000018001cf54 f   libcpmt:mutex.obj
 0001:0001bf70       _Mtx_unlock                000000018001cf70 f   libcpmt:mutex.obj
 0001:0001bfac       ??0_Init_locks@std@@QEAA@XZ 000000018001cfac f   libcpmt:xlock.obj
 0001:0001bff8       ??0_Lockit@std@@QEAA@H@Z   000000018001cff8 f   libcpmt:xlock.obj
 0001:0001c034       ??1_Init_locks@std@@QEAA@XZ 000000018001d034 f   libcpmt:xlock.obj
 0001:0001c078       ??1_Lockit@std@@QEAA@XZ    000000018001d078 f   libcpmt:xlock.obj
 0001:0001c0ac       ??$use_facet@V?$codecvt@DDU_Mbstatet@@@std@@@std@@YAAEBV?$codecvt@DDU_Mbstatet@@@0@AEBVlocale@0@@Z 000000018001d0ac f i libcpmt:cout.obj
 0001:0001c1e4       ??0?$basic_ostream@DU?$char_traits@D@std@@@std@@QEAA@PEAV?$basic_streambuf@DU?$char_traits@D@std@@@1@_N@Z 000000018001d1e4 f i libcpmt:cout.obj
 0001:0001c2ac       ??0?$basic_streambuf@DU?$char_traits@D@std@@@std@@IEAA@XZ 000000018001d2ac f i libcpmt:cout.obj
 0001:0001c35c       ??0_Init_cout@std@@QEAA@XZ 000000018001d35c f i libcpmt:cout.obj
 0001:0001c3c8       ??0bad_cast@std@@QEAA@AEBV01@@Z 000000018001d3c8 f i libcpmt:cout.obj
 0001:0001c408       ??0bad_cast@std@@QEAA@XZ   000000018001d408 f i libcpmt:cout.obj
 0001:0001c428       ??1?$basic_filebuf@DU?$char_traits@D@std@@@std@@UEAA@XZ 000000018001d428 f i libcpmt:cout.obj
 0001:0001c4d4       ??1?$basic_ios@DU?$char_traits@D@std@@@std@@UEAA@XZ 000000018001d4d4 f i libcpmt:cout.obj
 0001:0001c4f8       ??_E?$basic_ostream@DU?$char_traits@D@std@@@std@@$4PPPPPPPM@A@EAAPEAXI@Z 000000018001d4f8 f i libcpmt:cout.obj
 0001:0001c504       ??_G?$basic_filebuf@DU?$char_traits@D@std@@@std@@UEAAPEAXI@Z 000000018001d504 f i libcpmt:cout.obj
 0001:0001c504       ??_E?$basic_filebuf@DU?$char_traits@D@std@@@std@@UEAAPEAXI@Z 000000018001d504 f i libcpmt:cout.obj
 0001:0001c538       ??_E?$basic_ios@DU?$char_traits@D@std@@@std@@UEAAPEAXI@Z 000000018001d538 f i libcpmt:cout.obj
 0001:0001c538       ??_G?$basic_ios@DU?$char_traits@D@std@@@std@@UEAAPEAXI@Z 000000018001d538 f i libcpmt:cout.obj
 0001:0001c584       ??_E?$basic_ostream@DU?$char_traits@D@std@@@std@@UEAAPEAXI@Z 000000018001d584 f i libcpmt:cout.obj
 0001:0001c584       ??_G?$basic_ostream@DU?$char_traits@D@std@@@std@@UEAAPEAXI@Z 000000018001d584 f i libcpmt:cout.obj
 0001:0001c5f8       ??_E?$basic_streambuf@DU?$char_traits@D@std@@@std@@UEAAPEAXI@Z 000000018001d5f8 f i libcpmt:cout.obj
 0001:0001c5f8       ??_G?$basic_streambuf@DU?$char_traits@D@std@@@std@@UEAAPEAXI@Z 000000018001d5f8 f i libcpmt:cout.obj
 0001:0001c648       ??_Eios_base@std@@UEAAPEAXI@Z 000000018001d648 f i libcpmt:cout.obj
 0001:0001c648       ??_Gios_base@std@@UEAAPEAXI@Z 000000018001d648 f i libcpmt:cout.obj
 0001:0001c694       ??_Glocale@std@@QEAAPEAXI@Z 000000018001d694 f i libcpmt:cout.obj
 0001:0001c724       ?_Endwrite@?$basic_filebuf@DU?$char_traits@D@std@@@std@@IEAA_NXZ 000000018001d724 f i libcpmt:cout.obj
 0001:0001c8d8       ?_Getcat@?$codecvt@DDU_Mbstatet@@@std@@SA_KPEAPEBVfacet@locale@2@PEBV42@@Z 000000018001d8d8 f i libcpmt:cout.obj
 0001:0001c99c       ?_Init@?$basic_filebuf@DU?$char_traits@D@std@@@std@@IEAAXPEAU_iobuf@@W4_Initfl@12@@Z 000000018001d99c f i libcpmt:cout.obj
 0001:0001ca88       ?_Init@ios_base@std@@IEAAXXZ 000000018001da88 f i libcpmt:cout.obj
 0001:0001cb08       ?_Initcvt@?$basic_filebuf@DU?$char_traits@D@std@@@std@@IEAAXPEBV?$codecvt@DDU_Mbstatet@@@2@@Z 000000018001db08 f i libcpmt:cout.obj
 0001:0001cba8       ?_Lock@?$basic_filebuf@DU?$char_traits@D@std@@@std@@UEAAXXZ 000000018001dba8 f i libcpmt:cout.obj
 0001:0001cbc4       ?_Unlock@?$basic_filebuf@DU?$char_traits@D@std@@@std@@UEAAXXZ 000000018001dbc4 f i libcpmt:cout.obj
 0001:0001cbe0       ?do_out@?$codecvt@DDU_Mbstatet@@@std@@MEBAHAEAU_Mbstatet@@PEBD1AEAPEBDPEAD3AEAPEAD@Z 000000018001dbe0 f i libcpmt:cout.obj
 0001:0001cbe0       ?do_in@?$codecvt@DDU_Mbstatet@@@std@@MEBAHAEAU_Mbstatet@@PEBD1AEAPEBDPEAD3AEAPEAD@Z 000000018001dbe0 f i libcpmt:cout.obj
 0001:0001cbfc       ?do_length@?$codecvt@DDU_Mbstatet@@@std@@MEBAHAEAU_Mbstatet@@PEBD1_K@Z 000000018001dbfc f i libcpmt:cout.obj
 0001:0001cc10       ?do_unshift@?$codecvt@DDU_Mbstatet@@@std@@MEBAHAEAU_Mbstatet@@PEAD1AEAPEAD@Z 000000018001dc10 f i libcpmt:cout.obj
 0001:0001cc1c       ?imbue@?$basic_filebuf@DU?$char_traits@D@std@@@std@@MEAAXAEBVlocale@2@@Z 000000018001dc1c f i libcpmt:cout.obj
 0001:0001cc40       ?overflow@?$basic_filebuf@DU?$char_traits@D@std@@@std@@MEAAHH@Z 000000018001dc40 f i libcpmt:cout.obj
 0001:0001ce98       ?pbackfail@?$basic_filebuf@DU?$char_traits@D@std@@@std@@MEAAHH@Z 000000018001de98 f i libcpmt:cout.obj
 0001:0001cf68       ?seekoff@?$basic_filebuf@DU?$char_traits@D@std@@@std@@MEAA?AV?$fpos@U_Mbstatet@@@2@_JHH@Z 000000018001df68 f i libcpmt:cout.obj
 0001:0001d054       ?seekpos@?$basic_streambuf@DU?$char_traits@D@std@@@std@@MEAA?AV?$fpos@U_Mbstatet@@@2@V32@H@Z 000000018001e054 f i libcpmt:cout.obj
 0001:0001d054       ?seekoff@?$basic_streambuf@DU?$char_traits@D@std@@@std@@MEAA?AV?$fpos@U_Mbstatet@@@2@_JHH@Z 000000018001e054 f i libcpmt:cout.obj
 0001:0001d070       ?seekpos@?$basic_filebuf@DU?$char_traits@D@std@@@std@@MEAA?AV?$fpos@U_Mbstatet@@@2@V32@H@Z 000000018001e070 f i libcpmt:cout.obj
 0001:0001d170       ?setbuf@?$basic_filebuf@DU?$char_traits@D@std@@@std@@MEAAPEAV?$basic_streambuf@DU?$char_traits@D@std@@@2@PEAD_J@Z 000000018001e170 f i libcpmt:cout.obj
 0001:0001d1c4       ?sync@?$basic_filebuf@DU?$char_traits@D@std@@@std@@MEAAHXZ 000000018001e1c4 f i libcpmt:cout.obj
 0001:0001d224       ?uflow@?$basic_filebuf@DU?$char_traits@D@std@@@std@@MEAAHXZ 000000018001e224 f i libcpmt:cout.obj
 0001:0001d4bc       ?uflow@?$basic_streambuf@DU?$char_traits@D@std@@@std@@MEAAHXZ 000000018001e4bc f i libcpmt:cout.obj
 0001:0001d508       ?underflow@?$basic_filebuf@DU?$char_traits@D@std@@@std@@MEAAHXZ 000000018001e508 f i libcpmt:cout.obj
 0001:0001d580       ?underflow@?$basic_streambuf@DU?$char_traits@D@std@@@std@@MEAAHXZ 000000018001e580 f i libcpmt:cout.obj
 0001:0001d580       ?pbackfail@?$basic_streambuf@DU?$char_traits@D@std@@@std@@MEAAHH@Z 000000018001e580 f i libcpmt:cout.obj
 0001:0001d580       ?GetVirtualProcessorId@ExternalContextBase@details@Concurrency@@UEBAIXZ 000000018001e580 f i libconcrt:ExternalContextBase.obj
 0001:0001d580       ?overflow@?$basic_streambuf@DU?$char_traits@D@std@@@std@@MEAAHH@Z 000000018001e580 f i libcpmt:cout.obj
 0001:0001d584       ?xsgetn@?$basic_streambuf@DU?$char_traits@D@std@@@std@@MEAA_JPEAD_J@Z 000000018001e584 f i libcpmt:cout.obj
 0001:0001d644       ?xsputn@?$basic_streambuf@DU?$char_traits@D@std@@@std@@MEAA_JPEBD_J@Z 000000018001e644 f i libcpmt:cout.obj
 0001:0001d708       ??4?$_Yarn@D@std@@QEAAAEAV01@PEBD@Z 000000018001e708 f i libcpmt:locale0.obj
 0001:0001d780       ??_G_Fac_node@std@@QEAAPEAXI@Z 000000018001e780 f i libcpmt:locale0.obj
 0001:0001d80c       ??_G_Locimp@locale@std@@MEAAPEAXI@Z 000000018001e80c f i libcpmt:locale0.obj
 0001:0001d80c       ??_E_Locimp@locale@std@@MEAAPEAXI@Z 000000018001e80c f i libcpmt:locale0.obj
 0001:0001d878       ?_Facet_Register@std@@YAXPEAV_Facet_base@1@@Z 000000018001e878 f   libcpmt:locale0.obj
 0001:0001d8b0       ?_Getgloballocale@locale@std@@CAPEAV_Locimp@12@XZ 000000018001e8b0 f   libcpmt:locale0.obj
 0001:0001d8b8       ?_Init@locale@std@@CAPEAV_Locimp@12@_N@Z 000000018001e8b8 f   libcpmt:locale0.obj
 0001:0001d974       ?_Locimp_dtor@_Locimp@locale@std@@CAXPEAV123@@Z 000000018001e974 f   libcpmt:locale0.obj
 0001:0001da1c       ?_Locinfo_ctor@_Locinfo@std@@SAXPEAV12@PEBD@Z 000000018001ea1c f   libcpmt:locale0.obj
 0001:0001da88       ?_Locinfo_dtor@_Locinfo@std@@SAXPEAV12@@Z 000000018001ea88 f   libcpmt:locale0.obj
 0001:0001daac       ?_New_Locimp@_Locimp@locale@std@@CAPEAV123@_N@Z 000000018001eaac f   libcpmt:locale0.obj
 0001:0001db1c       ?_Setgloballocale@locale@std@@CAXPEAX@Z 000000018001eb1c f   libcpmt:locale0.obj
 0001:0001db50       _Deletegloballocale        000000018001eb50 f   libcpmt:locale0.obj
 0001:0001dbd8       ?_Syserror_map@std@@YAPEBDH@Z 000000018001ebd8 f   libcpmt:syserror.obj
 0001:0001dc00       _Getctype                  000000018001ec00 f   libcpmt:_tolower.obj
 0001:0001dcc0       _Tolower                   000000018001ecc0 f   libcpmt:_tolower.obj
 0001:0001dde8       _Getcvt                    000000018001ede8 f   libcpmt:xwctomb.obj
 0001:0001de78       _Toupper                   000000018001ee78 f   libcpmt:_toupper.obj
 0001:0001dfb0       _Xtime_diff_to_millis2     000000018001efb0 f   libcpmt:xtime.obj
 0001:0001e07c       _Xtime_get_ticks           000000018001f07c f   libcpmt:xtime.obj
 0001:0001e0ac       xtime_get                  000000018001f0ac f   libcpmt:xtime.obj
 0001:0001e5d4       __crtAcquireSRWLockExclusive 000000018001f5d4 f   libcpmt:winapisupp.obj
 0001:0001e60c       __crtCloseThreadpoolTimer  000000018001f60c f   libcpmt:winapisupp.obj
 0001:0001e644       __crtCloseThreadpoolWait   000000018001f644 f   libcpmt:winapisupp.obj
 0001:0001e67c       __crtCreateEventExW        000000018001f67c f   libcpmt:winapisupp.obj
 0001:0001e6f8       __crtCreateSemaphoreExW    000000018001f6f8 f   libcpmt:winapisupp.obj
 0001:0001e798       __crtCreateThreadpoolTimer 000000018001f798 f   libcpmt:winapisupp.obj
 0001:0001e7f4       __crtCreateThreadpoolWait  000000018001f7f4 f   libcpmt:winapisupp.obj
 0001:0001e850       __crtFlushProcessWriteBuffers 000000018001f850 f   libcpmt:winapisupp.obj
 0001:0001e878       __crtFreeLibraryWhenCallbackReturns 000000018001f878 f   libcpmt:winapisupp.obj
 0001:0001e8c0       __crtGetCurrentProcessorNumber 000000018001f8c0 f   libcpmt:winapisupp.obj
 0001:0001e8f4       __crtGetSystemTimePreciseAsFileTime 000000018001f8f4 f   libcpmt:winapisupp.obj
 0001:0001e934       __crtGetTickCount64        000000018001f934 f   libcpmt:winapisupp.obj
 0001:0001e96c       __crtInitializeConditionVariable 000000018001f96c f   libcpmt:winapisupp.obj
 0001:0001e9a4       __crtInitializeCriticalSectionEx 000000018001f9a4 f   libcpmt:winapisupp.obj
 0001:0001ea04       __crtInitializeSRWLock     000000018001fa04 f   libcpmt:winapisupp.obj
 0001:0001ea3c       __crtReleaseSRWLockExclusive 000000018001fa3c f   libcpmt:winapisupp.obj
 0001:0001ea74       __crtSetThreadpoolTimer    000000018001fa74 f   libcpmt:winapisupp.obj
 0001:0001eadc       __crtSetThreadpoolWait     000000018001fadc f   libcpmt:winapisupp.obj
 0001:0001eb34       __crtSleepConditionVariableCS 000000018001fb34 f   libcpmt:winapisupp.obj
 0001:0001eb8c       __crtSleepConditionVariableSRW 000000018001fb8c f   libcpmt:winapisupp.obj
 0001:0001ebf4       __crtTryAcquireSRWLockExclusive 000000018001fbf4 f   libcpmt:winapisupp.obj
 0001:0001ec2c       __crtWaitForThreadpoolTimerCallbacks 000000018001fc2c f   libcpmt:winapisupp.obj
 0001:0001ec70       __crtWakeAllConditionVariable 000000018001fc70 f   libcpmt:winapisupp.obj
 0001:0001eca8       __crtWakeConditionVariable 000000018001fca8 f   libcpmt:winapisupp.obj
 0001:0001ece0       _Mtxinit                   000000018001fce0 f   libcpmt:xmtx.obj
 0001:0001ecf0       ?_Addstd@ios_base@std@@SAXPEAV12@@Z 000000018001fcf0 f   libcpmt:ios.obj
 0001:0001ed60       ?_Ios_base_dtor@ios_base@std@@CAXPEAV12@@Z 000000018001fd60 f   libcpmt:ios.obj
 0001:0001eda4       ?_Tidy@ios_base@std@@AEAAXXZ 000000018001fda4 f i libcpmt:ios.obj
 0001:0001ee34       ?_Atexit@@YAXP6AXXZ@Z      000000018001fe34 f   libcpmt:iosptrs.obj
 0001:0001ee74       __crtLCMapStringA          000000018001fe74 f   libcpmt:StlLCMapStringA.obj
 0001:0001f168       GetTableIndexFromLocaleName 0000000180020168 f   libcpmt:winapinls.obj
 0001:0001f1f4       __crtDownlevelLocaleNameToLCID 00000001800201f4 f   libcpmt:winapinls.obj
 0001:0001f228       __crtLCMapStringEx         0000000180020228 f   libcpmt:winapinls.obj
 0001:0001f2e4       __wcsnicmp_ascii           00000001800202e4 f   libcpmt:winapinls.obj
 0001:0001f350       __security_check_cookie    0000000180020350 f   LIBCMT:_amdsecgs_.obj
 0001:0001f374       ??2@YAPEAX_K@Z             0000000180020374 f   LIBCMT:new_scalar.obj
 0001:0001f3b0       ??3@YAXPEAX@Z              00000001800203b0 f   LIBCMT:delete_scalar.obj
 0001:0001f3b8       ??_V@YAXPEAX@Z             00000001800203b8 f   LIBCMT:delete_array.obj
 0001:0001f3b8       ??3@YAXPEAX_K@Z            00000001800203b8 f   LIBCMT:delete_scalar_size.obj
 0001:0001f3c0       ??_U@YAPEAX_K@Z            00000001800203c0 f   LIBCMT:new_array.obj
 0001:0001f3c8       ??_Gtype_info@@UEAAPEAXI@Z 00000001800203c8 f i LIBCMT:std_type_info_static.obj
 0001:0001f3c8       ??_Etype_info@@UEAAPEAXI@Z 00000001800203c8 f i LIBCMT:std_type_info_static.obj
 0001:0001f3f4       __scrt_acquire_startup_lock 00000001800203f4 f   LIBCMT:utility.obj
 0001:0001f430       __scrt_dllmain_after_initialize_c 0000000180020430 f   LIBCMT:utility.obj
 0001:0001f464       __scrt_dllmain_before_initialize_c 0000000180020464 f   LIBCMT:utility.obj
 0001:0001f47c       __scrt_dllmain_crt_thread_attach 000000018002047c f   LIBCMT:utility.obj
 0001:0001f4a4       __scrt_dllmain_crt_thread_detach 00000001800204a4 f   LIBCMT:utility.obj
 0001:0001f4bc       __scrt_dllmain_exception_filter 00000001800204bc f   LIBCMT:utility.obj
 0001:0001f520       __scrt_dllmain_uninitialize_c 0000000180020520 f   LIBCMT:utility.obj
 0001:0001f550       __scrt_dllmain_uninitialize_critical 0000000180020550 f   LIBCMT:utility.obj
 0001:0001f564       __scrt_initialize_crt      0000000180020564 f   LIBCMT:utility.obj
 0001:0001f5b0       __scrt_initialize_onexit_tables 00000001800205b0 f   LIBCMT:utility.obj
 0001:0001f67c       __scrt_is_nonwritable_in_current_image 000000018002067c f   LIBCMT:utility.obj
 0001:0001f718       __scrt_release_startup_lock 0000000180020718 f   LIBCMT:utility.obj
 0001:0001f73c       __scrt_uninitialize_crt    000000018002073c f   LIBCMT:utility.obj
 0001:0001f768       _onexit                    0000000180020768 f   LIBCMT:utility.obj
 0001:0001f7b8       atexit                     00000001800207b8 f   LIBCMT:utility.obj
 0001:0001f918       _Init_thread_footer        0000000180020918 f   LIBCMT:thread_safe_statics.obj
 0001:0001f978       _Init_thread_header        0000000180020978 f   LIBCMT:thread_safe_statics.obj
 0001:0001f9e0       _Init_thread_notify        00000001800209e0 f   LIBCMT:thread_safe_statics.obj
 0001:0001fa3c       _Init_thread_wait          0000000180020a3c f   LIBCMT:thread_safe_statics.obj
 0001:0001fe44       _DllMainCRTStartup         0000000180020e44 f   LIBCMT:dll_dllmain.obj
 0001:0001fe84       __GSHandlerCheck           0000000180020e84 f   LIBCMT:_gshandler_.obj
 0001:0001fea4       __GSHandlerCheckCommon     0000000180020ea4 f   LIBCMT:_gshandler_.obj
 0001:0001ff00       __GSHandlerCheck_EH        0000000180020f00 f   LIBCMT:gshandlereh.obj
 0001:0001ff90       _guard_check_icall         0000000180020f90 f i LIBCMT:checkcfg.obj
 0001:0001ff98       ??_M@YAXPEAX_K1P6AX0@Z@Z   0000000180020f98 f   LIBCMT:ehvecdtr.obj
 0001:00020004       ?__ArrayUnwind@@YAXPEAX_K1P6AX0@Z@Z 0000000180021004 f   LIBCMT:ehvecdtr.obj
 0001:00020068       ??_V@YAXPEAX_K@Z           0000000180021068 f   LIBCMT:delete_array_size.obj
 0001:00020080       __chkstk                   0000000180021080 f   LIBCMT:_chkstk_.obj
 0001:00020080       _alloca_probe              0000000180021080 f   LIBCMT:_chkstk_.obj
 0001:000200d4       __raise_securityfailure    00000001800210d4 f   LIBCMT:gs_report.obj
 0001:00020108       __report_gsfailure         0000000180021108 f   LIBCMT:gs_report.obj
 0001:000201dc       __report_rangecheckfailure 00000001800211dc f   LIBCMT:gs_report.obj
 0001:000201f0       __report_securityfailure   00000001800211f0 f   LIBCMT:gs_report.obj
 0001:00020370       ??0bad_array_new_length@std@@QEAA@AEBV01@@Z 0000000180021370 f i LIBCMT:throw_bad_alloc.obj
 0001:000203b0       ??0bad_array_new_length@std@@QEAA@XZ 00000001800213b0 f i LIBCMT:throw_bad_alloc.obj
 0001:000203d0       ?__scrt_throw_std_bad_array_new_length@@YAXXZ 00000001800213d0 f   LIBCMT:throw_bad_alloc.obj
 0001:000203f0       __isa_available_init       00000001800213f0 f   LIBCMT:_cpu_disp_.obj
 0001:000205b4       __scrt_is_ucrt_dll_in_use  00000001800215b4 f   LIBCMT:ucrt_detection.obj
 0001:000205c0       __crt_debugger_hook        00000001800215c0 f   LIBCMT:utility_desktop.obj
 0001:000205c8       __scrt_fastfail            00000001800215c8 f   LIBCMT:utility_desktop.obj
 0001:00020710       __security_init_cookie     0000000180021710 f   LIBCMT:gs_support.obj
 0001:000207bc       ?__scrt_initialize_type_info@@YAXXZ 00000001800217bc f   LIBCMT:tncleanup.obj
 0001:000207cc       ?__scrt_uninitialize_type_info@@YAXXZ 00000001800217cc f   LIBCMT:tncleanup.obj
 0001:000207d8       __local_stdio_scanf_options 00000001800217d8 f i LIBCMT:default_local_stdio_options.obj
 0001:000207e0       __scrt_initialize_default_local_stdio_options 00000001800217e0 f   LIBCMT:default_local_stdio_options.obj
 0001:000207fc       __scrt_get_dyn_tls_init_callback 00000001800217fc f   LIBCMT:dyn_tls_init.obj
 0001:00020804       _RTC_Initialize            0000000180021804 f   LIBCMT:_initsect_.obj
 0001:00020850       _RTC_Terminate             0000000180021850 f   LIBCMT:_initsect_.obj
 0001:000208a0       ??0LockQueueNode@details@Concurrency@@QEAA@I@Z 00000001800218a0 f i libconcrt:rtlocks.obj
 0001:000209a8       ??0_ReaderWriterLock@details@Concurrency@@QEAA@XZ 00000001800219a8 f   libconcrt:rtlocks.obj
 0001:000209bc       ??0_ReentrantBlockingLock@details@Concurrency@@QEAA@XZ 00000001800219bc f   libconcrt:rtlocks.obj
 0001:000209bc       ??0_NonReentrantBlockingLock@details@Concurrency@@QEAA@XZ 00000001800219bc f   libconcrt:rtlocks.obj
 0001:000209dc       ??0critical_section@Concurrency@@QEAA@XZ 00000001800219dc f   libconcrt:rtlocks.obj
 0001:00020a04       ??0improper_lock@Concurrency@@QEAA@AEBV01@@Z 0000000180021a04 f i libconcrt:rtlocks.obj
 0001:00020a44       ??0scoped_lock@critical_section@Concurrency@@QEAA@AEAV12@@Z 0000000180021a44 f   libconcrt:rtlocks.obj
 0001:00020a98       ??1_ReentrantBlockingLock@details@Concurrency@@QEAA@XZ 0000000180021a98 f   libconcrt:rtlocks.obj
 0001:00020a98       _Mtxdst                    0000000180021a98 f   libcpmt:xmtx.obj
 0001:00020a98       ??1_NonReentrantBlockingLock@details@Concurrency@@QEAA@XZ 0000000180021a98 f   libconcrt:rtlocks.obj
 0001:00020aa0       ??1scoped_lock@critical_section@Concurrency@@QEAA@XZ 0000000180021aa0 f   libconcrt:rtlocks.obj
 0001:00020abc       ?Block@LockQueueNode@details@Concurrency@@QEAAXI@Z 0000000180021abc f i libconcrt:rtlocks.obj
 0001:00020b6c       ?DispatchNodeTimeoutTimer@LockQueueNode@details@Concurrency@@SAXPEAU_TP_CALLBACK_INSTANCE@@PEAXPEAU_TP_TIMER@@@Z 0000000180021b6c f i libconcrt:rtlocks.obj
 0001:00020bf4       ?DispatchNodeTimeoutTimerXP@LockQueueNode@details@Concurrency@@SAXPEAXE@Z 0000000180021bf4 f i libconcrt:rtlocks.obj
 0001:00020c6c       ?UpdateQueuePosition@LockQueueNode@details@Concurrency@@QEAAXPEAV123@@Z 0000000180021c6c f i libconcrt:rtlocks.obj
 0001:00020cf0       ?_Acquire@_ReentrantBlockingLock@details@Concurrency@@QEAAXXZ 0000000180021cf0 f   libconcrt:rtlocks.obj
 0001:00020cf0       ?_Acquire@_NonReentrantBlockingLock@details@Concurrency@@QEAAXXZ 0000000180021cf0 f   libconcrt:rtlocks.obj
 0001:00020cf0       _Mtxlock                   0000000180021cf0 f   libcpmt:xmtx.obj
 0001:00020cf8       ?_AcquireRead@_ReaderWriterLock@details@Concurrency@@QEAAXXZ 0000000180021cf8 f   libconcrt:rtlocks.obj
 0001:00020d38       ?_AcquireWrite@_ReaderWriterLock@details@Concurrency@@QEAAXXZ 0000000180021d38 f   libconcrt:rtlocks.obj
 0001:00020d74       ?_Acquire_lock@critical_section@Concurrency@@QEAA_NPEAX_N@Z 0000000180021d74 f   libconcrt:rtlocks.obj
 0001:00020e90       ?_FlushWriteOwners@_ReaderWriterLock@details@Concurrency@@QEAAXXZ 0000000180021e90 f   libconcrt:rtlocks.obj
 0001:00020eb0       ?_Flush_current_owner@critical_section@Concurrency@@QEAAXXZ 0000000180021eb0 f   libconcrt:rtlocks.obj
 0001:00020ed8       ?_Initialize@_SpinCount@details@Concurrency@@SAXXZ 0000000180021ed8 f   libconcrt:rtlocks.obj
 0001:00020efc       ?_Release@_ReentrantBlockingLock@details@Concurrency@@QEAAXXZ 0000000180021efc f   libconcrt:rtlocks.obj
 0001:00020efc       _Mtxunlock                 0000000180021efc f   libcpmt:xmtx.obj
 0001:00020efc       ?_Release@_NonReentrantBlockingLock@details@Concurrency@@QEAAXXZ 0000000180021efc f   libconcrt:rtlocks.obj
 0001:00020f04       ?_ReleaseRead@_ReaderWriterLock@details@Concurrency@@QEAAXXZ 0000000180021f04 f   libconcrt:rtlocks.obj
 0001:00020f08       ?_ReleaseWrite@_ReaderWriterLock@details@Concurrency@@QEAAXXZ 0000000180021f08 f   libconcrt:rtlocks.obj
 0001:00020f14       ?_SpinOnce@?$_SpinWait@$00@details@Concurrency@@QEAA_NXZ 0000000180021f14 f i libconcrt:rtlocks.obj
 0001:00020fd4       ?_SpinOnce@?$_SpinWait@$0A@@details@Concurrency@@QEAA_NXZ 0000000180021fd4 f i libconcrt:rtlocks.obj
 0001:00021074       ?_Switch_to_active@critical_section@Concurrency@@AEAAXPEAX@Z 0000000180022074 f   libconcrt:rtlocks.obj
 0001:000210fc       ?_TryAcquireWrite@_ReaderWriterLock@details@Concurrency@@QEAA_NXZ 00000001800220fc f   libconcrt:rtlocks.obj
 0001:00021114       ?_WaitEquals@_ReaderWriterLock@details@Concurrency@@CAXAEDJJJ@Z 0000000180022114 f   libconcrt:rtlocks.obj
 0001:00021188       ?lock@critical_section@Concurrency@@QEAAXXZ 0000000180022188 f   libconcrt:rtlocks.obj
 0001:000211c4       ?try_lock@critical_section@Concurrency@@QEAA_NXZ 00000001800221c4 f   libconcrt:rtlocks.obj
 0001:00021220       ?try_lock_for@critical_section@Concurrency@@QEAA_NI@Z 0000000180022220 f   libconcrt:rtlocks.obj
 0001:000212e0       ?unlock@critical_section@Concurrency@@QEAAXXZ 00000001800222e0 f   libconcrt:rtlocks.obj
 0001:00021408       ??0scheduler_resource_allocation_error@Concurrency@@QEAA@AEBV01@@Z 0000000180022408 f i libconcrt:Platform.obj
 0001:00021458       ??1DefaultWaiterPool@platform@details@Concurrency@@QEAA@XZ 0000000180022458 f i libconcrt:Platform.obj
 0001:000214c0       ??_Gscheduler_resource_allocation_error@Concurrency@@UEAAPEAXI@Z 00000001800224c0 f i libconcrt:Platform.obj
 0001:000214c0       ??_Escheduler_worker_creation_error@Concurrency@@UEAAPEAXI@Z 00000001800224c0 f i libconcrt:Exceptions.obj
 0001:000214c0       ??_Escheduler_resource_allocation_error@Concurrency@@UEAAPEAXI@Z 00000001800224c0 f i libconcrt:Platform.obj
 0001:000214c0       ??_Gscheduler_worker_creation_error@Concurrency@@UEAAPEAXI@Z 00000001800224c0 f i libconcrt:Exceptions.obj
 0001:00021504       ?InitializeSystemFunctionPointers@platform@details@Concurrency@@YAXXZ 0000000180022504 f   libconcrt:Platform.obj
 0001:00021610       ?__ChangeTimerQueueTimer@platform@details@Concurrency@@YAHPEAX0KK@Z 0000000180022610 f   libconcrt:Platform.obj
 0001:00021618       ?__CloseThreadHandle@platform@details@Concurrency@@YAXPEAX@Z 0000000180022618 f   libconcrt:Platform.obj
 0001:00021620       ?__CreateAutoResetEvent@platform@details@Concurrency@@YAPEAX_N@Z 0000000180022620 f   libconcrt:Platform.obj
 0001:0002167c       ?__CreateThread@platform@details@Concurrency@@YAPEAXPEAU_SECURITY_ATTRIBUTES@@_KP6AKPEAX@Z2KPEAK@Z 000000018002267c f   libconcrt:Platform.obj
 0001:00021684       ?__CreateTimerQueueTimer@platform@details@Concurrency@@YAHPEAPEAXPEAXP6AX1E@Z1KKK@Z 0000000180022684 f   libconcrt:Platform.obj
 0001:0002168c       ?__DeleteTimerQueueTimer@platform@details@Concurrency@@YAXPEAX00@Z 000000018002268c f   libconcrt:Platform.obj
 0001:000216ec       ?__GetCurrentProcessorNumberEx@platform@details@Concurrency@@YAXPEAU_PROCESSOR_NUMBER@@@Z 00000001800226ec f   libconcrt:Platform.obj
 0001:00021724       ?__GetLogicalProcessorInformation@platform@details@Concurrency@@YAPEAU_SYSTEM_LOGICAL_PROCESSOR_INFORMATION@@PEAK@Z 0000000180022724 f   libconcrt:Platform.obj
 0001:000217f0       ?__GetLogicalProcessorInformationEx@platform@details@Concurrency@@YAPEAU_SYSTEM_LOGICAL_PROCESSOR_INFORMATION_EX@@W4_LOGICAL_PROCESSOR_RELATIONSHIP@@PEAK@Z 00000001800227f0 f   libconcrt:Platform.obj
 0001:0002193c       ?__GetNumaHighestNodeNumber@platform@details@Concurrency@@YAKXZ 000000018002293c f   libconcrt:Platform.obj
 0001:00021988       ?__GetThreadGroupAffinity@platform@details@Concurrency@@YAHPEAXPEAU_GROUP_AFFINITY@@@Z 0000000180022988 f   libconcrt:Platform.obj
 0001:00021a04       ?__GetThreadPriority@platform@details@Concurrency@@YAHPEAX@Z 0000000180022a04 f   libconcrt:Platform.obj
 0001:00021a0c       ?__GetTickCount64@platform@details@Concurrency@@YA_KXZ 0000000180022a0c f   libconcrt:Platform.obj
 0001:00021a14       ?__InitializeCriticalSectionEx@platform@details@Concurrency@@YAHPEAU_RTL_CRITICAL_SECTION@@K@Z 0000000180022a14 f   libconcrt:Platform.obj
 0001:00021a1c       ?__RegisterWaitForSingleObject@platform@details@Concurrency@@YAPEAXPEAXP6AX0E@Z0@Z 0000000180022a1c f   libconcrt:Platform.obj
 0001:00021a80       ?__SetThreadGroupAffinity@platform@details@Concurrency@@YAHPEAXPEBU_GROUP_AFFINITY@@@Z 0000000180022a80 f   libconcrt:Platform.obj
 0001:00021ae4       ?__SetThreadPriority@platform@details@Concurrency@@YAXPEAXH@Z 0000000180022ae4 f   libconcrt:Platform.obj
 0001:00021b28       ?__SignalObjectAndWait@platform@details@Concurrency@@YAKPEAX0KH@Z 0000000180022b28 f   libconcrt:Platform.obj
 0001:00021b30       ?__Sleep@platform@details@Concurrency@@YAXK@Z 0000000180022b30 f   libconcrt:Platform.obj
 0001:00021b38       ?__SwitchToThread@platform@details@Concurrency@@YAXXZ 0000000180022b38 f   libconcrt:Platform.obj
 0001:00021b40       ?__TlsAlloc@platform@details@Concurrency@@YAKXZ 0000000180022b40 f   libconcrt:Platform.obj
 0001:00021b84       ?__TlsFree@platform@details@Concurrency@@YAXK@Z 0000000180022b84 f   libconcrt:Platform.obj
 0001:00021b8c       ?__TlsGetValue@platform@details@Concurrency@@YAPEAXK@Z 0000000180022b8c f   libconcrt:Platform.obj
 0001:00021b94       ?__TlsSetValue@platform@details@Concurrency@@YAXKPEAX@Z 0000000180022b94 f   libconcrt:Platform.obj
 0001:00021bd8       ?__UnregisterWait@platform@details@Concurrency@@YAXPEAX@Z 0000000180022bd8 f   libconcrt:Platform.obj
 0001:00021be0       ?__WaitForThread@platform@details@Concurrency@@YAKPEAXK@Z 0000000180022be0 f   libconcrt:Platform.obj
 0001:00021bec       _concrt_static_cleanup     0000000180022bec f   libconcrt:utils.obj
 0001:00021c04       ?DeleteAsyncTimerAndUnloadLibrary@details@Concurrency@@YAXPEAU_TP_TIMER@@@Z 0000000180022c04 f   libconcrt:utils.obj
 0001:00021c4c       ?DecodePointer@Security@details@Concurrency@@SAPEAXPEAX@Z 0000000180022c4c f   libconcrt:utils.obj
 0001:00021c4c       ?EncodePointer@Security@details@Concurrency@@SAPEAXPEAX@Z 0000000180022c4c f   libconcrt:utils.obj
 0001:00021c58       ?FreeLibraryAndDestroyThread@details@Concurrency@@YAXK@Z 0000000180022c58 f   libconcrt:utils.obj
 0001:00021c90       ?InitializeCookie@Security@details@Concurrency@@SA_KXZ 0000000180022c90 f   libconcrt:utils.obj
 0001:00021cf4       ?LoadLibraryAndCreateThread@details@Concurrency@@YAPEAXPEAU_SECURITY_ATTRIBUTES@@_KP6AKPEAX@Z2KPEAK@Z 0000000180022cf4 f   libconcrt:utils.obj
 0001:00021d44       ?ReferenceLoadLibrary@details@Concurrency@@YAXXZ 0000000180022d44 f   libconcrt:utils.obj
 0001:00021dec       ?RegisterAsyncTimerAndLoadLibrary@details@Concurrency@@YAPEAU_TP_TIMER@@KP6AXPEAU_TP_CALLBACK_INSTANCE@@PEAXPEAU3@@Z1_N@Z 0000000180022dec f   libconcrt:utils.obj
 0001:00021e60       ?RegisterAsyncWaitAndLoadLibrary@details@Concurrency@@YAPEAU_TP_WAIT@@PEAXP6AXPEAU_TP_CALLBACK_INSTANCE@@0PEAU3@K@Z0@Z 0000000180022e60 f   libconcrt:utils.obj
 0001:00021eb4       ?UnRegisterAsyncTimerAndUnloadLibrary@details@Concurrency@@YAXPEAU_TP_CALLBACK_INSTANCE@@PEAU_TP_TIMER@@@Z 0000000180022eb4 f   libconcrt:utils.obj
 0001:00021f00       ?UnRegisterAsyncWaitAndUnloadLibrary@details@Concurrency@@YAXPEAU_TP_CALLBACK_INSTANCE@@PEAU_TP_WAIT@@@Z 0000000180022f00 f   libconcrt:utils.obj
 0001:00021f4c       ?_Acquire@_CriticalNonReentrantLock@details@Concurrency@@QEAAXXZ 0000000180022f4c f   libconcrt:utils.obj
 0001:00021f94       ?_Acquire@_HyperNonReentrantLock@details@Concurrency@@QEAAXXZ 0000000180022f94 f   libconcrt:utils.obj
 0001:00021fdc       ?_Release@_CriticalNonReentrantLock@details@Concurrency@@QEAAXXZ 0000000180022fdc f   libconcrt:utils.obj
 0001:00021fdc       ?_Release@_HyperNonReentrantLock@details@Concurrency@@QEAAXXZ 0000000180022fdc f   libconcrt:utils.obj
 0001:00021fe8       ?_Sleep0@details@Concurrency@@YAXXZ 0000000180022fe8 f   libconcrt:utils.obj
 0001:00021ff0       ?_TryAcquire@_CriticalNonReentrantLock@details@Concurrency@@QEAA_NXZ 0000000180022ff0 f   libconcrt:utils.obj
 0001:00022028       ?_UnderlyingYield@details@Concurrency@@YAXXZ 0000000180023028 f   libconcrt:utils.obj
 0001:00022068       ??0context_self_unblock@Concurrency@@QEAA@XZ 0000000180023068 f   libconcrt:Exceptions.obj
 0001:00022080       ??0context_unblock_unbalanced@Concurrency@@QEAA@XZ 0000000180023080 f   libconcrt:Exceptions.obj
 0001:00022098       ??0improper_lock@Concurrency@@QEAA@PEBD@Z 0000000180023098 f   libconcrt:Exceptions.obj
 0001:000220e4       ??0improper_scheduler_attach@Concurrency@@QEAA@XZ 00000001800230e4 f   libconcrt:Exceptions.obj
 0001:000220fc       ??0improper_scheduler_reference@Concurrency@@QEAA@XZ 00000001800230fc f   libconcrt:Exceptions.obj
 0001:00022114       ??0invalid_oversubscribe_operation@Concurrency@@QEAA@XZ 0000000180023114 f   libconcrt:Exceptions.obj
 0001:0002212c       ??0invalid_scheduler_policy_key@Concurrency@@QEAA@PEBD@Z 000000018002312c f   libconcrt:Exceptions.obj
 0001:00022178       ??0invalid_scheduler_policy_thread_specification@Concurrency@@QEAA@XZ 0000000180023178 f   libconcrt:Exceptions.obj
 0001:00022190       ??0invalid_scheduler_policy_value@Concurrency@@QEAA@PEBD@Z 0000000180023190 f   libconcrt:Exceptions.obj
 0001:000221dc       ??0missing_wait@Concurrency@@QEAA@XZ 00000001800231dc f   libconcrt:Exceptions.obj
 0001:000221f4       ??0nested_scheduler_missing_detach@Concurrency@@QEAA@XZ 00000001800231f4 f   libconcrt:Exceptions.obj
 0001:0002220c       ??0scheduler_resource_allocation_error@Concurrency@@QEAA@J@Z 000000018002320c f   libconcrt:Exceptions.obj
 0001:00022228       ??0scheduler_worker_creation_error@Concurrency@@QEAA@J@Z 0000000180023228 f   libconcrt:Exceptions.obj
 0001:00022244       ??0unsupported_os@Concurrency@@QEAA@XZ 0000000180023244 f   libconcrt:Exceptions.obj
 0001:0002225c       ??_Gbad_cast@std@@UEAAPEAXI@Z 000000018002325c f i libcpmt:cout.obj
 0001:0002225c       ??_Eout_of_range@std@@UEAAPEAXI@Z 000000018002325c f i libcpmt:xthrow.obj
 0001:0002225c       ??_Gimproper_scheduler_reference@Concurrency@@UEAAPEAXI@Z 000000018002325c f i libconcrt:Exceptions.obj
 0001:0002225c       ??_Gbad_function_call@std@@UEAAPEAXI@Z 000000018002325c f i libcpmt:xthrow.obj
 0001:0002225c       ??_Emissing_wait@Concurrency@@UEAAPEAXI@Z 000000018002325c f i libconcrt:Exceptions.obj
 0001:0002225c       ??_Ebad_alloc@std@@UEAAPEAXI@Z 000000018002325c f i libcpmt:xthrow.obj
 0001:0002225c       ??_Gcontext_unblock_unbalanced@Concurrency@@UEAAPEAXI@Z 000000018002325c f i libconcrt:Exceptions.obj
 0001:0002225c       ??_Elength_error@std@@UEAAPEAXI@Z 000000018002325c f i libcpmt:xthrow.obj
 0001:0002225c       ??_Ebad_exception@std@@UEAAPEAXI@Z 000000018002325c f i libvcruntime:frame.obj
 0001:0002225c       ??_Ginvalid_scheduler_policy_thread_specification@Concurrency@@UEAAPEAXI@Z 000000018002325c f i libconcrt:Exceptions.obj
 0001:0002225c       ??_Econtext_self_unblock@Concurrency@@UEAAPEAXI@Z 000000018002325c f i libconcrt:Exceptions.obj
 0001:0002225c       ??_Ginvalid_operation@Concurrency@@UEAAPEAXI@Z 000000018002325c f i libconcrt:ResourceManager.obj
 0001:0002225c       ??_Ginvalid_argument@std@@UEAAPEAXI@Z 000000018002325c f i libcpmt:xthrow.obj
 0001:0002225c       ??_Enested_scheduler_missing_detach@Concurrency@@UEAAPEAXI@Z 000000018002325c f i libconcrt:Exceptions.obj
 0001:0002225c       ??_Glogic_error@std@@UEAAPEAXI@Z 000000018002325c f i libcpmt:xthrow.obj
 0001:0002225c       ??_Eexception@std@@UEAAPEAXI@Z 000000018002325c f i libcpmt:xthrow.obj
 0001:0002225c       ??_G_Interruption_exception@details@Concurrency@@UEAAPEAXI@Z 000000018002325c f i libconcrt:TaskCollection.obj
 0001:0002225c       ??_Ginvalid_scheduler_policy_key@Concurrency@@UEAAPEAXI@Z 000000018002325c f i libconcrt:Exceptions.obj
 0001:0002225c       ??_E__non_rtti_object@std@@UEAAPEAXI@Z 000000018002325c f i libvcruntime:rtti.obj
 0001:0002225c       ??_Ginvalid_oversubscribe_operation@Concurrency@@UEAAPEAXI@Z 000000018002325c f i libconcrt:Exceptions.obj
 0001:0002225c       ??_Einvalid_scheduler_policy_value@Concurrency@@UEAAPEAXI@Z 000000018002325c f i libconcrt:Exceptions.obj
 0001:0002225c       ??_Eimproper_scheduler_reference@Concurrency@@UEAAPEAXI@Z 000000018002325c f i libconcrt:Exceptions.obj
 0001:0002225c       ??_Ebad_typeid@std@@UEAAPEAXI@Z 000000018002325c f i libvcruntime:rtti.obj
 0001:0002225c       ??_Einvalid_scheduler_policy_key@Concurrency@@UEAAPEAXI@Z 000000018002325c f i libconcrt:Exceptions.obj
 0001:0002225c       ??_Gbad_array_new_length@std@@UEAAPEAXI@Z 000000018002325c f i LIBCMT:throw_bad_alloc.obj
 0001:0002225c       ??_Gunsupported_os@Concurrency@@UEAAPEAXI@Z 000000018002325c f i libconcrt:Exceptions.obj
 0001:0002225c       ??_Eimproper_scheduler_attach@Concurrency@@UEAAPEAXI@Z 000000018002325c f i libconcrt:Exceptions.obj
 0001:0002225c       ??_Gbad_alloc@std@@UEAAPEAXI@Z 000000018002325c f i libcpmt:xthrow.obj
 0001:0002225c       ??_Gbad_typeid@std@@UEAAPEAXI@Z 000000018002325c f i libvcruntime:rtti.obj
 0001:0002225c       ??_Gnested_scheduler_missing_detach@Concurrency@@UEAAPEAXI@Z 000000018002325c f i libconcrt:Exceptions.obj
 0001:0002225c       ??_Glength_error@std@@UEAAPEAXI@Z 000000018002325c f i libcpmt:xthrow.obj
 0001:0002225c       ??_Elogic_error@std@@UEAAPEAXI@Z 000000018002325c f i libcpmt:xthrow.obj
 0001:0002225c       ??_Eunsupported_os@Concurrency@@UEAAPEAXI@Z 000000018002325c f i libconcrt:Exceptions.obj
 0001:0002225c       ??_Ebad_cast@std@@UEAAPEAXI@Z 000000018002325c f i libcpmt:cout.obj
 0001:0002225c       ??_Einvalid_operation@Concurrency@@UEAAPEAXI@Z 000000018002325c f i libconcrt:ResourceManager.obj
 0001:0002225c       ??_Einvalid_oversubscribe_operation@Concurrency@@UEAAPEAXI@Z 000000018002325c f i libconcrt:Exceptions.obj
 0001:0002225c       ??_E_Interruption_exception@details@Concurrency@@UEAAPEAXI@Z 000000018002325c f i libconcrt:TaskCollection.obj
 0001:0002225c       ??_Einvalid_argument@std@@UEAAPEAXI@Z 000000018002325c f i libcpmt:xthrow.obj
 0001:0002225c       ??_Gbad_exception@std@@UEAAPEAXI@Z 000000018002325c f i libvcruntime:frame.obj
 0001:0002225c       ??_Gexception@std@@UEAAPEAXI@Z 000000018002325c f i libcpmt:xthrow.obj
 0001:0002225c       ??_Ebad_function_call@std@@UEAAPEAXI@Z 000000018002325c f i libcpmt:xthrow.obj
 0001:0002225c       ??_Gout_of_range@std@@UEAAPEAXI@Z 000000018002325c f i libcpmt:xthrow.obj
 0001:0002225c       ??_G__non_rtti_object@std@@UEAAPEAXI@Z 000000018002325c f i libvcruntime:rtti.obj
 0001:0002225c       ??_Gimproper_lock@Concurrency@@UEAAPEAXI@Z 000000018002325c f i libconcrt:rtlocks.obj
 0001:0002225c       ??_Ginvalid_scheduler_policy_value@Concurrency@@UEAAPEAXI@Z 000000018002325c f i libconcrt:Exceptions.obj
 0001:0002225c       ??_Econtext_unblock_unbalanced@Concurrency@@UEAAPEAXI@Z 000000018002325c f i libconcrt:Exceptions.obj
 0001:0002225c       ??_Gimproper_scheduler_attach@Concurrency@@UEAAPEAXI@Z 000000018002325c f i libconcrt:Exceptions.obj
 0001:0002225c       ??_Gmissing_wait@Concurrency@@UEAAPEAXI@Z 000000018002325c f i libconcrt:Exceptions.obj
 0001:0002225c       ??_Einvalid_scheduler_policy_thread_specification@Concurrency@@UEAAPEAXI@Z 000000018002325c f i libconcrt:Exceptions.obj
 0001:0002225c       ??_Eimproper_lock@Concurrency@@UEAAPEAXI@Z 000000018002325c f i libconcrt:rtlocks.obj
 0001:0002225c       ??_Gcontext_self_unblock@Concurrency@@UEAAPEAXI@Z 000000018002325c f i libconcrt:Exceptions.obj
 0001:0002225c       ??_Ebad_array_new_length@std@@UEAAPEAXI@Z 000000018002325c f i LIBCMT:throw_bad_alloc.obj
 0001:000222a0       ?Block@Context@Concurrency@@SAXXZ 00000001800232a0 f   libconcrt:Context.obj
 0001:000222f4       ?CurrentContext@Context@Concurrency@@SAPEAV12@XZ 00000001800232f4 f   libconcrt:Context.obj
 0001:00022320       ??0HardwareAffinity@details@Concurrency@@QEAA@PEAX@Z 0000000180023320 f   libconcrt:ResourceManager.obj
 0001:0002234c       ??0ResourceManager@details@Concurrency@@AEAA@XZ 000000018002334c f   libconcrt:ResourceManager.obj
 0001:0002246c       ??0invalid_operation@Concurrency@@QEAA@AEBV01@@Z 000000018002346c f i libconcrt:ResourceManager.obj
 0001:000224ac       ??0invalid_operation@Concurrency@@QEAA@XZ 00000001800234ac f i libconcrt:ResourceManager.obj
 0001:000224c4       ??0unsupported_os@Concurrency@@QEAA@AEBV01@@Z 00000001800234c4 f i libconcrt:ResourceManager.obj
 0001:00022504       ??1GlobalNode@details@Concurrency@@QEAA@XZ 0000000180023504 f i libconcrt:ResourceManager.obj
 0001:00022514       ??1ResourceManager@details@Concurrency@@AEAA@XZ 0000000180023514 f   libconcrt:ResourceManager.obj
 0001:0002264c       ??1_Scoped_lock@_NonReentrantBlockingLock@details@Concurrency@@QEAA@XZ 000000018002364c f i libconcrt:ResourceManager.obj
 0001:00022668       ??1_Scoped_lock@_NonReentrantLock@details@Concurrency@@QEAA@XZ 0000000180023668 f i libconcrt:ResourceManager.obj
 0001:00022674       ??1bad_exception@std@@UEAA@XZ 0000000180023674 f i libvcruntime:frame.obj
 0001:00022674       ??1scheduler_worker_creation_error@Concurrency@@UEAA@XZ 0000000180023674 f i libconcrt:Exceptions.obj
 0001:00022674       ??1missing_wait@Concurrency@@UEAA@XZ 0000000180023674 f i libconcrt:Exceptions.obj
 0001:00022674       ??1bad_alloc@std@@UEAA@XZ  0000000180023674 f i libcpmt:xthrow.obj
 0001:00022674       ??1context_self_unblock@Concurrency@@UEAA@XZ 0000000180023674 f i libconcrt:Exceptions.obj
 0001:00022674       ??1scheduler_resource_allocation_error@Concurrency@@UEAA@XZ 0000000180023674 f i libconcrt:Platform.obj
 0001:00022674       ??1__non_rtti_object@std@@UEAA@XZ 0000000180023674 f i libvcruntime:rtti.obj
 0001:00022674       ??1invalid_scheduler_policy_value@Concurrency@@UEAA@XZ 0000000180023674 f i libconcrt:Exceptions.obj
 0001:00022674       ??1invalid_scheduler_policy_key@Concurrency@@UEAA@XZ 0000000180023674 f i libconcrt:Exceptions.obj
 0001:00022674       ??1bad_function_call@std@@UEAA@XZ 0000000180023674 f i libcpmt:xthrow.obj
 0001:00022674       ??1_Interruption_exception@details@Concurrency@@UEAA@XZ 0000000180023674 f i libconcrt:TaskCollection.obj
 0001:00022674       ??1invalid_argument@std@@UEAA@XZ 0000000180023674 f i libcpmt:xthrow.obj
 0001:00022674       ??1unsupported_os@Concurrency@@UEAA@XZ 0000000180023674 f i libconcrt:Exceptions.obj
 0001:00022674       ??1invalid_oversubscribe_operation@Concurrency@@UEAA@XZ 0000000180023674 f i libconcrt:Exceptions.obj
 0001:00022674       ??1invalid_operation@Concurrency@@UEAA@XZ 0000000180023674 f i libconcrt:ResourceManager.obj
 0001:00022674       ??1context_unblock_unbalanced@Concurrency@@UEAA@XZ 0000000180023674 f i libconcrt:Exceptions.obj
 0001:00022674       ??1invalid_scheduler_policy_thread_specification@Concurrency@@UEAA@XZ 0000000180023674 f i libconcrt:Exceptions.obj
 0001:00022674       ??1improper_scheduler_reference@Concurrency@@UEAA@XZ 0000000180023674 f i libconcrt:Exceptions.obj
 0001:00022674       ??1bad_cast@std@@UEAA@XZ   0000000180023674 f i libcpmt:cout.obj
 0001:00022674       ??1bad_array_new_length@std@@UEAA@XZ 0000000180023674 f i LIBCMT:throw_bad_alloc.obj
 0001:00022674       ??1length_error@std@@UEAA@XZ 0000000180023674 f i libcpmt:xthrow.obj
 0001:00022674       ??1improper_lock@Concurrency@@UEAA@XZ 0000000180023674 f i libconcrt:rtlocks.obj
 0001:00022674       ??1out_of_range@std@@UEAA@XZ 0000000180023674 f i libcpmt:xthrow.obj
 0001:00022674       ??1improper_scheduler_attach@Concurrency@@UEAA@XZ 0000000180023674 f i libconcrt:Exceptions.obj
 0001:00022674       ??1nested_scheduler_missing_detach@Concurrency@@UEAA@XZ 0000000180023674 f i libconcrt:Exceptions.obj
 0001:00022688       ?AdjustDynamicAllocation@ResourceManager@details@Concurrency@@AEAAIIII@Z 0000000180023688 f   libconcrt:ResourceManager.obj
 0001:0002275c       ?ApplyAffinityRestrictions@ResourceManager@details@Concurrency@@CAXPEAU_GROUP_AFFINITY@@@Z 000000018002375c f   libconcrt:ResourceManager.obj
 0001:00022830       ?ApplyAffinityRestrictions@ResourceManager@details@Concurrency@@CAXPEA_K@Z 0000000180023830 f   libconcrt:ResourceManager.obj
 0001:00022868       ?ApplyTo@HardwareAffinity@details@Concurrency@@QEAAXPEAX@Z 0000000180023868 f   libconcrt:ResourceManager.obj
 0001:00022878       ?CaptureProcessAffinity@ResourceManager@details@Concurrency@@CAXXZ 0000000180023878 f   libconcrt:ResourceManager.obj
 0001:00022a00       ?CleanupTopologyInformation@ResourceManager@details@Concurrency@@CAXXZ 0000000180023a00 f   libconcrt:ResourceManager.obj
 0001:00022a24       ?CommitStolenCores@ResourceManager@details@Concurrency@@AEAAXPEAVSchedulerProxy@23@@Z 0000000180023a24 f   libconcrt:ResourceManager.obj
 0001:00022b48       ?CreateAllocatedNodeData@ResourceManager@details@Concurrency@@QEAAPEAUSchedulerNode@23@XZ 0000000180023b48 f   libconcrt:ResourceManager.obj
 0001:00022ca8       ?CreateDynamicRMWorker@ResourceManager@details@Concurrency@@AEAAXXZ 0000000180023ca8 f   libconcrt:ResourceManager.obj
 0001:00022d20       ?CreateResourceManager@Concurrency@@YAPEAUIResourceManager@1@XZ 0000000180023d20 f   libconcrt:ResourceManager.obj
 0001:00022d28       ?CreateSchedulerProxy@ResourceManager@details@Concurrency@@AEAAPEAVSchedulerProxy@23@PEAUIScheduler@3@@Z 0000000180023d28 f   libconcrt:ResourceManager.obj
 0001:00022dac       ?CreateSingleton@ResourceManager@details@Concurrency@@SAPEAV123@XZ 0000000180023dac f   libconcrt:ResourceManager.obj
 0001:00022e98       ?CurrentSubscriptionLevel@ResourceManager@details@Concurrency@@QEAAIII@Z 0000000180023e98 f   libconcrt:ResourceManager.obj
 0001:00022f44       ?DestroyAllocatedNodeData@ResourceManager@details@Concurrency@@QEAAXPEAUSchedulerNode@23@@Z 0000000180023f44 f   libconcrt:ResourceManager.obj
 0001:00022f90       ?DetermineTopology@ResourceManager@details@Concurrency@@AEAAXXZ 0000000180023f90 f   libconcrt:ResourceManager.obj
 0001:00023378       ?DiscardExistingSchedulerStatistics@ResourceManager@details@Concurrency@@AEAAXXZ 0000000180024378 f   libconcrt:ResourceManager.obj
 0001:000233fc       ?DistributeCoresToSurvivingScheduler@ResourceManager@details@Concurrency@@AEAA_NXZ 00000001800243fc f   libconcrt:ResourceManager.obj
 0001:000235f8       ?DistributeExclusiveCores@ResourceManager@details@Concurrency@@AEAAXIIIII@Z 00000001800245f8 f   libconcrt:ResourceManager.obj
 0001:00023780       ?DistributeIdleCores@ResourceManager@details@Concurrency@@AEAAXII@Z 0000000180024780 f   libconcrt:ResourceManager.obj
 0001:00023948       ?DoCoreMigration@ResourceManager@details@Concurrency@@AEAAXXZ 0000000180024948 f   libconcrt:ResourceManager.obj
 0001:00023be0       ?DynamicAssignCores@ResourceManager@details@Concurrency@@AEAAXPEAVSchedulerProxy@23@II_N@Z 0000000180024be0 f   libconcrt:ResourceManager.obj
 0001:00023c84       ?DynamicMigrateCores@ResourceManager@details@Concurrency@@AEAAXPEAUDynamicAllocationData@23@PEAVSchedulerProxy@23@II@Z 0000000180024c84 f   libconcrt:ResourceManager.obj
 0001:00023e5c       ?DynamicRMThreadProc@ResourceManager@details@Concurrency@@CAKPEAX@Z 0000000180024e5c f   libconcrt:ResourceManager.obj
 0001:00023e74       ?DynamicResourceManager@ResourceManager@details@Concurrency@@AEAAXXZ 0000000180024e74 f   libconcrt:ResourceManager.obj
 0001:00023f90       ?FindBestFitExclusiveAllocation@ResourceManager@details@Concurrency@@AEAAIAEAI0PEAUDynamicAllocationData@23@II@Z 0000000180024f90 f   libconcrt:ResourceManager.obj
 0001:00024340       ?FindBestFitIdleAllocation@ResourceManager@details@Concurrency@@AEAAIIPEAUDynamicAllocationData@23@I@Z 0000000180025340 f   libconcrt:ResourceManager.obj
 0001:0002445c       ?FindCoreForPartiallyFilledNode@ResourceManager@details@Concurrency@@AEAA_NAEAI0PEAUDynamicAllocationData@23@I@Z 000000018002545c f   libconcrt:ResourceManager.obj
 0001:000245b4       ?FlushStoreBuffers@ResourceManager@details@Concurrency@@QEAAXXZ 00000001800255b4 f   libconcrt:ResourceManager.obj
 0001:000245f0       ?GetAvailableNodeCount@ResourceManager@details@Concurrency@@UEBAIXZ 00000001800255f0 f i libconcrt:ResourceManager.obj
 0001:000245f0       ?GetNumberOfVirtualProcessors@SchedulerBase@details@Concurrency@@UEBAIXZ 00000001800255f0 f i libconcrt:SchedulerBase.obj
 0001:000245f4       ?GetCoreCount@ResourceManager@details@Concurrency@@SAIXZ 00000001800255f4 f   libconcrt:ResourceManager.obj
 0001:00024678       ?GetCurrentNodeAndCore@ResourceManager@details@Concurrency@@QEAAIPEAI@Z 0000000180025678 f   libconcrt:ResourceManager.obj
 0001:000247b8       ?GetExecutionResourceCount@TopologyObject@GlobalNode@details@Concurrency@@UEBAIXZ 00000001800257b8 f i libconcrt:ResourceManager.obj
 0001:000247c0       ?GetFirstExecutionResource@TopologyObject@GlobalNode@details@Concurrency@@UEBAPEAUITopologyExecutionResource@4@XZ 00000001800257c0 f i libconcrt:ResourceManager.obj
 0001:000247d0       ?GetFirstNode@ResourceManager@details@Concurrency@@UEBAPEAUITopologyNode@3@XZ 00000001800257d0 f i libconcrt:ResourceManager.obj
 0001:000247dc       ?GetId@TopologyObject@GlobalCore@details@Concurrency@@UEBAIXZ 00000001800257dc f i libconcrt:ResourceManager.obj
 0001:000247e4       ?GetId@TopologyObject@GlobalNode@details@Concurrency@@UEBAIXZ 00000001800257e4 f i libconcrt:ResourceManager.obj
 0001:000247ec       ?GetNext@TopologyObject@GlobalCore@details@Concurrency@@UEBAPEAUITopologyExecutionResource@4@XZ 00000001800257ec f   libconcrt:ResourceManager.obj
 0001:00024840       ?GetNext@TopologyObject@GlobalNode@details@Concurrency@@UEBAPEAUITopologyNode@4@XZ 0000000180025840 f   libconcrt:ResourceManager.obj
 0001:00024878       ?GetNodeCount@ResourceManager@details@Concurrency@@SAIXZ 0000000180025878 f   libconcrt:ResourceManager.obj
 0001:000248fc       ?GetNumaNode@TopologyObject@GlobalNode@details@Concurrency@@UEBAKXZ 00000001800258fc f i libconcrt:ResourceManager.obj
 0001:00024904       ?GetOSVersion@Concurrency@@YA?AW4OSVersion@IResourceManager@1@XZ 0000000180025904 f   libconcrt:ResourceManager.obj
 0001:0002490c       ?GetProcessorCount@Concurrency@@YAIXZ 000000018002590c f   libconcrt:ResourceManager.obj
 0001:00024914       ?GetProcessorNodeCount@Concurrency@@YAIXZ 0000000180025914 f   libconcrt:ResourceManager.obj
 0001:0002491c       ?GetSchedulerId@Concurrency@@YAIXZ 000000018002591c f   libconcrt:ResourceManager.obj
 0001:0002492c       ?GetTopologyInformation@ResourceManager@details@Concurrency@@CAXW4_LOGICAL_PROCESSOR_RELATIONSHIP@@@Z 000000018002592c f   libconcrt:ResourceManager.obj
 0001:00024960       ?HandleBorrowedCores@ResourceManager@details@Concurrency@@AEAAXPEAVSchedulerProxy@23@PEAUAllocationData@23@@Z 0000000180025960 f   libconcrt:ResourceManager.obj
 0001:00024aac       ?HandleSharedCores@ResourceManager@details@Concurrency@@AEAAXPEAVSchedulerProxy@23@PEAUDynamicAllocationData@23@@Z 0000000180025aac f   libconcrt:ResourceManager.obj
 0001:00024c10       ?IncreaseFullyLoadedSchedulerAllocations@ResourceManager@details@Concurrency@@AEAAXXZ 0000000180025c10 f   libconcrt:ResourceManager.obj
 0001:00024c74       ?Initialize@GlobalNode@details@Concurrency@@QEAAXPEAVResourceManager@23@GG_KII@Z 0000000180025c74 f i libconcrt:ResourceManager.obj
 0001:00024e5c       ?InitializeRMBuffers@ResourceManager@details@Concurrency@@AEAAXXZ 0000000180025e5c f   libconcrt:ResourceManager.obj
 0001:00024f5c       ?InitializeSystemInformation@ResourceManager@details@Concurrency@@CAX_N@Z 0000000180025f5c f   libconcrt:ResourceManager.obj
 0001:0002521c       ?PerformAllocation@ResourceManager@details@Concurrency@@QEAAPEAVExecutionResource@23@PEAVSchedulerProxy@23@_N1@Z 000000018002621c f   libconcrt:ResourceManager.obj
 0001:00025438       ?PopulateCommonAllocationData@ResourceManager@details@Concurrency@@AEAAXIPEAVSchedulerProxy@23@PEAUAllocationData@23@@Z 0000000180026438 f   libconcrt:ResourceManager.obj
 0001:0002550c       ?PopulateDynamicAllocationData@ResourceManager@details@Concurrency@@AEAAXXZ 000000018002650c f   libconcrt:ResourceManager.obj
 0001:0002567c       ?PreProcessDynamicAllocationData@ResourceManager@details@Concurrency@@AEAAXXZ 000000018002667c f   libconcrt:ResourceManager.obj
 0001:00025794       ?PreProcessStaticAllocationData@ResourceManager@details@Concurrency@@AEAAXXZ 0000000180026794 f   libconcrt:ResourceManager.obj
 0001:000257d8       ?PrepareReceiversForCoreTransfer@ResourceManager@details@Concurrency@@AEAAII@Z 00000001800267d8 f   libconcrt:ResourceManager.obj
 0001:00025a58       ?RedistributeCoresAmongAll@ResourceManager@details@Concurrency@@AEAAIPEAVSchedulerProxy@23@III@Z 0000000180026a58 f   libconcrt:ResourceManager.obj
 0001:00025e44       ?Reference@ResourceManager@details@Concurrency@@UEAAIXZ 0000000180026e44 f   libconcrt:ResourceManager.obj
 0001:00025e54       ?RegisterScheduler@ResourceManager@details@Concurrency@@UEAAPEAUISchedulerProxy@3@PEAUIScheduler@3@I@Z 0000000180026e54 f   libconcrt:ResourceManager.obj
 0001:00025eb8       ?Release@ResourceManager@details@Concurrency@@UEAAIXZ 0000000180026eb8 f   libconcrt:ResourceManager.obj
 0001:00025fac       ?ReleaseCoresOnExistingSchedulers@ResourceManager@details@Concurrency@@AEAAIPEAVSchedulerProxy@23@II@Z 0000000180026fac f   libconcrt:ResourceManager.obj
 0001:00026050       ?ReleaseSchedulerResources@ResourceManager@details@Concurrency@@AEAA_NPEAVSchedulerProxy@23@0I@Z 0000000180027050 f   libconcrt:ResourceManager.obj
 0001:0002617c       ?RemoveExecutionResource@ResourceManager@details@Concurrency@@QEAAXPEAVExecutionResource@23@@Z 000000018002717c f   libconcrt:ResourceManager.obj
 0001:00026224       ?RequestInitialVirtualProcessors@ResourceManager@details@Concurrency@@QEAAPEAUIExecutionResource@3@PEAVSchedulerProxy@23@_N@Z 0000000180027224 f   libconcrt:ResourceManager.obj
 0001:000263c4       ?ReserveAtHigherUseCounts@ResourceManager@details@Concurrency@@AEAAIPEAVSchedulerProxy@23@I@Z 00000001800273c4 f   libconcrt:ResourceManager.obj
 0001:00026428       ?ReserveCores@ResourceManager@details@Concurrency@@AEAAIPEAVSchedulerProxy@23@II@Z 0000000180027428 f   libconcrt:ResourceManager.obj
 0001:00026628       ?ResetGlobalAllocationData@ResourceManager@details@Concurrency@@AEAAXXZ 0000000180027628 f   libconcrt:ResourceManager.obj
 0001:0002667c       ?RetrieveSystemVersionInformation@ResourceManager@details@Concurrency@@CAXXZ 000000018002767c f   libconcrt:ResourceManager.obj
 0001:00026794       ?RoundUpScaledAllocations@ResourceManager@details@Concurrency@@CAXPEAPEAUAllocationData@23@II@Z 0000000180027794 f   libconcrt:ResourceManager.obj
 0001:0002694c       ?SendResourceNotifications@ResourceManager@details@Concurrency@@QEAAXPEAVSchedulerProxy@23@@Z 000000018002794c f   libconcrt:ResourceManager.obj
 0001:00026b14       ?SetupStaticAllocationData@ResourceManager@details@Concurrency@@AEAAXPEAVSchedulerProxy@23@_N@Z 0000000180027b14 f   libconcrt:ResourceManager.obj
 0001:00026c30       ?Shutdown@ResourceManager@details@Concurrency@@QEAAXPEAVSchedulerProxy@23@@Z 0000000180027c30 f   libconcrt:ResourceManager.obj
 0001:00026d58       ?SubscribeCurrentThread@ResourceManager@details@Concurrency@@QEAAPEAVExecutionResource@23@PEAVSchedulerProxy@23@@Z 0000000180027d58 f   libconcrt:ResourceManager.obj
 0001:00026dd0       ?ToggleRMIdleState@ResourceManager@details@Concurrency@@AEAAXPEAUSchedulerNode@23@PEAUSchedulerCore@23@PEAUGlobalNode@23@PEAUGlobalCore@23@PEAUAllocationData@23@@Z 0000000180027dd0 f   libconcrt:ResourceManager.obj
 0001:00026e38       ?Version@ResourceManager@details@Concurrency@@SA?AW4OSVersion@IResourceManager@3@XZ 0000000180027e38 f   libconcrt:ResourceManager.obj
 0001:00026eb8       ??0NumaInformation@SchedulerBase@details@Concurrency@@QEAA@XZ 0000000180027eb8 f i libconcrt:SchedulerBase.obj
 0001:00026ecc       ??0SchedulerBase@details@Concurrency@@QEAA@AEBVSchedulerPolicy@2@@Z 0000000180027ecc f   libconcrt:SchedulerBase.obj
 0001:000272d4       ??0improper_scheduler_attach@Concurrency@@QEAA@AEBV01@@Z 00000001800282d4 f i libconcrt:SchedulerBase.obj
 0001:00027314       ??0improper_scheduler_reference@Concurrency@@QEAA@AEBV01@@Z 0000000180028314 f i libconcrt:SchedulerBase.obj
 0001:00027354       ??1?$Hash@II@details@Concurrency@@QEAA@XZ 0000000180028354 f i libconcrt:SchedulerBase.obj
 0001:00027370       ??1?$ListArray@VExternalStatistics@details@Concurrency@@@details@Concurrency@@QEAA@XZ 0000000180028370 f i libconcrt:SchedulerBase.obj
 0001:00027464       ??1?$ListArray@VScheduleGroupBase@details@Concurrency@@@details@Concurrency@@QEAA@XZ 0000000180028464 f i libconcrt:SchedulerBase.obj
 0001:000275a8       ??1NumaInformation@SchedulerBase@details@Concurrency@@QEAA@XZ 00000001800285a8 f i libconcrt:SchedulerBase.obj
 0001:000275c8       ??1QuickBitSet@details@Concurrency@@QEAA@XZ 00000001800285c8 f i libconcrt:SchedulerBase.obj
 0001:000275d4       ??1ReferenceCountedQuickBitSet@details@Concurrency@@QEAA@XZ 00000001800285d4 f i libconcrt:SchedulerBase.obj
 0001:000275f4       ??1ScheduleGroup@Concurrency@@MEAA@XZ 00000001800285f4 f i libconcrt:SchedulerBase.obj
 0001:00027600       ??1Scheduler@Concurrency@@MEAA@XZ 0000000180028600 f i libconcrt:SchedulerBase.obj
 0001:0002760c       ??1SchedulerBase@details@Concurrency@@UEAA@XZ 000000018002860c f   libconcrt:SchedulerBase.obj
 0001:000276fc       ??1_Scoped_lock@_HyperNonReentrantLock@details@Concurrency@@QEAA@XZ 00000001800286fc f i libconcrt:SchedulerBase.obj
 0001:00027718       ??_GCacheLocalScheduleGroupSegment@details@Concurrency@@UEAAPEAXI@Z 0000000180028718 f i libconcrt:SchedulerBase.obj
 0001:00027718       ??_EFairScheduleGroupSegment@details@Concurrency@@UEAAPEAXI@Z 0000000180028718 f i libconcrt:SchedulerBase.obj
 0001:00027718       ??_GFairScheduleGroupSegment@details@Concurrency@@UEAAPEAXI@Z 0000000180028718 f i libconcrt:SchedulerBase.obj
 0001:00027718       ??_ECacheLocalScheduleGroupSegment@details@Concurrency@@UEAAPEAXI@Z 0000000180028718 f i libconcrt:SchedulerBase.obj
 0001:0002774c       ??_EFairScheduleGroup@details@Concurrency@@UEAAPEAXI@Z 000000018002874c f i libconcrt:SchedulerBase.obj
 0001:0002774c       ??_GFairScheduleGroup@details@Concurrency@@UEAAPEAXI@Z 000000018002874c f i libconcrt:SchedulerBase.obj
 0001:00027778       ??_ERealizedChore@details@Concurrency@@UEAAPEAXI@Z 0000000180028778 f i libconcrt:SchedulerBase.obj
 0001:00027778       ??_GRealizedChore@details@Concurrency@@UEAAPEAXI@Z 0000000180028778 f i libconcrt:SchedulerBase.obj
 0001:000277a4       ??_GScheduleGroup@Concurrency@@MEAAPEAXI@Z 00000001800287a4 f i libconcrt:SchedulerBase.obj
 0001:000277a4       ??_EScheduleGroup@Concurrency@@MEAAPEAXI@Z 00000001800287a4 f i libconcrt:SchedulerBase.obj
 0001:000277d0       ??_EScheduler@Concurrency@@MEAAPEAXI@Z 00000001800287d0 f i libconcrt:SchedulerBase.obj
 0001:000277d0       ??_GScheduler@Concurrency@@MEAAPEAXI@Z 00000001800287d0 f i libconcrt:SchedulerBase.obj
 0001:000277fc       ??_GSchedulerBase@details@Concurrency@@UEAAPEAXI@Z 00000001800287fc f i libconcrt:SchedulerBase.obj
 0001:000277fc       ??_ESchedulerBase@details@Concurrency@@UEAAPEAXI@Z 00000001800287fc f i libconcrt:SchedulerBase.obj
 0001:00027830       ??_E_Chore@details@Concurrency@@MEAAPEAXI@Z 0000000180028830 f i libconcrt:SchedulerBase.obj
 0001:00027830       ??_G_Chore@details@Concurrency@@MEAAPEAXI@Z 0000000180028830 f i libconcrt:SchedulerBase.obj
 0001:0002785c       ?Add@?$ListArray@VScheduleGroupBase@details@Concurrency@@@details@Concurrency@@QEAAHPEAVScheduleGroupBase@23@@Z 000000018002885c f i libconcrt:SchedulerBase.obj
 0001:000279d0       ?AddContext@SchedulerBase@details@Concurrency@@QEAAXPEAVInternalContextBase@23@@Z 00000001800289d0 f   libconcrt:SchedulerBase.obj
 0001:00027a28       ?AddTail@?$SafeRWList@VWaitNode@SchedulerBase@details@Concurrency@@VNoCount@CollectionTypes@34@V_ReaderWriterLock@34@@details@Concurrency@@QEAAXPEAVWaitNode@SchedulerBase@23@@Z 0000000180028a28 f i libconcrt:SchedulerBase.obj
 0001:00027a9c       ?AddVirtualProcessors@SchedulerBase@details@Concurrency@@IEAAXPEAPEAUIVirtualProcessorRoot@3@I@Z 0000000180028a9c f   libconcrt:SchedulerBase.obj
 0001:00027b90       ?AllocateSegment@CacheLocalScheduleGroup@details@Concurrency@@MEAAPEAVScheduleGroupSegmentBase@23@PEAVSchedulingRing@23@PEAVlocation@3@@Z 0000000180028b90 f i libconcrt:SchedulerBase.obj
 0001:00027c1c       ?AllocateSegment@FairScheduleGroup@details@Concurrency@@MEAAPEAVScheduleGroupSegmentBase@23@PEAVSchedulingRing@23@PEAVlocation@3@@Z 0000000180028c1c f i libconcrt:SchedulerBase.obj
 0001:00027cac       ?do_always_noconv@?$codecvt@DDU_Mbstatet@@@std@@MEBA_NXZ 0000000180028cac f i libcpmt:cout.obj
 0001:00027cac       ?AllowGeneralFetchOfReservedContexts@SchedulerBase@details@Concurrency@@MEAA_NXZ 0000000180028cac f i libconcrt:SchedulerBase.obj
 0001:00027cac       ?SweepWaitNode@SingleWaitBlock@details@Concurrency@@UEAA_NXZ 0000000180028cac f i libconcrt:event.obj
 0001:00027cac       __acrt_uninitialize_command_line 0000000180028cac f i libucrt:argv_data.obj
 0001:00027cb0       ?Attach@SchedulerBase@details@Concurrency@@UEAAXXZ 0000000180028cb0 f   libconcrt:SchedulerBase.obj
 0001:00027d18       ?AttachExternalContext@SchedulerBase@details@Concurrency@@AEAAPEAVExternalContextBase@23@_N@Z 0000000180028d18 f   libconcrt:SchedulerBase.obj
 0001:00027db0       ?AttemptSchedulerSweep@SchedulerBase@details@Concurrency@@IEAAXXZ 0000000180028db0 f   libconcrt:SchedulerBase.obj
 0001:00027dd4       ?CancelAllContexts@SchedulerBase@details@Concurrency@@MEAAXXZ 0000000180028dd4 f   libconcrt:SchedulerBase.obj
 0001:00027e34       ?ChangeThrottlingTimer@SchedulerBase@details@Concurrency@@AEAAXK@Z 0000000180028e34 f   libconcrt:SchedulerBase.obj
 0001:00027e98       ?CheckForDeletion@?$ListArray@VScheduleGroupBase@details@Concurrency@@@details@Concurrency@@AEAAXXZ 0000000180028e98 f i libconcrt:SchedulerBase.obj
 0001:00027f20       ?CheckForDeletionBridge@?$ListArray@VExternalStatistics@details@Concurrency@@@details@Concurrency@@CAXPEAV123@@Z 0000000180028f20 f i libconcrt:SchedulerBase.obj
 0001:00027f7c       ?CheckForDeletionBridge@?$ListArray@VScheduleGroupBase@details@Concurrency@@@details@Concurrency@@CAXPEAV123@@Z 0000000180028f7c f i libconcrt:SchedulerBase.obj
 0001:00027f84       ?CheckOneShotStaticDestruction@SchedulerBase@details@Concurrency@@SAXXZ 0000000180028f84 f   libconcrt:SchedulerBase.obj
 0001:00027fc4       ?CheckStaticConstruction@SchedulerBase@details@Concurrency@@CAXXZ 0000000180028fc4 f   libconcrt:SchedulerBase.obj
 0001:00028074       ?Cleanup@SchedulerBase@details@Concurrency@@AEAAXXZ 0000000180029074 f   libconcrt:SchedulerBase.obj
 0001:00028194       ?CommitSafePoints@SchedulerBase@details@Concurrency@@QEAAXXZ 0000000180029194 f   libconcrt:SchedulerBase.obj
 0001:000281fc       ?CommitToVersion@SchedulerBase@details@Concurrency@@AEAAXK@Z 00000001800291fc f   libconcrt:SchedulerBase.obj
 0001:000282d4       ?ComputeSafePointCommitVersion@SchedulerBase@details@Concurrency@@AEAAKXZ 00000001800292d4 f   libconcrt:SchedulerBase.obj
 0001:00028400       ?CopyFrom@QuickBitSet@details@Concurrency@@IEAAXAEBV123@@Z 0000000180029400 f i libconcrt:SchedulerBase.obj
 0001:00028484       ?CreateContextFromDefaultScheduler@SchedulerBase@details@Concurrency@@SAPEAVContextBase@23@XZ 0000000180029484 f   libconcrt:SchedulerBase.obj
 0001:000284d0       ?CreateScheduleGroup@SchedulerBase@details@Concurrency@@UEAAPEAVScheduleGroup@3@AEAVlocation@3@@Z 00000001800294d0 f i libconcrt:SchedulerBase.obj
 0001:000284d8       ?CreateScheduleGroup@SchedulerBase@details@Concurrency@@UEAAPEAVScheduleGroup@3@XZ 00000001800294d8 f i libconcrt:SchedulerBase.obj
 0001:00028500       ?CreateWithoutInitializing@SchedulerBase@details@Concurrency@@SAPEAV123@AEBVSchedulerPolicy@3@@Z 0000000180029500 f   libconcrt:SchedulerBase.obj
 0001:00028530       ?DecrementInternalContextCount@SchedulerBase@details@Concurrency@@QEAAXXZ 0000000180029530 f   libconcrt:SchedulerBase.obj
 0001:00028550       ?DeferredGetInternalContext@SchedulerBase@details@Concurrency@@QEAAXXZ 0000000180029550 f   libconcrt:SchedulerBase.obj
 0001:0002857c       ?Dequeue@?$SafeSQueue@VInternalContextBase@details@Concurrency@@V_HyperNonReentrantLock@23@@details@Concurrency@@QEAAPEAVInternalContextBase@23@XZ 000000018002957c f i libconcrt:SchedulerBase.obj
 0001:000285e0       ?DestroySchedulerEventHandlers@SchedulerBase@details@Concurrency@@MEAAXXZ 00000001800295e0 f   libconcrt:SchedulerBase.obj
 0001:00028650       ?DetachExternalContext@SchedulerBase@details@Concurrency@@AEAAXPEAVExternalContextBase@23@_N@Z 0000000180029650 f   libconcrt:SchedulerBase.obj
 0001:000286b4       ?FastCurrentContext@SchedulerBase@details@Concurrency@@SAPEAVContextBase@23@XZ 00000001800296b4 f   libconcrt:SchedulerBase.obj
 0001:000286c0       ?FastCurrentScheduler@SchedulerBase@details@Concurrency@@SAPEAV123@XZ 00000001800296c0 f   libconcrt:SchedulerBase.obj
 0001:000286e4       ?Fill@QuickBitSet@details@Concurrency@@QEAAXXZ 00000001800296e4 f i libconcrt:SchedulerBase.obj
 0001:00028770       ?Finalize@SchedulerBase@details@Concurrency@@AEAAXXZ 0000000180029770 f   libconcrt:SchedulerBase.obj
 0001:00028934       ?Find@?$Hash@II@details@Concurrency@@QEAAPEAUListNode@123@AEBIPEAI@Z 0000000180029934 f i libconcrt:SchedulerBase.obj
 0001:000289b0       ?FindCurrentNode@SchedulerBase@details@Concurrency@@QEAAPEAVSchedulingNode@23@XZ 00000001800299b0 f   libconcrt:SchedulerBase.obj
 0001:00028a14       ?FindNodeByLocation@SchedulerBase@details@Concurrency@@QEAAPEAVSchedulingNode@23@PEAVlocation@3@@Z 0000000180029a14 f   libconcrt:SchedulerBase.obj
 0001:00028a7c       ?FindScheduleGroupSegment@SchedulingRing@details@Concurrency@@AEAAPEAVScheduleGroupSegmentBase@23@HHPEAHPEAV?$ListArray@VScheduleGroupSegmentBase@details@Concurrency@@@23@@Z 0000000180029a7c f i libconcrt:SchedulerBase.obj
 0001:00028b14       ?FindVirtualProcessor@SchedulingNode@details@Concurrency@@QEAAPEAVVirtualProcessor@23@HHPEAH@Z 0000000180029b14 f i libconcrt:SchedulerBase.obj
 0001:00028bc0       ?FoundAvailableVirtualProcessor@SchedulerBase@details@Concurrency@@QEAA_NAEAVClaimTicket@VirtualProcessor@23@Vlocation@3@K@Z 0000000180029bc0 f   libconcrt:SchedulerBase.obj
 0001:00028d54       ?FoundBlockedContexts@SchedulerBase@details@Concurrency@@AEAA_NXZ 0000000180029d54 f   libconcrt:SchedulerBase.obj
 0001:00028d88       ?FoundUnstartedChores@SchedulerBase@details@Concurrency@@AEAA_NXZ 0000000180029d88 f   libconcrt:SchedulerBase.obj
 0001:00028f58       ?GetAnonymousScheduleGroupSegment@SchedulerBase@details@Concurrency@@QEAAPEAVScheduleGroupSegmentBase@23@XZ 0000000180029f58 f   libconcrt:SchedulerBase.obj
 0001:00028f6c       ?GetBitSet@SchedulerBase@details@Concurrency@@QEAA?AVQuickBitSet@23@PEBVlocation@3@@Z 0000000180029f6c f   libconcrt:SchedulerBase.obj
 0001:00029074       ?GetDefaultScheduler@SchedulerBase@details@Concurrency@@CAPEAV123@XZ 000000018002a074 f   libconcrt:SchedulerBase.obj
 0001:00029160       ?GetExternalContext@SchedulerBase@details@Concurrency@@AEAAPEAVExternalContextBase@23@_N@Z 000000018002a160 f   libconcrt:SchedulerBase.obj
 0001:000291e0       ?GetInternalContext@SchedulerBase@details@Concurrency@@QEAAPEAVInternalContextBase@23@_N@Z 000000018002a1e0 f   libconcrt:SchedulerBase.obj
 0001:00029330       ?GetNewContextId@SchedulerBase@details@Concurrency@@QEAAIXZ 000000018002a330 f   libconcrt:SchedulerBase.obj
 0001:00029340       ?GetNewScheduleGroupId@SchedulerBase@details@Concurrency@@QEAAIXZ 000000018002a340 f   libconcrt:SchedulerBase.obj
 0001:00029350       ?GetNewWorkQueueId@SchedulerBase@details@Concurrency@@SAIXZ 000000018002a350 f   libconcrt:SchedulerBase.obj
 0001:00029360       ?GetNextPriorityObject@SchedulerBase@details@Concurrency@@QEAAPEAUBoostedObject@23@XZ 000000018002a360 f   libconcrt:SchedulerBase.obj
 0001:000293e4       ?GetNextScheduleGroupSegment@SchedulingRing@details@Concurrency@@AEAAPEAVScheduleGroupSegmentBase@23@PEAHHPEAV?$ListArray@VScheduleGroupSegmentBase@details@Concurrency@@@23@@Z 000000018002a3e4 f i libconcrt:SchedulerBase.obj
 0001:0002945c       ?GetNextSchedulingRing@SchedulerBase@details@Concurrency@@QEAAPEAVSchedulingRing@23@PEBV423@PEAV423@@Z 000000018002a45c f   libconcrt:SchedulerBase.obj
 0001:0002949c       ?GetNextSchedulingRing@SchedulerBase@details@Concurrency@@QEAAPEAVSchedulingRing@23@XZ 000000018002a49c f   libconcrt:SchedulerBase.obj
 0001:000294d8       ?GetPolicy@SchedulerBase@details@Concurrency@@UEBA?AVSchedulerPolicy@3@XZ 000000018002a4d8 f   libconcrt:SchedulerBase.obj
 0001:000294fc       ?GetRealizedChore@SchedulerBase@details@Concurrency@@QEAAPEAVRealizedChore@23@P6AXPEAX@Z0@Z 000000018002a4fc f   libconcrt:SchedulerBase.obj
 0001:00029560       ?GetRunnableContext@CacheLocalScheduleGroupSegment@details@Concurrency@@EEAAPEAVInternalContextBase@23@XZ 000000018002a560 f i libconcrt:SchedulerBase.obj
 0001:00029560       ?GetRunnableContext@FairScheduleGroupSegment@details@Concurrency@@EEAAPEAVInternalContextBase@23@XZ 000000018002a560 f i libconcrt:SchedulerBase.obj
 0001:00029578       ?GetSubAllocator@SchedulerBase@details@Concurrency@@SAPEAVSubAllocator@23@_N@Z 000000018002a578 f   libconcrt:SchedulerBase.obj
 0001:0002961c       ?GetValidSchedulingRingIndex@SchedulerBase@details@Concurrency@@AEAAHH@Z 000000018002a61c f   libconcrt:SchedulerBase.obj
 0001:00029654       ?Grow@QuickBitSet@details@Concurrency@@QEAAXI@Z 000000018002a654 f i libconcrt:SchedulerBase.obj
 0001:000296fc       ?Grow@ReferenceCountedQuickBitSet@details@Concurrency@@QEAAXI@Z 000000018002a6fc f i libconcrt:SchedulerBase.obj
 0001:000297a0       ?HasCompletedShutdown@SchedulerBase@details@Concurrency@@QEAA_NXZ 000000018002a7a0 f   libconcrt:SchedulerBase.obj
 0001:000297b4       ?Id@ScheduleGroupBase@details@Concurrency@@UEBAIXZ 000000018002a7b4 f i libconcrt:SchedulerBase.obj
 0001:000297b4       ?GetId@InternalContextBase@details@Concurrency@@UEBAIXZ 000000018002a7b4 f i libconcrt:InternalContextBase.obj
 0001:000297b8       ?Id@SchedulerBase@details@Concurrency@@UEBAIXZ 000000018002a7b8 f i libconcrt:SchedulerBase.obj
 0001:000297c0       ?Initialize@SchedulerBase@details@Concurrency@@AEAAXXZ 000000018002a7c0 f   libconcrt:SchedulerBase.obj
 0001:00029d84       ?InitializeSchedulerEventHandlers@SchedulerBase@details@Concurrency@@MEAAXXZ 000000018002ad84 f   libconcrt:SchedulerBase.obj
 0001:00029d8c       ?Insert@?$Hash@II@details@Concurrency@@QEAAPEAUListNode@123@AEBI0@Z 000000018002ad8c f i libconcrt:SchedulerBase.obj
 0001:00029e68       ?InternalCreateScheduleGroup@SchedulerBase@details@Concurrency@@AEAAPEAVScheduleGroup@3@PEAVlocation@3@@Z 000000018002ae68 f   libconcrt:SchedulerBase.obj
 0001:00029f78       ?InternalRelease@ScheduleGroupBase@details@Concurrency@@IEAAJXZ 000000018002af78 f i libconcrt:SchedulerBase.obj
 0001:00029fe4       ?InvokeAtNextSafePoint@SafePointInvocation@details@Concurrency@@QEAAXP6AXPEAX@Z0PEAVSchedulerBase@23@@Z 000000018002afe4 f   libconcrt:SchedulerBase.obj
 0001:0002a030       ?InvokeOnSafePoint@SchedulerBase@details@Concurrency@@AEAAXPEAVSafePointInvocation@23@@Z 000000018002b030 f   libconcrt:SchedulerBase.obj
 0001:0002a0a8       ?IsAvailableLocation@SchedulerBase@details@Concurrency@@UEBA_NAEBVlocation@3@@Z 000000018002b0a8 f   libconcrt:SchedulerBase.obj
 0001:0002a10c       ?MailChore@FairScheduleGroup@details@Concurrency@@UEAA?AVSlot@?$Mailbox@V_UnrealizedChore@details@Concurrency@@@23@PEAV_UnrealizedChore@23@PEAVlocation@3@PEAPEAVScheduleGroupSegmentBase@23@@Z 000000018002b10c f i libconcrt:SchedulerBase.obj
 0001:0002a118       ?MarkSafePoint@SchedulerBase@details@Concurrency@@QEAA_NPEAVSafePointMarker@23@@Z 000000018002b118 f   libconcrt:SchedulerBase.obj
 0001:0002a130       ?NotifyThrottledContext@SchedulerBase@details@Concurrency@@AEAA_NPEAVInternalContextBase@23@@Z 000000018002b130 f   libconcrt:SchedulerBase.obj
 0001:0002a1d8       ?PerformServiceScan@SchedulerBase@details@Concurrency@@AEAAX_K@Z 000000018002b1d8 f   libconcrt:SchedulerBase.obj
 0001:0002a4b0       ?PhaseOneShutdown@SchedulerBase@details@Concurrency@@AEAAXXZ 000000018002b4b0 f   libconcrt:SchedulerBase.obj
 0001:0002a58c       ?PhaseTwoShutdown@SchedulerBase@details@Concurrency@@AEAAXXZ 000000018002b58c f   libconcrt:SchedulerBase.obj
 0001:0002a674       ?PushRunnableToInactive@SchedulerBase@details@Concurrency@@UEAA_NPEAVInternalContextBase@23@Vlocation@3@@Z 000000018002b674 f   libconcrt:SchedulerBase.obj
 0001:0002a738       ?Reference@ScheduleGroupBase@details@Concurrency@@UEAAIXZ 000000018002b738 f i libconcrt:SchedulerBase.obj
 0001:0002a750       ?Reference@SchedulerBase@details@Concurrency@@UEAAIXZ 000000018002b750 f   libconcrt:SchedulerBase.obj
 0001:0002a7dc       ?ReferenceForAttach@SchedulerBase@details@Concurrency@@IEAAXXZ 000000018002b7dc f   libconcrt:SchedulerBase.obj
 0001:0002a814       ?RegisterShutdownEvent@SchedulerBase@details@Concurrency@@UEAAXPEAX@Z 000000018002b814 f   libconcrt:SchedulerBase.obj
 0001:0002a900       ?Release@ScheduleGroupBase@details@Concurrency@@UEAAIXZ 000000018002b900 f i libconcrt:SchedulerBase.obj
 0001:0002a908       ?Release@SchedulerBase@details@Concurrency@@UEAAIXZ 000000018002b908 f   libconcrt:SchedulerBase.obj
 0001:0002a92c       ?ReleaseExternalContext@SchedulerBase@details@Concurrency@@AEAAXPEAVExternalContextBase@23@@Z 000000018002b92c f   libconcrt:SchedulerBase.obj
 0001:0002a9a4       ?ReleaseForDetach@SchedulerBase@details@Concurrency@@IEAAXXZ 000000018002b9a4 f   libconcrt:SchedulerBase.obj
 0001:0002a9dc       ?ReleaseInternalContext@SchedulerBase@details@Concurrency@@QEAAXPEAVInternalContextBase@23@_N@Z 000000018002b9dc f   libconcrt:SchedulerBase.obj
 0001:0002aa48       ?ReleaseRealizedChore@SchedulerBase@details@Concurrency@@QEAAXPEAVRealizedChore@23@@Z 000000018002ba48 f   libconcrt:SchedulerBase.obj
 0001:0002aab8       ?ReleaseReservedContexts@SchedulerBase@details@Concurrency@@QEAAXXZ 000000018002bab8 f   libconcrt:SchedulerBase.obj
 0001:0002ab54       ?Remove@?$ListArray@VExternalStatistics@details@Concurrency@@@details@Concurrency@@QEAA_NPEAVExternalStatistics@23@H_N@Z 000000018002bb54 f i libconcrt:SchedulerBase.obj
 0001:0002aca8       ?Remove@?$ListArray@VScheduleGroupBase@details@Concurrency@@@details@Concurrency@@QEAA_NPEAVScheduleGroupBase@23@H_N@Z 000000018002bca8 f i libconcrt:SchedulerBase.obj
 0001:0002adfc       ?RemoveHead@?$SafeRWList@VWaitNode@SchedulerBase@details@Concurrency@@VNoCount@CollectionTypes@34@V_ReaderWriterLock@34@@details@Concurrency@@QEAAPEAVWaitNode@SchedulerBase@23@XZ 000000018002bdfc f i libconcrt:SchedulerBase.obj
 0001:0002ae68       ?RemovePrioritizedObject@SchedulerBase@details@Concurrency@@QEAAXPEAUBoostedObject@23@@Z 000000018002be68 f   libconcrt:SchedulerBase.obj
 0001:0002aee8       ?RemoveScheduleGroup@SchedulerBase@details@Concurrency@@QEAAXPEAVScheduleGroupBase@23@@Z 000000018002bee8 f   libconcrt:SchedulerBase.obj
 0001:0002aefc       ?RemoveSegments@FairScheduleGroup@details@Concurrency@@MEAAXXZ 000000018002befc f i libconcrt:SchedulerBase.obj
 0001:0002af18       ?RemoveVirtualProcessors@SchedulerBase@details@Concurrency@@IEAAXPEAPEAUIVirtualProcessorRoot@3@I@Z 000000018002bf18 f   libconcrt:SchedulerBase.obj
 0001:0002b040       ?Resurrect@SchedulerBase@details@Concurrency@@AEAAXXZ 000000018002c040 f   libconcrt:SchedulerBase.obj
 0001:0002b0c8       ?ReturnSubAllocator@SchedulerBase@details@Concurrency@@SAXPEAVSubAllocator@23@@Z 000000018002c0c8 f   libconcrt:SchedulerBase.obj
 0001:0002b140       ?SafeFastCurrentContext@SchedulerBase@details@Concurrency@@SAPEAVContextBase@23@XZ 000000018002c140 f   libconcrt:SchedulerBase.obj
 0001:0002b15c       ?SafeReference@SchedulerBase@details@Concurrency@@AEAA_NXZ 000000018002c15c f   libconcrt:SchedulerBase.obj
 0001:0002b180       ?ScheduleTask@SchedulerBase@details@Concurrency@@UEAAXP6AXPEAX@Z0@Z 000000018002c180 f   libconcrt:SchedulerBase.obj
 0001:0002b204       ?ScheduleTask@SchedulerBase@details@Concurrency@@UEAAXP6AXPEAX@Z0AEAVlocation@3@@Z 000000018002c204 f   libconcrt:SchedulerBase.obj
 0001:0002b288       ?SetNextSchedulingRing@SchedulerBase@details@Concurrency@@QEAAXPEAVSchedulingRing@23@@Z 000000018002c288 f   libconcrt:SchedulerBase.obj
 0001:0002b2bc       ?StartupNewVirtualProcessor@SchedulerBase@details@Concurrency@@UEAAXPEAVScheduleGroupSegmentBase@23@Vlocation@3@@Z 000000018002c2bc f i libconcrt:SchedulerBase.obj
 0001:0002b318       ?StartupVirtualProcessor@SchedulerBase@details@Concurrency@@QEAA_NPEAVScheduleGroupSegmentBase@23@Vlocation@3@K@Z 000000018002c318 f   libconcrt:SchedulerBase.obj
 0001:0002b3d4       ?StaticDestruction@SchedulerBase@details@Concurrency@@CAXXZ 000000018002c3d4 f   libconcrt:SchedulerBase.obj
 0001:0002b488       ?Statistics@SchedulerBase@details@Concurrency@@IEAAXPEAI00@Z 000000018002c488 f   libconcrt:SchedulerBase.obj
 0001:0002b6e4       ?SweepSchedulerForFinalize@SchedulerBase@details@Concurrency@@AEAAXXZ 000000018002c6e4 f   libconcrt:SchedulerBase.obj
 0001:0002b7c8       ?ThrottlerDispatch@SchedulerBase@details@Concurrency@@AEAAXXZ 000000018002c7c8 f   libconcrt:SchedulerBase.obj
 0001:0002b924       ?ThrottlerDispatchBridge@SchedulerBase@details@Concurrency@@CAXPEAU_TP_CALLBACK_INSTANCE@@PEAXPEAU_TP_TIMER@@@Z 000000018002c924 f i libconcrt:SchedulerBase.obj
 0001:0002b92c       ?ThrottlerDispatchBridgeXP@SchedulerBase@details@Concurrency@@CAXPEAXE@Z 000000018002c92c f i libconcrt:SchedulerBase.obj
 0001:0002b934       ?ThrottlerTrampoline@SchedulerBase@details@Concurrency@@CAXPEAXE@Z 000000018002c934 f   libconcrt:SchedulerBase.obj
 0001:0002b97c       ?ThrottlingTime@SchedulerBase@details@Concurrency@@QEAAKK@Z 000000018002c97c f   libconcrt:SchedulerBase.obj
 0001:0002ba4c       ?ThrowSchedulerEvent@SchedulerBase@details@Concurrency@@CAXW4ConcRT_EventType@3@EI@Z 000000018002ca4c f   libconcrt:SchedulerBase.obj
 0001:0002bad4       ?TriggerCommitSafePoints@SchedulerBase@details@Concurrency@@QEAAXPEAVSafePointMarker@23@@Z 000000018002cad4 f   libconcrt:SchedulerBase.obj
 0001:0002bb34       ?TypeOfWorkPending@SchedulerBase@details@Concurrency@@MEAA?AW4PendingWorkType@123@XZ 000000018002cb34 f   libconcrt:SchedulerBase.obj
 0001:0002bb7c       ?UpdateCommitVersion@SchedulerBase@details@Concurrency@@AEAAKK@Z 000000018002cb7c f   libconcrt:SchedulerBase.obj
 0001:0002bbc8       ?UpdatePendingVersion@SchedulerBase@details@Concurrency@@AEAAKXZ 000000018002cbc8 f   libconcrt:SchedulerBase.obj
 0001:0002bc0c       ?VirtualProcessorActive@SchedulerBase@details@Concurrency@@QEAA_N_N@Z 000000018002cc0c f   libconcrt:SchedulerBase.obj
 0001:0002bd14       ?VirtualProcessorIdle@SchedulerBase@details@Concurrency@@QEAAX_N@Z 000000018002cd14 f   libconcrt:SchedulerBase.obj
 0001:0002bd88       ?Wipe@?$Hash@II@details@Concurrency@@QEAAXXZ 000000018002cd88 f i libconcrt:SchedulerBase.obj
 0001:0002be08       ??0MultiWaitBlock@details@Concurrency@@QEAA@_K_N1@Z 000000018002ce08 f i libconcrt:event.obj
 0001:0002bea4       ??0MultiWaitBlockHolder@details@Concurrency@@QEAA@_N_K00@Z 000000018002cea4 f   libconcrt:event.obj
 0001:0002bfac       ??0_Condition_variable@details@Concurrency@@QEAA@XZ 000000018002cfac f   libconcrt:event.obj
 0001:0002bfd0       ??0event@Concurrency@@QEAA@XZ 000000018002cfd0 f   libconcrt:event.obj
 0001:0002bff8       ??1?$_MallocaArrayHolder@PEAVContext@Concurrency@@@details@Concurrency@@UEAA@XZ 000000018002cff8 f i libconcrt:event.obj
 0001:0002c028       ??1MultiWaitBlockHolder@details@Concurrency@@QEAA@XZ 000000018002d028 f   libconcrt:event.obj
 0001:0002c05c       ??1_Condition_variable@details@Concurrency@@QEAA@XZ 000000018002d05c f   libconcrt:event.obj
 0001:0002c09c       ??1event@Concurrency@@QEAA@XZ 000000018002d09c f   libconcrt:event.obj
 0001:0002c168       ??_G?$_MallocaArrayHolder@PEAVContext@Concurrency@@@details@Concurrency@@UEAAPEAXI@Z 000000018002d168 f i libconcrt:event.obj
 0001:0002c168       ??_E?$_MallocaArrayHolder@PEAVContext@Concurrency@@@details@Concurrency@@UEAAPEAXI@Z 000000018002d168 f i libconcrt:event.obj
 0001:0002c1bc       ?Destroy@TimedSingleWaitBlock@details@Concurrency@@UEAAXXZ 000000018002d1bc f   libconcrt:event.obj
 0001:0002c1e0       ?Destroy@WaitAllBlock@details@Concurrency@@UEAAXXZ 000000018002d1e0 f   libconcrt:event.obj
 0001:0002c1e8       ?DispatchEventTimer@MultiWaitBlock@details@Concurrency@@SAXPEAU_TP_CALLBACK_INSTANCE@@PEAXPEAU_TP_TIMER@@@Z 000000018002d1e8 f   libconcrt:event.obj
 0001:0002c278       ?DispatchEventTimer@TimedSingleWaitBlock@details@Concurrency@@SAXPEAU_TP_CALLBACK_INSTANCE@@PEAXPEAU_TP_TIMER@@@Z 000000018002d278 f   libconcrt:event.obj
 0001:0002c2d4       ?DispatchEventTimerXP@MultiWaitBlock@details@Concurrency@@SAXPEAXE@Z 000000018002d2d4 f   libconcrt:event.obj
 0001:0002c348       ?DispatchEventTimerXP@TimedSingleWaitBlock@details@Concurrency@@SAXPEAXE@Z 000000018002d348 f   libconcrt:event.obj
 0001:0002c37c       ?GetSharedTimerQueue@details@Concurrency@@YAPEAXXZ 000000018002d37c f   libconcrt:event.obj
 0001:0002c430       ?NotifyCompletedNode@MultiWaitBlock@details@Concurrency@@QEAAXXZ 000000018002d430 f   libconcrt:event.obj
 0001:0002c458       ?Reset@WaitAllBlock@details@Concurrency@@UEAA_NXZ 000000018002d458 f   libconcrt:event.obj
 0001:0002c498       ?Satisfy@SingleWaitBlock@details@Concurrency@@UEAA_NPEAPEAVContext@3@PEAVEventWaitNode@23@@Z 000000018002d498 f   libconcrt:event.obj
 0001:0002c504       ?Satisfy@TimedSingleWaitBlock@details@Concurrency@@UEAA_NPEAPEAVContext@3@PEAVEventWaitNode@23@@Z 000000018002d504 f   libconcrt:event.obj
 0001:0002c5c0       ?Satisfy@WaitAllBlock@details@Concurrency@@UEAA_NPEAPEAVContext@3@PEAVEventWaitNode@23@@Z 000000018002d5c0 f   libconcrt:event.obj
 0001:0002c63c       ?Satisfy@WaitAnyBlock@details@Concurrency@@UEAA_NPEAPEAVContext@3@PEAVEventWaitNode@23@@Z 000000018002d63c f   libconcrt:event.obj
 0001:0002c6b4       ?Set@StructuredEvent@details@Concurrency@@QEAAXXZ 000000018002d6b4 f   libconcrt:event.obj
 0001:0002c720       ?SingleSatisfy@MultiWaitBlock@details@Concurrency@@MEAAXPEAPEAVContext@3@PEAVEventWaitNode@23@@Z 000000018002d720 f   libconcrt:event.obj
 0001:0002c80c       ?Sweep@details@Concurrency@@YAPEAVEventWaitNode@12@PEAV312@_N@Z 000000018002d80c f   libconcrt:event.obj
 0001:0002c888       ?SweepResetNode@SingleWaitBlock@details@Concurrency@@UEAA_NXZ 000000018002d888 f   libconcrt:event.obj
 0001:0002c888       ?SweepResetNode@WaitAnyBlock@details@Concurrency@@UEAA_NXZ 000000018002d888 f   libconcrt:event.obj
 0001:0002c888       ?Destroy@SingleWaitBlock@details@Concurrency@@UEAAXXZ 000000018002d888 f   libconcrt:event.obj
 0001:0002c888       ?Reset@WaitAnyBlock@details@Concurrency@@UEAA_NXZ 000000018002d888 f   libconcrt:event.obj
 0001:0002c888       ?Reset@SingleWaitBlock@details@Concurrency@@UEAA_NXZ 000000018002d888 f   libconcrt:event.obj
 0001:0002c88c       ?SweepResetNode@WaitAllBlock@details@Concurrency@@UEAA_NXZ 000000018002d88c f   libconcrt:event.obj
 0001:0002c8dc       ?SweepWaitNode@TimedSingleWaitBlock@details@Concurrency@@UEAA_NXZ 000000018002d8dc f   libconcrt:event.obj
 0001:0002c918       ?SweepWaitNode@WaitAllBlock@details@Concurrency@@UEAA_NXZ 000000018002d918 f   libconcrt:event.obj
 0001:0002c970       ?SweepWaitNode@WaitAnyBlock@details@Concurrency@@UEAA_NXZ 000000018002d970 f   libconcrt:event.obj
 0001:0002c9c0       ?createTimer@TimedSingleWaitBlock@details@Concurrency@@QEAA_NI@Z 000000018002d9c0 f i libconcrt:event.obj
 0001:0002ca4c       ?notify_all@_Condition_variable@details@Concurrency@@QEAAXXZ 000000018002da4c f   libconcrt:event.obj
 0001:0002cb10       ?notify_one@_Condition_variable@details@Concurrency@@QEAAXXZ 000000018002db10 f   libconcrt:event.obj
 0001:0002cc10       ?set@event@Concurrency@@QEAAXXZ 000000018002dc10 f   libconcrt:event.obj
 0001:0002ce34       ?wait@_Condition_variable@details@Concurrency@@QEAAXAEAVcritical_section@3@@Z 000000018002de34 f   libconcrt:event.obj
 0001:0002cf00       ?wait@event@Concurrency@@QEAA_KI@Z 000000018002df00 f   libconcrt:event.obj
 0001:0002d02c       ?wait_for@_Condition_variable@details@Concurrency@@QEAA_NAEAVcritical_section@3@I@Z 000000018002e02c f   libconcrt:event.obj
 0001:0002d178       ?wait_for_multiple@event@Concurrency@@SA_KPEAPEAV12@_K_NI@Z 000000018002e178 f   libconcrt:event.obj
 0001:0002d518       ??0ContextBase@details@Concurrency@@QEAA@PEAVSchedulerBase@12@_N@Z 000000018002e518 f   libconcrt:ContextBase.obj
 0001:0002d680       ??1?$Hash@PEAV_TaskCollection@details@Concurrency@@PEAV123@@details@Concurrency@@QEAA@XZ 000000018002e680 f i libconcrt:ContextBase.obj
 0001:0002d69c       ??1?$StructuredWorkStealingQueue@V_UnrealizedChore@details@Concurrency@@V_CriticalNonReentrantLock@23@@details@Concurrency@@QEAA@XZ 000000018002e69c f i libconcrt:ContextBase.obj
 0001:0002d6bc       ??1?$WorkStealingQueue@V_UnrealizedChore@details@Concurrency@@V_CriticalNonReentrantLock@23@@details@Concurrency@@QEAA@XZ 000000018002e6bc f i libconcrt:ContextBase.obj
 0001:0002d6dc       ??1CancellationBeaconStack@ContextBase@details@Concurrency@@QEAA@XZ 000000018002e6dc f i libconcrt:ContextBase.obj
 0001:0002d73c       ??1Context@Concurrency@@MEAA@XZ 000000018002e73c f i libconcrt:ContextBase.obj
 0001:0002d748       ??1ContextBase@details@Concurrency@@UEAA@XZ 000000018002e748 f i libconcrt:ContextBase.obj
 0001:0002d7d4       ??1_Scoped_lock@_CriticalNonReentrantLock@details@Concurrency@@QEAA@XZ 000000018002e7d4 f i libconcrt:ContextBase.obj
 0001:0002d7f0       ??1_Scoped_lock_read@?$SafeRWList@UListEntry@details@Concurrency@@VNoCount@CollectionTypes@23@V_ReaderWriterLock@23@@details@Concurrency@@QEAA@XZ 000000018002e7f0 f i libconcrt:ContextBase.obj
 0001:0002d810       ??_GContext@Concurrency@@MEAAPEAXI@Z 000000018002e810 f i libconcrt:ContextBase.obj
 0001:0002d810       ??_EContext@Concurrency@@MEAAPEAXI@Z 000000018002e810 f i libconcrt:ContextBase.obj
 0001:0002d83c       ??_GContextBase@details@Concurrency@@UEAAPEAXI@Z 000000018002e83c f i libconcrt:ContextBase.obj
 0001:0002d83c       ??_EContextBase@details@Concurrency@@UEAAPEAXI@Z 000000018002e83c f i libconcrt:ContextBase.obj
 0001:0002d870       ?Add@?$ListArray@VWorkQueue@details@Concurrency@@@details@Concurrency@@QEAAHPEAVWorkQueue@23@@Z 000000018002e870 f i libconcrt:ContextBase.obj
 0001:0002d9e8       ?AddStealer@ContextBase@details@Concurrency@@QEAAXPEAV123@_N@Z 000000018002e9e8 f   libconcrt:ContextBase.obj
 0001:0002da38       ?AddTail@?$SafeRWList@UListEntry@details@Concurrency@@VNoCount@CollectionTypes@23@V_ReaderWriterLock@23@@details@Concurrency@@QEAAXPEAUListEntry@23@@Z 000000018002ea38 f i libconcrt:ContextBase.obj
 0001:0002dab0       ?CancelCollection@ContextBase@details@Concurrency@@QEAAXH@Z 000000018002eab0 f   libconcrt:ContextBase.obj
 0001:0002db20       ?CancelCollectionComplete@ContextBase@details@Concurrency@@QEAA_NH@Z 000000018002eb20 f   libconcrt:ContextBase.obj
 0001:0002db5c       ?CancelStealers@ContextBase@details@Concurrency@@QEAAXPEAV_TaskCollectionBase@23@@Z 000000018002eb5c f   libconcrt:ContextBase.obj
 0001:0002dc5c       ?CheckForDeletion@?$ListArray@VWorkQueue@details@Concurrency@@@details@Concurrency@@AEAAXXZ 000000018002ec5c f i libconcrt:ContextBase.obj
 0001:0002dcec       ?CheckForDeletionBridge@?$ListArray@VWorkQueue@details@Concurrency@@@details@Concurrency@@CAXPEAV123@@Z 000000018002ecec f i libconcrt:ContextBase.obj
 0001:0002dcf4       ?Claim@Slot@?$Mailbox@V_UnrealizedChore@details@Concurrency@@@details@Concurrency@@QEAA_NPEAPEAV_UnrealizedChore@34@@Z 000000018002ecf4 f i libconcrt:ContextBase.obj
 0001:0002dd64       ?Cleanup@ContextBase@details@Concurrency@@QEAAXXZ 000000018002ed64 f   libconcrt:ContextBase.obj
 0001:0002ddd0       ?ClearAliasTable@ContextBase@details@Concurrency@@QEAAXXZ 000000018002edd0 f   libconcrt:ContextBase.obj
 0001:0002de98       ?ClearContextTls@ContextBase@details@Concurrency@@AEAAXXZ 000000018002ee98 f   libconcrt:ContextBase.obj
 0001:0002dea8       ?CreateWorkQueue@ContextBase@details@Concurrency@@QEAAXXZ 000000018002eea8 f   libconcrt:ContextBase.obj
 0001:0002df4c       ?DetachStealers@ContextBase@details@Concurrency@@QEAAXXZ 000000018002ef4c f   libconcrt:ContextBase.obj
 0001:0002e130       ?EnterCriticalRegionHelper@ContextBase@details@Concurrency@@UEAAHXZ 000000018002f130 f i libconcrt:ContextBase.obj
 0001:0002e13c       ?EnterHyperCriticalRegionHelper@ContextBase@details@Concurrency@@UEAAHXZ 000000018002f13c f i libconcrt:ContextBase.obj
 0001:0002e148       ?ExitCriticalRegionHelper@ContextBase@details@Concurrency@@UEAAHXZ 000000018002f148 f i libconcrt:ContextBase.obj
 0001:0002e154       ?ExitHyperCriticalRegionHelper@ContextBase@details@Concurrency@@UEAAHXZ 000000018002f154 f i libconcrt:ContextBase.obj
 0001:0002e160       ?FindAndDelete@?$Hash@PEAV_TaskCollection@details@Concurrency@@PEAV123@@details@Concurrency@@QEAA_NAEBQEAV_TaskCollection@23@PEAPEAV423@@Z 000000018002f160 f i libconcrt:ContextBase.obj
 0001:0002e20c       ?FlagCancellationBeacons@ContextBase@details@Concurrency@@QEAAXH@Z 000000018002f20c f   libconcrt:ContextBase.obj
 0001:0002e288       ?GetCriticalRegionType@ContextBase@details@Concurrency@@UEBA?AW4CriticalRegionType@3@XZ 000000018002f288 f i libconcrt:ContextBase.obj
 0001:0002e29c       ?GetId@ContextBase@details@Concurrency@@UEBAIXZ 000000018002f29c f   libconcrt:ContextBase.obj
 0001:0002e2a0       ?GetIndirectAlias@ContextBase@details@Concurrency@@QEBAPEAV_TaskCollection@23@XZ 000000018002f2a0 f   libconcrt:ContextBase.obj
 0001:0002e2a8       ?GetScheduleGroup@ContextBase@details@Concurrency@@QEBAPEAVScheduleGroupBase@23@XZ 000000018002f2a8 f   libconcrt:ContextBase.obj
 0001:0002e2bc       ?GetScheduleGroupId@ContextBase@details@Concurrency@@UEBAIXZ 000000018002f2bc f   libconcrt:ContextBase.obj
 0001:0002e2fc       ?GetScheduleGroupSegment@ContextBase@details@Concurrency@@QEBAPEAVScheduleGroupSegmentBase@23@XZ 000000018002f2fc f   libconcrt:ContextBase.obj
 0001:0002e304       ?GetScheduler@ContextBase@details@Concurrency@@QEBAPEAVSchedulerBase@23@XZ 000000018002f304 f   libconcrt:ContextBase.obj
 0001:0002e30c       ?IsCanceledAtDepth@ContextBase@details@Concurrency@@AEAA_NPEAV_TaskCollectionBase@23@H@Z 000000018002f30c f   libconcrt:ContextBase.obj
 0001:0002e440       ?Pop@?$WorkStealingQueue@V_UnrealizedChore@details@Concurrency@@V_CriticalNonReentrantLock@23@@details@Concurrency@@QEAAPEAV_UnrealizedChore@23@XZ 000000018002f440 f i libconcrt:ContextBase.obj
 0001:0002e50c       ?PopContextFromTls@ContextBase@details@Concurrency@@AEAAPEAV123@XZ 000000018002f50c f   libconcrt:ContextBase.obj
 0001:0002e540       ?PushContextToTls@ContextBase@details@Concurrency@@AEAAXPEAV123@@Z 000000018002f540 f   libconcrt:ContextBase.obj
 0001:0002e554       ?RecomputeMaximumCancellationDepth@ContextBase@details@Concurrency@@AEAAXXZ 000000018002f554 f   libconcrt:ContextBase.obj
 0001:0002e5f8       ?ReferenceForCancellation@ContextBase@details@Concurrency@@QEAAXXZ 000000018002f5f8 f   libconcrt:ContextBase.obj
 0001:0002e600       ?ReleaseWorkQueue@ContextBase@details@Concurrency@@IEAAXXZ 000000018002f600 f   libconcrt:ContextBase.obj
 0001:0002e6c0       ?Remove@?$ListArray@VWorkQueue@details@Concurrency@@@details@Concurrency@@QEAA_NPEAVWorkQueue@23@H_N@Z 000000018002f6c0 f i libconcrt:ContextBase.obj
 0001:0002e804       ?Remove@?$SafeRWList@UListEntry@details@Concurrency@@VNoCount@CollectionTypes@23@V_ReaderWriterLock@23@@details@Concurrency@@QEAAXPEAUListEntry@23@@Z 000000018002f804 f i libconcrt:ContextBase.obj
 0001:0002e874       ?RemoveStealer@ContextBase@details@Concurrency@@QEAAXPEAV123@@Z 000000018002f874 f   libconcrt:ContextBase.obj
 0001:0002e888       ?SetAsCurrentTls@ContextBase@details@Concurrency@@IEAAXXZ 000000018002f888 f   libconcrt:ContextBase.obj
 0001:0002e898       ?StaticExitCriticalRegion@ContextBase@details@Concurrency@@SAXXZ 000000018002f898 f   libconcrt:ContextBase.obj
 0001:0002e898       ?StaticExitHyperCriticalRegion@ContextBase@details@Concurrency@@SAXXZ 000000018002f898 f   libconcrt:ContextBase.obj
 0001:0002e898       ?StaticEnterHyperCriticalRegion@ContextBase@details@Concurrency@@SAXXZ 000000018002f898 f   libconcrt:ContextBase.obj
 0001:0002e898       ?StaticEnterCriticalRegion@ContextBase@details@Concurrency@@SAXXZ 000000018002f898 f   libconcrt:ContextBase.obj
 0001:0002e8a0       ?SweepAliasTable@ContextBase@details@Concurrency@@QEAAXXZ 000000018002f8a0 f   libconcrt:ContextBase.obj
 0001:0002e9b0       ?SweepUnstructured@ContextBase@details@Concurrency@@QEAAXP6A_NPEAV_UnrealizedChore@23@PEAX@Z12@Z 000000018002f9b0 f   libconcrt:ContextBase.obj
 0001:0002e9bc       ?SyncPop@?$WorkStealingQueue@V_UnrealizedChore@details@Concurrency@@V_CriticalNonReentrantLock@23@@details@Concurrency@@AEAAPEAV_UnrealizedChore@23@XZ 000000018002f9bc f i libconcrt:ContextBase.obj
 0001:0002eac8       ?ThrowContextEvent@ContextBase@details@Concurrency@@KAXW4ConcRT_EventType@3@EKK@Z 000000018002fac8 f   libconcrt:ContextBase.obj
 0001:0002eb64       ?TryPop@?$WorkStealingQueue@V_UnrealizedChore@details@Concurrency@@V_CriticalNonReentrantLock@23@@details@Concurrency@@QEAAPEAV_UnrealizedChore@23@H@Z 000000018002fb64 f i libconcrt:ContextBase.obj
 0001:0002ec28       ?TryPopUnstructured@ContextBase@details@Concurrency@@QEAAPEAV_UnrealizedChore@23@H@Z 000000018002fc28 f   libconcrt:ContextBase.obj
 0001:0002ec38       ?Wipe@?$Hash@PEAV_TaskCollection@details@Concurrency@@PEAV123@@details@Concurrency@@QEAAXXZ 000000018002fc38 f i libconcrt:ContextBase.obj
 0001:0002ecb8       ??0CancellationTokenRegistration_TaskProc@details@Concurrency@@QEAA@P6AXPEAX@Z0H@Z 000000018002fcb8 f i libconcrt:TaskCollection.obj
 0001:0002ed40       ??0_Interruption_exception@details@Concurrency@@QEAA@AEBV012@@Z 000000018002fd40 f i libconcrt:TaskCollection.obj
 0001:0002ed80       ??0_Interruption_exception@details@Concurrency@@QEAA@XZ 000000018002fd80 f i libconcrt:TaskCollection.obj
 0001:0002ed98       ??0_TaskCollection@details@Concurrency@@AEAA@PEAV012@_N@Z 000000018002fd98 f   libconcrt:TaskCollection.obj
 0001:0002ef0c       ??0missing_wait@Concurrency@@QEAA@AEBV01@@Z 000000018002ff0c f i libconcrt:TaskCollection.obj
 0001:0002ef4c       ??1?$_MallocaArrayHolder@PEAVevent@Concurrency@@@details@Concurrency@@UEAA@XZ 000000018002ff4c f i libconcrt:TaskCollection.obj
 0001:0002ef7c       ??1?$lock_guard@Vmutex@std@@@std@@QEAA@XZ 000000018002ff7c f i libconcrt:TaskCollection.obj
 0001:0002efa4       ??1?$unique_lock@Vmutex@std@@@std@@QEAA@XZ 000000018002ffa4 f i libconcrt:TaskCollection.obj
 0001:0002efd4       ??1_TaskCollection@details@Concurrency@@QEAA@XZ 000000018002ffd4 f   libconcrt:TaskCollection.obj
 0001:0002f100       ??1exception_ptr@std@@QEAA@XZ 0000000180030100 f i libconcrt:TaskCollection.obj
 0001:0002f108       ??_E?$_MallocaArrayHolder@PEAVevent@Concurrency@@@details@Concurrency@@UEAAPEAXI@Z 0000000180030108 f i libconcrt:TaskCollection.obj
 0001:0002f108       ??_G?$_MallocaArrayHolder@PEAVevent@Concurrency@@@details@Concurrency@@UEAAPEAXI@Z 0000000180030108 f i libconcrt:TaskCollection.obj
 0001:0002f15c       ??_ECancellationTokenRegistration_TaskProc@details@Concurrency@@UEAAPEAXI@Z 000000018003015c f i libconcrt:TaskCollection.obj
 0001:0002f15c       ??_GCancellationTokenRegistration_TaskProc@details@Concurrency@@UEAAPEAXI@Z 000000018003015c f i libconcrt:TaskCollection.obj
 0001:0002f1b4       ??_G_CancellationTokenRegistration@details@Concurrency@@MEAAPEAXI@Z 00000001800301b4 f i libconcrt:TaskCollection.obj
 0001:0002f1b4       ??_E_CancellationTokenRegistration@details@Concurrency@@MEAAPEAXI@Z 00000001800301b4 f i libconcrt:TaskCollection.obj
 0001:0002f20c       ??_E_RefCounter@details@Concurrency@@UEAAPEAXI@Z 000000018003020c f i libconcrt:TaskCollection.obj
 0001:0002f20c       ??_G_RefCounter@details@Concurrency@@UEAAPEAXI@Z 000000018003020c f i libconcrt:TaskCollection.obj
 0001:0002f238       ?Find@?$Hash@PEAV_TaskCollection@details@Concurrency@@PEAV123@@details@Concurrency@@QEAAPEAUListNode@123@AEBQEAV_TaskCollection@23@PEAPEAV523@@Z 0000000180030238 f i libconcrt:TaskCollection.obj
 0001:0002f2b4       ?GetArbitraryAlias@ContextBase@details@Concurrency@@QEAAPEAV_TaskCollection@23@PEAV423@@Z 00000001800302b4 f i libconcrt:TaskCollection.obj
 0001:0002f33c       ?Insert@?$Hash@PEAV_TaskCollection@details@Concurrency@@PEAV123@@details@Concurrency@@QEAAPEAUListNode@123@AEBQEAV_TaskCollection@23@0@Z 000000018003033c f i libconcrt:TaskCollection.obj
 0001:0002f418       ?_Abort@_TaskCollection@details@Concurrency@@AEAAX_N@Z 0000000180030418 f   libconcrt:TaskCollection.obj
 0001:0002f5bc       ?_AbortiveSweep@_TaskCollection@details@Concurrency@@AEAAXPEAX@Z 00000001800305bc f   libconcrt:TaskCollection.obj
 0001:0002f618       ?_Alias@_TaskCollection@details@Concurrency@@AEAAPEAV123@XZ 0000000180030618 f   libconcrt:TaskCollection.obj
 0001:0002f710       ?_Cancel@_StructuredTaskCollection@details@Concurrency@@QEAAXXZ 0000000180030710 f   libconcrt:TaskCollection.obj
 0001:0002f798       ?_Cancel@_TaskCollection@details@Concurrency@@AEAAX_NPEAV123@@Z 0000000180030798 f   libconcrt:TaskCollection.obj
 0001:0002f880       ?_CancelDirectAliases@_TaskCollection@details@Concurrency@@AEAAX_NPEAV123@@Z 0000000180030880 f   libconcrt:TaskCollection.obj
 0001:0002f8b8       ?_CancelFromArbitraryThread@_TaskCollection@details@Concurrency@@AEAAX_N@Z 00000001800308b8 f   libconcrt:TaskCollection.obj
 0001:0002f978       ?_CancelStolenContexts@_TaskCollection@details@Concurrency@@AEAAX_N0@Z 0000000180030978 f   libconcrt:TaskCollection.obj
 0001:0002fa2c       ?_CollectionMatchPredicate@_TaskCollection@details@Concurrency@@CA_NPEAV_UnrealizedChore@23@PEAX@Z 0000000180030a2c f   libconcrt:TaskCollection.obj
 0001:0002fa38       ?_CountUp@_StructuredTaskCollection@details@Concurrency@@AEAAXXZ 0000000180030a38 f   libconcrt:TaskCollection.obj
 0001:0002fa68       ?_DeregisterCallback@_CancellationTokenState@details@Concurrency@@QEAAXPEAV_CancellationTokenRegistration@23@@Z 0000000180030a68 f i libconcrt:TaskCollection.obj
 0001:0002fbe8       ?_Destroy@_RefCounter@details@Concurrency@@MEAAXXZ 0000000180030be8 f i libconcrt:TaskCollection.obj
 0001:0002fc20       ?_Exec@CancellationTokenRegistration_TaskProc@details@Concurrency@@MEAAXXZ 0000000180030c20 f i libconcrt:TaskCollection.obj
 0001:0002fc54       ?_FullAliasWait@_TaskCollection@details@Concurrency@@AEAAXPEAV123@@Z 0000000180030c54 f   libconcrt:TaskCollection.obj
 0001:0002fe04       ?_GetStealTrackingList@_TaskCollection@details@Concurrency@@AEBAPEAXXZ 0000000180030e04 f   libconcrt:TaskCollection.obj
 0001:0002fe0c       ?_Initialize@_StructuredTaskCollection@details@Concurrency@@AEAAXXZ 0000000180030e0c f   libconcrt:TaskCollection.obj
 0001:0002fe6c       ?_Initialize@_TaskCollection@details@Concurrency@@AEAAXXZ 0000000180030e6c f   libconcrt:TaskCollection.obj
 0001:0002feac       ?_Invoke@_CancellationTokenRegistration@details@Concurrency@@AEAAXXZ 0000000180030eac f i libconcrt:TaskCollection.obj
 0001:0002ff9c       ?_IsMarkedForAbnormalExit@_TaskCollection@details@Concurrency@@QEBA_NXZ 0000000180030f9c f   libconcrt:TaskCollection.obj
 0001:0002ffac       ?_IsStaleAlias@_TaskCollection@details@Concurrency@@AEBA_NXZ 0000000180030fac f   libconcrt:TaskCollection.obj
 0001:0002ffb8       ?_NotifyCompletedChoreAndFree@_TaskCollection@details@Concurrency@@AEAAXPEAV_UnrealizedChore@23@@Z 0000000180030fb8 f   libconcrt:TaskCollection.obj
 0001:00030020       ?_OriginalCollection@_TaskCollection@details@Concurrency@@QEBAPEAV123@XZ 0000000180031020 f   libconcrt:TaskCollection.obj
 0001:00030028       ?_RegisterCallback@_CancellationTokenState@details@Concurrency@@QEAAPEAV_CancellationTokenRegistration@23@P6AXPEAX@Z0H@Z 0000000180031028 f i libconcrt:TaskCollection.obj
 0001:000300a0       ?_RegisterCallback@_CancellationTokenState@details@Concurrency@@QEAAXPEAV_CancellationTokenRegistration@23@@Z 00000001800310a0 f i libconcrt:TaskCollection.obj
 0001:0003016c       ?_ReleaseAlias@_TaskCollection@details@Concurrency@@AEAAXXZ 000000018003116c f   libconcrt:TaskCollection.obj
 0001:000301a8       ?_Reset@_TaskCollection@details@Concurrency@@AEAAXPEAV123@@Z 00000001800311a8 f   libconcrt:TaskCollection.obj
 0001:000302d4       ?_SetCancelState@_TaskCollection@details@Concurrency@@AEAA_NJ@Z 00000001800312d4 f   libconcrt:TaskCollection.obj
 0001:00030300       ?_SweepAbortedChore@_TaskCollection@details@Concurrency@@CA_NPEAV_UnrealizedChore@23@PEAX@Z 0000000180031300 f   libconcrt:TaskCollection.obj
 0001:00030320       ?_TaskCleanup@_TaskCollection@details@Concurrency@@AEAA_N_N@Z 0000000180031320 f   libconcrt:TaskCollection.obj
 0001:000303c8       ?compare_exchange_strong@_Atomic_long@std@@QEAA_NAEAJJW4memory_order@2@@Z 00000001800313c8 f i libconcrt:TaskCollection.obj
 0001:00030460       ??0SchedulerPolicy@Concurrency@@QEAA@AEBV01@@Z 0000000180031460 f   libconcrt:SchedulerPolicyBase.obj
 0001:000304a8       ??0SchedulerPolicy@Concurrency@@QEAA@_KZZ 00000001800314a8 f   libconcrt:SchedulerPolicyBase.obj
 0001:000304dc       ??0invalid_scheduler_policy_key@Concurrency@@QEAA@AEBV01@@Z 00000001800314dc f i libconcrt:SchedulerPolicyBase.obj
 0001:0003051c       ??0invalid_scheduler_policy_thread_specification@Concurrency@@QEAA@AEBV01@@Z 000000018003151c f i libconcrt:SchedulerPolicyBase.obj
 0001:0003055c       ??0invalid_scheduler_policy_value@Concurrency@@QEAA@AEBV01@@Z 000000018003155c f i libconcrt:SchedulerPolicyBase.obj
 0001:0003059c       ??1SchedulerPolicy@Concurrency@@QEAA@XZ 000000018003159c f   libconcrt:SchedulerPolicyBase.obj
 0001:000305ac       ??4SchedulerPolicy@Concurrency@@QEAAAEAV01@AEBV01@@Z 00000001800315ac f   libconcrt:SchedulerPolicyBase.obj
 0001:000305d0       ?GetPolicyValue@SchedulerPolicy@Concurrency@@QEBAIW4PolicyElementKey@2@@Z 00000001800315d0 f   libconcrt:SchedulerPolicyBase.obj
 0001:00030610       ?_Initialize@SchedulerPolicy@Concurrency@@AEAAX_KPEAPEAD@Z 0000000180031610 f   libconcrt:SchedulerPolicyBase.obj
 0001:0003074c       ?_ResolvePolicyValues@SchedulerPolicy@Concurrency@@AEAAXXZ 000000018003174c f   libconcrt:SchedulerPolicyBase.obj
 0001:000307b0       ?_StringFromPolicyKey@SchedulerPolicy@Concurrency@@CAPEADI@Z 00000001800317b0 f   libconcrt:SchedulerPolicyBase.obj
 0001:000307c8       ?_ValidPolicyValue@SchedulerPolicy@Concurrency@@CA_NW4PolicyElementKey@2@I@Z 00000001800317c8 f   libconcrt:SchedulerPolicyBase.obj
 0001:00030874       ?_ValidateConcRTPolicy@SchedulerPolicy@Concurrency@@QEBAXXZ 0000000180031874 f   libconcrt:SchedulerPolicyBase.obj
 0001:000308e0       ??0ExecutionResource@details@Concurrency@@QEAA@PEAVSchedulerProxy@12@PEAUSchedulerNode@12@I@Z 00000001800318e0 f   libconcrt:ExecutionResource.obj
 0001:00030944       ??0ExecutionResource@details@Concurrency@@QEAA@PEAVSchedulerProxy@12@PEAV012@@Z 0000000180031944 f   libconcrt:ExecutionResource.obj
 0001:00030994       ?CurrentSubscriptionLevel@ExecutionResource@details@Concurrency@@UEBAIXZ 0000000180031994 f   libconcrt:ExecutionResource.obj
 0001:000309a8       ?DecrementUseCounts@ExecutionResource@details@Concurrency@@QEAAXXZ 00000001800319a8 f   libconcrt:ExecutionResource.obj
 0001:00030a38       ?GetExecutionResourceId@ExecutionResource@details@Concurrency@@UEBAIXZ 0000000180031a38 f i libconcrt:ExecutionResource.obj
 0001:00030a3c       ?GetNodeId@ExecutionResource@details@Concurrency@@UEBAIXZ 0000000180031a3c f i libconcrt:ExecutionResource.obj
 0001:00030a40       ?IncrementUseCounts@ExecutionResource@details@Concurrency@@QEAAXXZ 0000000180031a40 f   libconcrt:ExecutionResource.obj
 0001:00030b3c       ?Remove@ExecutionResource@details@Concurrency@@UEAAXPEAUIScheduler@3@@Z 0000000180031b3c f   libconcrt:ExecutionResource.obj
 0001:00030bdc       ?ResetCurrent@ExecutionResource@details@Concurrency@@QEAAXXZ 0000000180031bdc f   libconcrt:ExecutionResource.obj
 0001:00030c08       ?SetAsCurrent@ExecutionResource@details@Concurrency@@QEAAXXZ 0000000180031c08 f   libconcrt:ExecutionResource.obj
 0001:00030c44       ??$sign@N@details@Concurrency@@YANN@Z 0000000180031c44 f i libconcrt:HillClimbing.obj
 0001:00030c6c       ??0HillClimbing@details@Concurrency@@QEAA@IIPEAVSchedulerProxy@12@@Z 0000000180031c6c f   libconcrt:HillClimbing.obj
 0001:00030ce0       ?CalculateThroughputSlope@HillClimbing@details@Concurrency@@AEAANHH@Z 0000000180031ce0 f   libconcrt:HillClimbing.obj
 0001:00030e40       ?CoefficientOfVariationMean@MeasuredHistory@HillClimbing@details@Concurrency@@QEAANXZ 0000000180031e40 f   libconcrt:HillClimbing.obj
 0001:00030ea4       ?EstablishControlSetting@HillClimbing@details@Concurrency@@AEAAXI@Z 0000000180031ea4 f   libconcrt:HillClimbing.obj
 0001:00030f08       ?FlushHistories@HillClimbing@details@Concurrency@@AEAAXXZ 0000000180031f08 f   libconcrt:HillClimbing.obj
 0001:00030f50       ?IsStableHistory@HillClimbing@details@Concurrency@@AEAA_NPEAVMeasuredHistory@123@@Z 0000000180031f50 f   libconcrt:HillClimbing.obj
 0001:00030f88       ?RecommendControlSetting@HillClimbing@details@Concurrency@@AEAAII@Z 0000000180031f88 f   libconcrt:HillClimbing.obj
 0001:000310d8       ?Update@HillClimbing@details@Concurrency@@QEAAIIIII@Z 00000001800320d8 f   libconcrt:HillClimbing.obj
 0001:0003133c       ?Variance@MeasuredHistory@HillClimbing@details@Concurrency@@QEAANXZ 000000018003233c f   libconcrt:HillClimbing.obj
 0001:00031390       ??0SchedulerProxy@details@Concurrency@@QEAA@PEAUIScheduler@2@PEAVResourceManager@12@AEBVSchedulerPolicy@2@@Z 0000000180032390 f   libconcrt:SchedulerProxy.obj
 0001:00031630       ??1SchedulerProxy@details@Concurrency@@IEAA@XZ 0000000180032630 f   libconcrt:SchedulerProxy.obj
 0001:0003167c       ??1_Scoped_lock@_ReentrantBlockingLock@details@Concurrency@@QEAA@XZ 000000018003267c f i libconcrt:SchedulerProxy.obj
 0001:00031698       ?AddCore@SchedulerProxy@details@Concurrency@@QEAAXPEAUSchedulerNode@23@I_N@Z 0000000180032698 f   libconcrt:SchedulerProxy.obj
 0001:000317a8       ?AddExecutionResource@SchedulerProxy@details@Concurrency@@QEAAXPEAVExecutionResource@23@@Z 00000001800327a8 f   libconcrt:SchedulerProxy.obj
 0001:00031848       ?AddThreadSubscription@SchedulerProxy@details@Concurrency@@QEAAXPEAVExecutionResource@23@@Z 0000000180032848 f   libconcrt:SchedulerProxy.obj
 0001:000318a0       ?AddVirtualProcessorRoots@SchedulerProxy@details@Concurrency@@QEAAXPEAPEAUIVirtualProcessorRoot@3@I@Z 00000001800328a0 f   libconcrt:SchedulerProxy.obj
 0001:000319b8       ?AdjustAllocationIncrease@SchedulerProxy@details@Concurrency@@QEBAII@Z 00000001800329b8 f   libconcrt:SchedulerProxy.obj
 0001:00031a44       ?BindContext@SchedulerProxy@details@Concurrency@@UEAAXPEAUIExecutionContext@3@@Z 0000000180032a44 f   libconcrt:SchedulerProxy.obj
 0001:00031ac4       ?Cleanup@SchedulerProxy@details@Concurrency@@IEAAXXZ 0000000180032ac4 f   libconcrt:SchedulerProxy.obj
 0001:00031b98       ?CreateExternalThreadResource@SchedulerProxy@details@Concurrency@@QEAAPEAVExecutionResource@23@PEAUSchedulerNode@23@I@Z 0000000180032b98 f   libconcrt:SchedulerProxy.obj
 0001:00031c08       ?CreateOversubscriber@SchedulerProxy@details@Concurrency@@UEAAPEAUIVirtualProcessorRoot@3@PEAUIExecutionResource@3@@Z 0000000180032c08 f   libconcrt:SchedulerProxy.obj
 0001:00031d30       ?CreateVirtualProcessorRoot@SchedulerProxy@details@Concurrency@@UEAAPEAVVirtualProcessorRoot@23@PEAUSchedulerNode@23@I@Z 0000000180032d30 f   libconcrt:SchedulerProxy.obj
 0001:00031d8c       ?DecrementCoreSubscription@SchedulerProxy@details@Concurrency@@QEAAXPEAVExecutionResource@23@@Z 0000000180032d8c f   libconcrt:SchedulerProxy.obj
 0001:00031de4       ?DecrementFixedCoreCount@SchedulerProxy@details@Concurrency@@QEAAXII_N@Z 0000000180032de4 f   libconcrt:SchedulerProxy.obj
 0001:00031e90       ?DeleteThis@SchedulerProxy@details@Concurrency@@MEAAXXZ 0000000180032e90 f i libconcrt:SchedulerProxy.obj
 0001:00031eb8       ?DestroyExecutionResource@SchedulerProxy@details@Concurrency@@QEAAXPEAVExecutionResource@23@@Z 0000000180032eb8 f   libconcrt:SchedulerProxy.obj
 0001:00031fb4       ?DestroyVirtualProcessorRoot@SchedulerProxy@details@Concurrency@@QEAAXPEAVVirtualProcessorRoot@23@@Z 0000000180032fb4 f   libconcrt:SchedulerProxy.obj
 0001:00032090       ?FinalShutdown@SchedulerProxy@details@Concurrency@@UEAAXXZ 0000000180033090 f   libconcrt:SchedulerProxy.obj
 0001:000320c4       ?GetCurrentThreadExecutionResource@SchedulerProxy@details@Concurrency@@QEAAPEAVExecutionResource@23@XZ 00000001800330c4 f   libconcrt:SchedulerProxy.obj
 0001:000320f0       ?GetNewThreadProxy@SchedulerProxy@details@Concurrency@@UEAAPEAUIThreadProxy@3@PEAUIExecutionContext@3@@Z 00000001800330f0 f   libconcrt:SchedulerProxy.obj
 0001:00032180       ?GetResourceForNewSubscription@SchedulerProxy@details@Concurrency@@QEAAPEAVExecutionResource@23@PEAV423@@Z 0000000180033180 f   libconcrt:SchedulerProxy.obj
 0001:000321ec       ?GrantAllocation@SchedulerProxy@details@Concurrency@@QEAAPEAVExecutionResource@23@I_N0@Z 00000001800331ec f   libconcrt:SchedulerProxy.obj
 0001:000325c8       ?IncrementCoreSubscription@SchedulerProxy@details@Concurrency@@QEAAXPEAVExecutionResource@23@@Z 00000001800335c8 f   libconcrt:SchedulerProxy.obj
 0001:00032624       ?IncrementFixedCoreCount@SchedulerProxy@details@Concurrency@@QEAAXII_N@Z 0000000180033624 f   libconcrt:SchedulerProxy.obj
 0001:000326d0       ?ReferenceCurrentThreadExecutionResource@SchedulerProxy@details@Concurrency@@QEAAPEAVExecutionResource@23@XZ 00000001800336d0 f   libconcrt:SchedulerProxy.obj
 0001:000327b0       ?RemoveCore@SchedulerProxy@details@Concurrency@@QEAAXPEAUSchedulerNode@23@I@Z 00000001800337b0 f   libconcrt:SchedulerProxy.obj
 0001:000328c4       ?RemoveThreadSubscription@SchedulerProxy@details@Concurrency@@QEAAXPEAVExecutionResource@23@@Z 00000001800338c4 f   libconcrt:SchedulerProxy.obj
 0001:00032920       ?RequestInitialVirtualProcessors@SchedulerProxy@details@Concurrency@@UEAAPEAUIExecutionResource@3@_N@Z 0000000180033920 f   libconcrt:SchedulerProxy.obj
 0001:00032930       ?SendCoreNotification@SchedulerProxy@details@Concurrency@@QEAAXPEAUSchedulerCore@23@_N@Z 0000000180033930 f   libconcrt:SchedulerProxy.obj
 0001:00032a4c       ?Shutdown@SchedulerProxy@details@Concurrency@@UEAAXXZ 0000000180033a4c f   libconcrt:SchedulerProxy.obj
 0001:00032a58       ?SubscribeCurrentThread@SchedulerProxy@details@Concurrency@@UEAAPEAUIExecutionResource@3@XZ 0000000180033a58 f   libconcrt:SchedulerProxy.obj
 0001:00032a64       ?ToggleBorrowedState@SchedulerProxy@details@Concurrency@@QEAAXPEAUSchedulerNode@23@I@Z 0000000180033a64 f   libconcrt:SchedulerProxy.obj
 0001:00032aa0       ?UnbindContext@SchedulerProxy@details@Concurrency@@UEAAXPEAUIExecutionContext@3@@Z 0000000180033aa0 f   libconcrt:SchedulerProxy.obj
 0001:00032afc       ?Initialize@UMS@details@Concurrency@@SAXXZ 0000000180033afc f   libconcrt:UMSWrapper.obj
 0001:000331b0       ?Initialize@WinRT@details@Concurrency@@SAXXZ 00000001800341b0 f   libconcrt:WinRTWrapper.obj
 0001:000332e8       ?RoInitialize@WinRT@details@Concurrency@@SAJW4RO_INIT_TYPE@@@Z 00000001800342e8 f   libconcrt:WinRTWrapper.obj
 0001:00033320       ?RoUninitialize@WinRT@details@Concurrency@@SAXXZ 0000000180034320 f   libconcrt:WinRTWrapper.obj
 0001:00033348       ??0ThreadProxyFactoryManager@details@Concurrency@@QEAA@XZ 0000000180034348 f   libconcrt:ThreadProxyFactoryManager.obj
 0001:00033384       ??1ThreadProxyFactoryManager@details@Concurrency@@QEAA@XZ 0000000180034384 f   libconcrt:ThreadProxyFactoryManager.obj
 0001:00033400       ??_E?$ThreadProxyFactory@VFreeThreadProxy@details@Concurrency@@@details@Concurrency@@UEAAPEAXI@Z 0000000180034400 f i libconcrt:ThreadProxyFactoryManager.obj
 0001:00033400       ??_G?$ThreadProxyFactory@VFreeThreadProxy@details@Concurrency@@@details@Concurrency@@UEAAPEAXI@Z 0000000180034400 f i libconcrt:ThreadProxyFactoryManager.obj
 0001:0003342c       ??_EFreeThreadProxy@details@Concurrency@@UEAAPEAXI@Z 000000018003442c f i libconcrt:ThreadProxyFactoryManager.obj
 0001:0003342c       ??_GFreeThreadProxy@details@Concurrency@@UEAAPEAXI@Z 000000018003442c f i libconcrt:ThreadProxyFactoryManager.obj
 0001:0003346c       ??_EFreeThreadProxyFactory@details@Concurrency@@UEAAPEAXI@Z 000000018003446c f i libconcrt:ThreadProxyFactoryManager.obj
 0001:0003346c       ??_GFreeThreadProxyFactory@details@Concurrency@@UEAAPEAXI@Z 000000018003446c f i libconcrt:ThreadProxyFactoryManager.obj
 0001:00033498       ??_GIThreadProxyFactory@details@Concurrency@@UEAAPEAXI@Z 0000000180034498 f i libconcrt:ThreadProxyFactoryManager.obj
 0001:00033498       ??_EIThreadProxyFactory@details@Concurrency@@UEAAPEAXI@Z 0000000180034498 f i libconcrt:ThreadProxyFactoryManager.obj
 0001:000334c4       ?Create@FreeThreadProxyFactory@details@Concurrency@@EEAAPEAVFreeThreadProxy@23@I@Z 00000001800344c4 f i libconcrt:ThreadProxyFactoryManager.obj
 0001:00033544       ?CreateFactory@FreeThreadProxyFactory@details@Concurrency@@SAPEAV123@PEAVThreadProxyFactoryManager@23@@Z 0000000180034544 f i libconcrt:ThreadProxyFactoryManager.obj
 0001:000335dc       ?GetExecutionResourceTls@?$ThreadProxyFactory@VFreeThreadProxy@details@Concurrency@@@details@Concurrency@@UEAAKXZ 00000001800345dc f i libconcrt:ThreadProxyFactoryManager.obj
 0001:000335e0       ?GetFreeThreadProxyFactory@ThreadProxyFactoryManager@details@Concurrency@@QEAAPEAVFreeThreadProxyFactory@23@XZ 00000001800345e0 f   libconcrt:ThreadProxyFactoryManager.obj
 0001:00033638       ?Prepare@?$ThreadProxyFactory@VFreeThreadProxy@details@Concurrency@@@details@Concurrency@@MEAAXPEAVFreeThreadProxy@23@H@Z 0000000180034638 f i libconcrt:ThreadProxyFactoryManager.obj
 0001:00033658       ?ReclaimProxy@?$ThreadProxyFactory@VFreeThreadProxy@details@Concurrency@@@details@Concurrency@@UEAAXPEAUIThreadProxy@3@@Z 0000000180034658 f i libconcrt:ThreadProxyFactoryManager.obj
 0001:000336f0       ?ReclaimProxy@FreeThreadProxyFactory@details@Concurrency@@UEAAXPEAUIThreadProxy@3@@Z 00000001800346f0 f i libconcrt:ThreadProxyFactoryManager.obj
 0001:000337e4       ?Reference@FreeThreadProxyFactory@details@Concurrency@@UEAAJXZ 00000001800347e4 f i libconcrt:ThreadProxyFactoryManager.obj
 0001:000337f4       ?Release@FreeThreadProxyFactory@details@Concurrency@@UEAAJXZ 00000001800347f4 f i libconcrt:ThreadProxyFactoryManager.obj
 0001:00033844       ?RequestProxy@?$ThreadProxyFactory@VFreeThreadProxy@details@Concurrency@@@details@Concurrency@@UEAAPEAUIThreadProxy@3@IH@Z 0000000180034844 f i libconcrt:ThreadProxyFactoryManager.obj
 0001:00033900       ?Retire@FreeThreadProxyFactory@details@Concurrency@@EEAAXPEAVFreeThreadProxy@23@@Z 0000000180034900 f i libconcrt:ThreadProxyFactoryManager.obj
 0001:00033908       ?RetireThreadProxies@?$ThreadProxyFactory@VFreeThreadProxy@details@Concurrency@@@details@Concurrency@@QEAAXXZ 0000000180034908 f i libconcrt:ThreadProxyFactoryManager.obj
 0001:00033994       ?ShutdownFactory@FreeThreadProxyFactory@details@Concurrency@@UEAAXXZ 0000000180034994 f i libconcrt:ThreadProxyFactoryManager.obj
 0001:000339cc       ?YieldToSystem@FreeThreadProxy@details@Concurrency@@UEAAXXZ 00000001800349cc f i libconcrt:ThreadProxyFactoryManager.obj
 0001:000339d4       ??0Etw@details@Concurrency@@AEAA@XZ 00000001800349d4 f   libconcrt:Trace.obj
 0001:00033adc       ?ControlCallback@details@Concurrency@@YAKW4WMIDPREQUESTCODE@@PEAXPEAK1@Z 0000000180034adc f   libconcrt:Trace.obj
 0001:00033ba4       ?GetEnableFlags@Etw@details@Concurrency@@QEAAK_K@Z 0000000180034ba4 f   libconcrt:Trace.obj
 0001:00033bf4       ?GetEnableLevel@Etw@details@Concurrency@@QEAAE_K@Z 0000000180034bf4 f   libconcrt:Trace.obj
 0001:00033c44       ?GetLoggerHandle@Etw@details@Concurrency@@QEAA_KPEAX@Z 0000000180034c44 f   libconcrt:Trace.obj
 0001:00033c98       ?RegisterGuids@Etw@details@Concurrency@@QEAAKP6AKW4WMIDPREQUESTCODE@@PEAXPEAK1@ZPEBU_GUID@@KPEAU_TRACE_GUID_REGISTRATION@@PEA_K@Z 0000000180034c98 f   libconcrt:Trace.obj
 0001:00033d24       ?Trace@Etw@details@Concurrency@@QEAAK_KPEAU_EVENT_TRACE_HEADER@@@Z 0000000180034d24 f   libconcrt:Trace.obj
 0001:00033d7c       ?UnregisterGuids@Etw@details@Concurrency@@QEAAK_K@Z 0000000180034d7c f   libconcrt:Trace.obj
 0001:00033dc4       ?_RegisterConcRTEventTracing@details@Concurrency@@YAXXZ 0000000180034dc4 f   libconcrt:Trace.obj
 0001:00033e84       ?_UnregisterConcRTEventTracing@details@Concurrency@@YAXXZ 0000000180034e84 f   libconcrt:Trace.obj
 0001:00033ed0       ??0VirtualProcessor@details@Concurrency@@QEAA@XZ 0000000180034ed0 f   libconcrt:VirtualProcessor.obj
 0001:00033f44       ??1VirtualProcessor@details@Concurrency@@UEAA@XZ 0000000180034f44 f   libconcrt:VirtualProcessor.obj
 0001:00033fa0       ??_GVirtualProcessor@details@Concurrency@@UEAAPEAXI@Z 0000000180034fa0 f i libconcrt:VirtualProcessor.obj
 0001:00033fa0       ??_EVirtualProcessor@details@Concurrency@@UEAAPEAXI@Z 0000000180034fa0 f i libconcrt:VirtualProcessor.obj
 0001:00033fd4       ?Affinitize@VirtualProcessor@details@Concurrency@@MEAAXPEAVInternalContextBase@23@@Z 0000000180034fd4 f   libconcrt:VirtualProcessor.obj
 0001:00034040       ?CheckAffinityNotification@VirtualProcessor@details@Concurrency@@QEAA_NXZ 0000000180035040 f   libconcrt:VirtualProcessor.obj
 0001:00034098       ?CheckForDeletion@?$ListArray@VVirtualProcessor@details@Concurrency@@@details@Concurrency@@AEAAXXZ 0000000180035098 f i libconcrt:VirtualProcessor.obj
 0001:00034118       ?CheckForDeletionBridge@?$ListArray@VVirtualProcessor@details@Concurrency@@@details@Concurrency@@CAXPEAV123@@Z 0000000180035118 f i libconcrt:VirtualProcessor.obj
 0001:00034120       ?ClaimExclusiveOwnership@VirtualProcessor@details@Concurrency@@QEAA_NAEAVClaimTicket@123@K_N@Z 0000000180035120 f   libconcrt:VirtualProcessor.obj
 0001:000341b8       ?Deactivate@VirtualProcessor@details@Concurrency@@QEAA_NPEAUIExecutionContext@3@@Z 00000001800351b8 f   libconcrt:VirtualProcessor.obj
 0001:000341fc       ?EnsureAllTasksVisible@VirtualProcessor@details@Concurrency@@QEAAXPEAUIExecutionContext@3@@Z 00000001800351fc f   libconcrt:VirtualProcessor.obj
 0001:00034240       ?ExerciseClaim@VirtualProcessor@details@Concurrency@@AEAA_NW4AvailabilityType@123@PEAVScheduleGroupSegmentBase@23@PEAVInternalContextBase@23@@Z 0000000180035240 f   libconcrt:VirtualProcessor.obj
 0001:0003431c       ?ExerciseWith@ClaimTicket@VirtualProcessor@details@Concurrency@@QEAA_NPEAVInternalContextBase@34@@Z 000000018003531c f   libconcrt:VirtualProcessor.obj
 0001:00034350       ?GetCurrentSubAllocator@VirtualProcessor@details@Concurrency@@QEAAPEAVSubAllocator@23@XZ 0000000180035350 f   libconcrt:VirtualProcessor.obj
 0001:00034380       ?Initialize@VirtualProcessor@details@Concurrency@@MEAAXPEAVSchedulingNode@23@PEAUIVirtualProcessorRoot@3@@Z 0000000180035380 f   libconcrt:VirtualProcessor.obj
 0001:000345e8       ?InterlockedClear@ReferenceCountedQuickBitSet@details@Concurrency@@QEAAII@Z 00000001800355e8 f i libconcrt:VirtualProcessor.obj
 0001:00034684       ?InterlockedSet@ReferenceCountedQuickBitSet@details@Concurrency@@QEAAII@Z 0000000180035684 f i libconcrt:VirtualProcessor.obj
 0001:00034720       ?MakeAvailable@VirtualProcessor@details@Concurrency@@IEAAXW4AvailabilityType@123@_N@Z 0000000180035720 f   libconcrt:VirtualProcessor.obj
 0001:000347a0       ?MarkForRetirement@VirtualProcessor@details@Concurrency@@AEAAXXZ 00000001800357a0 f   libconcrt:VirtualProcessor.obj
 0001:00034818       ?Oversubscribe@VirtualProcessor@details@Concurrency@@EEAAPEAV123@XZ 0000000180035818 f   libconcrt:VirtualProcessor.obj
 0001:00034874       ?Pop@?$StructuredWorkStealingQueue@VInternalContextBase@details@Concurrency@@V_HyperNonReentrantLock@23@@details@Concurrency@@QEAAPEAVInternalContextBase@23@XZ 0000000180035874 f i libconcrt:VirtualProcessor.obj
 0001:00034920       ?Remove@?$ListArray@VVirtualProcessor@details@Concurrency@@@details@Concurrency@@QEAA_NPEAVVirtualProcessor@23@H_N@Z 0000000180035920 f i libconcrt:VirtualProcessor.obj
 0001:00034a64       ?Retire@VirtualProcessor@details@Concurrency@@MEAAXXZ 0000000180035a64 f   libconcrt:VirtualProcessor.obj
 0001:00034c98       ?SafePoint@VirtualProcessor@details@Concurrency@@QEAA_NXZ 0000000180035c98 f   libconcrt:VirtualProcessor.obj
 0001:00034cac       ?StartupWorkerContext@VirtualProcessor@details@Concurrency@@EEAA_NPEAVScheduleGroupSegmentBase@23@PEAVInternalContextBase@23@@Z 0000000180035cac f   libconcrt:VirtualProcessor.obj
 0001:00034da4       ?StaticDelete@Segment@?$Mailbox@VInternalContextBase@details@Concurrency@@@details@Concurrency@@SAXPEAU1234@@Z 0000000180035da4 f i libconcrt:VirtualProcessor.obj
 0001:00034da4       ?StaticDelete@Segment@?$Mailbox@V_UnrealizedChore@details@Concurrency@@@details@Concurrency@@SAXPEAU1234@@Z 0000000180035da4 f i libconcrt:ContextBase.obj
 0001:00034dd8       ?ThrowVirtualProcessorEvent@VirtualProcessor@details@Concurrency@@CAXW4ConcRT_EventType@3@EKK@Z 0000000180035dd8 f   libconcrt:VirtualProcessor.obj
 0001:00034e74       ?ToInternalContext@VirtualProcessor@details@Concurrency@@MEAAPEAVInternalContextBase@23@PEAUIExecutionContext@3@@Z 0000000180035e74 f   libconcrt:VirtualProcessor.obj
 0001:00034e78       ?UpdateWorkState@VirtualProcessor@details@Concurrency@@QEAAX_N0@Z 0000000180035e78 f   libconcrt:VirtualProcessor.obj
 0001:00034f2c       ?Wipe@QuickBitSet@details@Concurrency@@QEAAXXZ 0000000180035f2c f i libconcrt:VirtualProcessor.obj
 0001:00034fc4       ??0SchedulingNode@details@Concurrency@@QEAA@AEBVQuickBitSet@12@KPEAVSchedulingRing@12@@Z 0000000180035fc4 f   libconcrt:SchedulingNode.obj
 0001:0003509c       ??1?$ListArray@VVirtualProcessor@details@Concurrency@@@details@Concurrency@@QEAA@XZ 000000018003609c f i libconcrt:SchedulingNode.obj
 0001:000351e8       ??1SchedulingNode@details@Concurrency@@QEAA@XZ 00000001800361e8 f   libconcrt:SchedulingNode.obj
 0001:00035224       ?Add@?$ListArray@VVirtualProcessor@details@Concurrency@@@details@Concurrency@@QEAAHPEAVVirtualProcessor@23@@Z 0000000180036224 f i libconcrt:SchedulingNode.obj
 0001:0003539c       ?AddVirtualProcessor@SchedulingNode@details@Concurrency@@QEAAPEAVVirtualProcessor@23@PEAUIVirtualProcessorRoot@3@_N@Z 000000018003639c f   libconcrt:SchedulingNode.obj
 0001:0003550c       ?DeferToAffineSearchers@Slot@?$Mailbox@VInternalContextBase@details@Concurrency@@@details@Concurrency@@QEBA_NXZ 000000018003650c f i libconcrt:SchedulingNode.obj
 0001:0003550c       ?DeferToAffineSearchers@Slot@?$Mailbox@V_UnrealizedChore@details@Concurrency@@@details@Concurrency@@QEBA_NXZ 000000018003650c f i libconcrt:WorkQueue.obj
 0001:000355ac       ?FindMatchingVirtualProcessor@SchedulingNode@details@Concurrency@@QEAAPEAVVirtualProcessor@23@PEAUIVirtualProcessorRoot@3@@Z 00000001800365ac f   libconcrt:SchedulingNode.obj
 0001:00035664       ?FindVirtualProcessorByLocation@SchedulingNode@details@Concurrency@@QEAAPEAVVirtualProcessor@23@PEBVlocation@3@@Z 0000000180036664 f   libconcrt:SchedulingNode.obj
 0001:00035744       ?FoundAvailableVirtualProcessor@SchedulingNode@details@Concurrency@@AEAA_NAEAVClaimTicket@VirtualProcessor@23@Vlocation@3@K@Z 0000000180036744 f   libconcrt:SchedulingNode.obj
 0001:00035854       ?GetLocation@SchedulingNode@details@Concurrency@@QEAA?AVlocation@3@XZ 0000000180036854 f   libconcrt:SchedulingNode.obj
 0001:000358b8       ?UnlockedSteal@?$StructuredWorkStealingQueue@VInternalContextBase@details@Concurrency@@V_HyperNonReentrantLock@23@@details@Concurrency@@QEAAPEAVInternalContextBase@23@_N@Z 00000001800368b8 f i libconcrt:SchedulingNode.obj
 0001:000359c4       ??0AllocatorBucket@details@Concurrency@@QEAA@XZ 00000001800369c4 f   libconcrt:SubAllocator.obj
 0001:000359e4       ??1AllocatorBucket@details@Concurrency@@QEAA@XZ 00000001800369e4 f   libconcrt:SubAllocator.obj
 0001:00035a20       ?Alloc@AllocatorBucket@details@Concurrency@@QEAAPEATAllocationEntry@23@XZ 0000000180036a20 f   libconcrt:SubAllocator.obj
 0001:00035a48       ?Alloc@SubAllocator@details@Concurrency@@QEAAPEAX_K@Z 0000000180036a48 f   libconcrt:SubAllocator.obj
 0001:00035ac8       ?Free@AllocatorBucket@details@Concurrency@@QEAA_NPEATAllocationEntry@23@@Z 0000000180036ac8 f   libconcrt:SubAllocator.obj
 0001:00035af8       ?Free@SubAllocator@details@Concurrency@@QEAAXPEAX@Z 0000000180036af8 f   libconcrt:SubAllocator.obj
 0001:00035b44       ?GetBucketIndex@SubAllocator@details@Concurrency@@SAH_K@Z 0000000180036b44 f   libconcrt:SubAllocator.obj
 0001:00035b9c       ?StaticAlloc@SubAllocator@details@Concurrency@@SAPEAX_K@Z 0000000180036b9c f   libconcrt:SubAllocator.obj
 0001:00035bec       ??0InternalContextBase@details@Concurrency@@QEAA@PEAVSchedulerBase@12@@Z 0000000180036bec f   libconcrt:InternalContextBase.obj
 0001:00035c7c       ??0context_self_unblock@Concurrency@@QEAA@AEBV01@@Z 0000000180036c7c f i libconcrt:InternalContextBase.obj
 0001:00035cbc       ??0context_unblock_unbalanced@Concurrency@@QEAA@AEBV01@@Z 0000000180036cbc f i libconcrt:InternalContextBase.obj
 0001:00035cfc       ??0invalid_oversubscribe_operation@Concurrency@@QEAA@AEBV01@@Z 0000000180036cfc f i libconcrt:InternalContextBase.obj
 0001:00035d3c       ??0nested_scheduler_missing_detach@Concurrency@@QEAA@AEBV01@@Z 0000000180036d3c f i libconcrt:InternalContextBase.obj
 0001:00035d7c       ??1InternalContextBase@details@Concurrency@@UEAA@XZ 0000000180036d7c f   libconcrt:InternalContextBase.obj
 0001:00035db8       ??1ScopedCriticalRegion@ContextBase@details@Concurrency@@QEAA@XZ 0000000180036db8 f i libconcrt:InternalContextBase.obj
 0001:00035dd4       ??_EInternalContextBase@details@Concurrency@@WBA@EAAPEAXI@Z 0000000180036dd4 f i libconcrt:InternalContextBase.obj
 0001:00035de0       ??_EInternalContextBase@details@Concurrency@@UEAAPEAXI@Z 0000000180036de0 f i libconcrt:InternalContextBase.obj
 0001:00035de0       ??_GInternalContextBase@details@Concurrency@@UEAAPEAXI@Z 0000000180036de0 f i libconcrt:InternalContextBase.obj
 0001:00035e14       ?AddToRunnables@InternalContextBase@details@Concurrency@@MEAAXVlocation@3@@Z 0000000180036e14 f   libconcrt:InternalContextBase.obj
 0001:000360bc       ?Alloc@InternalContextBase@details@Concurrency@@UEAAPEAX_K@Z 00000001800370bc f   libconcrt:InternalContextBase.obj
 0001:0003612c       ?Block@InternalContextBase@details@Concurrency@@UEAAXXZ 000000018003712c f   libconcrt:InternalContextBase.obj
 0001:00036304       ?Cancel@InternalContextBase@details@Concurrency@@MEAAXXZ 0000000180037304 f   libconcrt:InternalContextBase.obj
 0001:00036398       ?Cleanup@InternalContextBase@details@Concurrency@@IEAAXXZ 0000000180037398 f   libconcrt:InternalContextBase.obj
 0001:000363bc       ?CleanupDispatchedContextOnCancel@InternalContextBase@details@Concurrency@@IEAAXXZ 00000001800373bc f   libconcrt:InternalContextBase.obj
 0001:000363e4       ?Dispatch@InternalContextBase@details@Concurrency@@UEAAXPEAUDispatchState@3@@Z 00000001800373e4 f   libconcrt:InternalContextBase.obj
 0001:000365b4       ?ExecuteChoreInline@InternalContextBase@details@Concurrency@@IEAAXPEAVWorkItem@23@@Z 00000001800375b4 f   libconcrt:InternalContextBase.obj
 0001:0003660c       ?ExecutedAssociatedChore@InternalContextBase@details@Concurrency@@IEAA_NXZ 000000018003760c f   libconcrt:InternalContextBase.obj
 0001:000366ac       ?FindWorkForBlockingOrNesting@InternalContextBase@details@Concurrency@@AEAAPEAV123@AEA_N0@Z 00000001800376ac f   libconcrt:InternalContextBase.obj
 0001:00036850       ?Free@InternalContextBase@details@Concurrency@@UEAAXPEAX@Z 0000000180037850 f   libconcrt:InternalContextBase.obj
 0001:00036890       ?GetAndResetOversubscribedVProc@InternalContextBase@details@Concurrency@@QEAAPEAVVirtualProcessor@23@PEAV423@@Z 0000000180037890 f   libconcrt:InternalContextBase.obj
 0001:000368b8       ?GetId@InternalContextBase@details@Concurrency@@WBA@EBAIXZ 00000001800378b8 f i libconcrt:InternalContextBase.obj
 0001:000368c4       ?GetProxy@InternalContextBase@details@Concurrency@@UEAAPEAUIThreadProxy@3@XZ 00000001800378c4 f   libconcrt:InternalContextBase.obj
 0001:000368cc       ?GetScheduler@InternalContextBase@details@Concurrency@@UEAAPEAUIScheduler@3@XZ 00000001800378cc f   libconcrt:InternalContextBase.obj
 0001:000368fc       ?GetVirtualProcessorId@InternalContextBase@details@Concurrency@@UEBAIXZ 00000001800378fc f   libconcrt:InternalContextBase.obj
 0001:00036944       ?GrowAndPush@?$StructuredWorkStealingQueue@VInternalContextBase@details@Concurrency@@V_HyperNonReentrantLock@23@@details@Concurrency@@AEAAXPEAVInternalContextBase@23@VSlot@?$Mailbox@VInternalContextBase@details@Concurrency@@@23@@Z 0000000180037944 f i libconcrt:InternalContextBase.obj
 0001:00036b04       ?IsSynchronouslyBlocked@InternalContextBase@details@Concurrency@@UEBA_NXZ 0000000180037b04 f i libconcrt:InternalContextBase.obj
 0001:00036b10       ?IsVirtualProcessorRetired@InternalContextBase@details@Concurrency@@IEAA_NXZ 0000000180037b10 f   libconcrt:InternalContextBase.obj
 0001:00036b80       ?LeaveScheduler@InternalContextBase@details@Concurrency@@AEAAXXZ 0000000180037b80 f   libconcrt:InternalContextBase.obj
 0001:00036cc4       ?Oversubscribe@InternalContextBase@details@Concurrency@@UEAAX_N@Z 0000000180037cc4 f   libconcrt:InternalContextBase.obj
 0001:00036d78       ?PrepareForUse@InternalContextBase@details@Concurrency@@QEAAXPEAVScheduleGroupSegmentBase@23@PEAU_Chore@23@_N@Z 0000000180037d78 f   libconcrt:InternalContextBase.obj
 0001:00036dc8       ?PrepareToRun@InternalContextBase@details@Concurrency@@MEAAXPEAVVirtualProcessor@23@@Z 0000000180037dc8 f i libconcrt:InternalContextBase.obj
 0001:00036dd8       ?ReclaimVirtualProcessor@InternalContextBase@details@Concurrency@@IEAAXXZ 0000000180037dd8 f   libconcrt:InternalContextBase.obj
 0001:00036e4c       ?RejoinScheduler@InternalContextBase@details@Concurrency@@AEAAXXZ 0000000180037e4c f   libconcrt:InternalContextBase.obj
 0001:00036e84       ?RemoveFromUse@InternalContextBase@details@Concurrency@@QEAAXXZ 0000000180037e84 f   libconcrt:InternalContextBase.obj
 0001:00036eb8       ?SetProxy@InternalContextBase@details@Concurrency@@UEAAXPEAUIThreadProxy@3@@Z 0000000180037eb8 f   libconcrt:InternalContextBase.obj
 0001:00036ef0       ?SpinUntilBlocked@InternalContextBase@details@Concurrency@@IEAAXXZ 0000000180037ef0 f   libconcrt:InternalContextBase.obj
 0001:00036f28       ?SpinYield@InternalContextBase@details@Concurrency@@UEAAXXZ 0000000180037f28 f   libconcrt:InternalContextBase.obj
 0001:0003704c       ?SwapScheduleGroupSegment@InternalContextBase@details@Concurrency@@QEAAXPEAVScheduleGroupSegmentBase@23@_N@Z 000000018003804c f   libconcrt:InternalContextBase.obj
 0001:0003710c       ?SwitchOut@InternalContextBase@details@Concurrency@@IEAA_NW4ReasonForSwitch@123@@Z 000000018003810c f   libconcrt:InternalContextBase.obj
 0001:0003729c       ?SwitchTo@InternalContextBase@details@Concurrency@@IEAAXPEAV123@W4ReasonForSwitch@123@@Z 000000018003829c f   libconcrt:InternalContextBase.obj
 0001:00037484       ?Unblock@InternalContextBase@details@Concurrency@@UEAAXXZ 0000000180038484 f   libconcrt:InternalContextBase.obj
 0001:000375d0       ?WaitForWork@InternalContextBase@details@Concurrency@@IEAAXXZ 00000001800385d0 f   libconcrt:InternalContextBase.obj
 0001:00037730       ?WorkWasFound@InternalContextBase@details@Concurrency@@IEAA_NPEAVWorkItem@23@@Z 0000000180038730 f   libconcrt:InternalContextBase.obj
 0001:000377dc       ?Yield@InternalContextBase@details@Concurrency@@UEAAXXZ 00000001800387dc f   libconcrt:InternalContextBase.obj
 0001:000379f8       ??0SchedulingRing@details@Concurrency@@QEAA@PEAVSchedulerBase@12@H@Z 00000001800389f8 f   libconcrt:SchedulingRing.obj
 0001:00037ab8       ??1?$ListArray@VScheduleGroupSegmentBase@details@Concurrency@@@details@Concurrency@@QEAA@XZ 0000000180038ab8 f i libconcrt:SchedulingRing.obj
 0001:00037c04       ??1SchedulingRing@details@Concurrency@@QEAA@XZ 0000000180038c04 f   libconcrt:SchedulingRing.obj
 0001:00037c2c       ?Activate@SchedulingRing@details@Concurrency@@QEAAXXZ 0000000180038c2c f   libconcrt:SchedulingRing.obj
 0001:00037c38       ?CheckForDeletion@?$ListArray@VScheduleGroupSegmentBase@details@Concurrency@@@details@Concurrency@@AEAAXXZ 0000000180038c38 f i libconcrt:SchedulingRing.obj
 0001:00037cb8       ?CheckForDeletionBridge@?$ListArray@VScheduleGroupSegmentBase@details@Concurrency@@@details@Concurrency@@CAXPEAV123@@Z 0000000180038cb8 f i libconcrt:SchedulingRing.obj
 0001:00037cc0       ?Remove@?$ListArray@VScheduleGroupSegmentBase@details@Concurrency@@@details@Concurrency@@QEAA_NPEAVScheduleGroupSegmentBase@23@H_N@Z 0000000180038cc0 f i libconcrt:SchedulingRing.obj
 0001:00037e04       ?RemoveScheduleGroupSegment@SchedulingRing@details@Concurrency@@AEAAXPEAVScheduleGroupSegmentBase@23@@Z 0000000180038e04 f   libconcrt:SchedulingRing.obj
 0001:00037e2c       ??0?$ListArray@U?$ListArrayInlineLink@VWorkQueue@details@Concurrency@@@details@Concurrency@@@details@Concurrency@@QEAA@PEAVSchedulerBase@12@HH@Z 0000000180038e2c f i libconcrt:ScheduleGroupBase.obj
 0001:00037e2c       ??0?$ListArray@VExternalStatistics@details@Concurrency@@@details@Concurrency@@QEAA@PEAVSchedulerBase@12@HH@Z 0000000180038e2c f i libconcrt:SchedulerBase.obj
 0001:00037e2c       ??0?$ListArray@VScheduleGroupBase@details@Concurrency@@@details@Concurrency@@QEAA@PEAVSchedulerBase@12@HH@Z 0000000180038e2c f i libconcrt:SchedulerBase.obj
 0001:00037e2c       ??0?$ListArray@VVirtualProcessor@details@Concurrency@@@details@Concurrency@@QEAA@PEAVSchedulerBase@12@HH@Z 0000000180038e2c f i libconcrt:SchedulingNode.obj
 0001:00037e2c       ??0?$ListArray@VScheduleGroupSegmentBase@details@Concurrency@@@details@Concurrency@@QEAA@PEAVSchedulerBase@12@HH@Z 0000000180038e2c f i libconcrt:SchedulingRing.obj
 0001:00037e2c       ??0?$ListArray@VWorkQueue@details@Concurrency@@@details@Concurrency@@QEAA@PEAVSchedulerBase@12@HH@Z 0000000180038e2c f i libconcrt:ScheduleGroupBase.obj
 0001:00037f5c       ??0?$Mailbox@V_UnrealizedChore@details@Concurrency@@@details@Concurrency@@QEAA@PEAVSchedulerBase@12@AEBVQuickBitSet@12@_NI@Z 0000000180038f5c f i libconcrt:ScheduleGroupBase.obj
 0001:00038020       ??0ScheduleGroupBase@details@Concurrency@@QEAA@PEAVSchedulerBase@12@PEAVlocation@2@@Z 0000000180039020 f   libconcrt:ScheduleGroupBase.obj
 0001:000380b4       ??0ScheduleGroupSegmentBase@details@Concurrency@@IEAA@PEAVScheduleGroupBase@12@PEAVSchedulingRing@12@PEAVlocation@2@@Z 00000001800390b4 f   libconcrt:ScheduleGroupBase.obj
 0001:000381c0       ??0Segment@?$Mailbox@V_UnrealizedChore@details@Concurrency@@@details@Concurrency@@QEAA@PEAVSchedulerBase@23@AEBVQuickBitSet@23@II@Z 00000001800391c0 f i libconcrt:ScheduleGroupBase.obj
 0001:00038248       ??1?$ListArray@U?$ListArrayInlineLink@VWorkQueue@details@Concurrency@@@details@Concurrency@@@details@Concurrency@@QEAA@XZ 0000000180039248 f i libconcrt:ScheduleGroupBase.obj
 0001:0003833c       ??1?$ListArray@VWorkQueue@details@Concurrency@@@details@Concurrency@@QEAA@XZ 000000018003933c f i libconcrt:ScheduleGroupBase.obj
 0001:000384f8       ??1?$Mailbox@V_UnrealizedChore@details@Concurrency@@@details@Concurrency@@QEAA@XZ 00000001800394f8 f i libconcrt:ScheduleGroupBase.obj
 0001:0003856c       ??1ScheduleGroupSegmentBase@details@Concurrency@@UEAA@XZ 000000018003956c f   libconcrt:ScheduleGroupBase.obj
 0001:000385f0       ??_GCacheLocalScheduleGroup@details@Concurrency@@UEAAPEAXI@Z 00000001800395f0 f i libconcrt:SchedulerBase.obj
 0001:000385f0       ??_ECacheLocalScheduleGroup@details@Concurrency@@UEAAPEAXI@Z 00000001800395f0 f i libconcrt:SchedulerBase.obj
 0001:000385f0       ??_GScheduleGroupBase@details@Concurrency@@UEAAPEAXI@Z 00000001800395f0 f i libconcrt:ScheduleGroupBase.obj
 0001:000385f0       ??_EScheduleGroupBase@details@Concurrency@@UEAAPEAXI@Z 00000001800395f0 f i libconcrt:ScheduleGroupBase.obj
 0001:0003861c       ??_EScheduleGroupSegmentBase@details@Concurrency@@UEAAPEAXI@Z 000000018003961c f i libconcrt:ScheduleGroupBase.obj
 0001:0003861c       ??_GScheduleGroupSegmentBase@details@Concurrency@@UEAAPEAXI@Z 000000018003961c f i libconcrt:ScheduleGroupBase.obj
 0001:00038650       ?Add@?$ListArray@U?$ListArrayInlineLink@VWorkQueue@details@Concurrency@@@details@Concurrency@@@details@Concurrency@@QEAAHPEAU?$ListArrayInlineLink@VWorkQueue@details@Concurrency@@@23@@Z 0000000180039650 f i libconcrt:ScheduleGroupBase.obj
 0001:000387c4       ?Add@?$ListArray@VExternalStatistics@details@Concurrency@@@details@Concurrency@@QEAAHPEAVExternalStatistics@23@@Z 00000001800397c4 f i libconcrt:ScheduleGroupBase.obj
 0001:00038938       ?Add@?$ListArray@VScheduleGroupSegmentBase@details@Concurrency@@@details@Concurrency@@QEAAHPEAVScheduleGroupSegmentBase@23@@Z 0000000180039938 f i libconcrt:ScheduleGroupBase.obj
 0001:00038ab0       ?AddRunnableContext@ScheduleGroupSegmentBase@details@Concurrency@@IEAAXPEAVInternalContextBase@23@Vlocation@3@@Z 0000000180039ab0 f   libconcrt:ScheduleGroupBase.obj
 0001:00038c44       ?CheckForDeletionBridge@?$ListArray@U?$ListArrayInlineLink@VWorkQueue@details@Concurrency@@@details@Concurrency@@@details@Concurrency@@CAXPEAV123@@Z 0000000180039c44 f i libconcrt:ScheduleGroupBase.obj
 0001:00038c98       ?CreateSegment@ScheduleGroupBase@details@Concurrency@@IEAAPEAVScheduleGroupSegmentBase@23@PEAVlocation@3@PEAVSchedulingRing@23@@Z 0000000180039c98 f   libconcrt:ScheduleGroupBase.obj
 0001:00038d80       ?DemandInitialize@?$Mailbox@V_UnrealizedChore@details@Concurrency@@@details@Concurrency@@AEAAXXZ 0000000180039d80 f i libconcrt:ScheduleGroupBase.obj
 0001:00038e10       ?Dequeue@?$Mailbox@V_UnrealizedChore@details@Concurrency@@@details@Concurrency@@QEAA_NPEAPEAV_UnrealizedChore@23@@Z 0000000180039e10 f i libconcrt:ScheduleGroupBase.obj
 0001:00038f08       ?DetachActiveWorkQueue@ScheduleGroupSegmentBase@details@Concurrency@@IEAAXPEAVWorkQueue@23@@Z 0000000180039f08 f   libconcrt:ScheduleGroupBase.obj
 0001:00038f98       ?FindSegment@ScheduleGroupBase@details@Concurrency@@MEAAPEAVScheduleGroupSegmentBase@23@PEAVlocation@3@PEAVSchedulingRing@23@@Z 0000000180039f98 f   libconcrt:ScheduleGroupBase.obj
 0001:00039010       ?GetDetachedWorkQueue@ScheduleGroupSegmentBase@details@Concurrency@@IEAAPEAVWorkQueue@23@XZ 000000018003a010 f   libconcrt:ScheduleGroupBase.obj
 0001:00039124       ?GetInternalContext@ScheduleGroupSegmentBase@details@Concurrency@@IEAAPEAVInternalContextBase@23@PEAU_Chore@23@_N@Z 000000018003a124 f   libconcrt:ScheduleGroupBase.obj
 0001:00039184       ?GetRealizedChore@ScheduleGroupSegmentBase@details@Concurrency@@IEAAPEAVRealizedChore@23@XZ 000000018003a184 f   libconcrt:ScheduleGroupBase.obj
 0001:000391f0       ?HasRealizedChores@ScheduleGroupSegmentBase@details@Concurrency@@IEBA_NXZ 000000018003a1f0 f   libconcrt:ScheduleGroupBase.obj
 0001:000391fc       ?HasUnrealizedChores@ScheduleGroupSegmentBase@details@Concurrency@@IEAA_NXZ 000000018003a1fc f   libconcrt:ScheduleGroupBase.obj
 0001:00039210       ?Initialize@ScheduleGroupBase@details@Concurrency@@QEAAXPEAVlocation@3@@Z 000000018003a210 f   libconcrt:ScheduleGroupBase.obj
 0001:0003924c       ?Initialize@ScheduleGroupSegmentBase@details@Concurrency@@IEAAXPEAVScheduleGroupBase@23@PEAVSchedulingRing@23@PEAVlocation@3@@Z 000000018003a24c f   libconcrt:ScheduleGroupBase.obj
 0001:0003936c       ?LocateMailboxSegment@?$Mailbox@V_UnrealizedChore@details@Concurrency@@@details@Concurrency@@AEAAPEAUSegment@123@I_N@Z 000000018003a36c f i libconcrt:ScheduleGroupBase.obj
 0001:00039424       ?LocateSegment@ScheduleGroupBase@details@Concurrency@@UEAAPEAVScheduleGroupSegmentBase@23@PEAVlocation@3@_N@Z 000000018003a424 f   libconcrt:ScheduleGroupBase.obj
 0001:000395a8       ?LocateUnrealizedChores@ScheduleGroupSegmentBase@details@Concurrency@@IEAAPEAVWorkQueue@23@XZ 000000018003a5a8 f   libconcrt:ScheduleGroupBase.obj
 0001:000396a8       ?RedetachQueue@ScheduleGroupSegmentBase@details@Concurrency@@QEAAXPEAVWorkQueue@23@@Z 000000018003a6a8 f   libconcrt:ScheduleGroupBase.obj
 0001:000396b8       ?ReleaseInternalContext@ScheduleGroupSegmentBase@details@Concurrency@@IEAAXPEAVInternalContextBase@23@@Z 000000018003a6b8 f   libconcrt:ScheduleGroupBase.obj
 0001:000396f0       ?Remove@?$ListArray@U?$ListArrayInlineLink@VWorkQueue@details@Concurrency@@@details@Concurrency@@@details@Concurrency@@QEAA_NPEAU?$ListArrayInlineLink@VWorkQueue@details@Concurrency@@@23@H_N@Z 000000018003a6f0 f i libconcrt:ScheduleGroupBase.obj
 0001:00039834       ?Remove@ScheduleGroupSegmentBase@details@Concurrency@@IEAAXXZ 000000018003a834 f   libconcrt:ScheduleGroupBase.obj
 0001:00039868       ?RemoveSegments@ScheduleGroupBase@details@Concurrency@@MEAAXXZ 000000018003a868 f   libconcrt:ScheduleGroupBase.obj
 0001:000398c4       ?RetireDetachedQueue@ScheduleGroupSegmentBase@details@Concurrency@@QEAAXPEAVWorkQueue@23@@Z 000000018003a8c4 f   libconcrt:ScheduleGroupBase.obj
 0001:0003992c       ?SafelyDeleteDetachedWorkQueue@ScheduleGroupSegmentBase@details@Concurrency@@IEAA_NPEAVWorkQueue@23@@Z 000000018003a92c f   libconcrt:ScheduleGroupBase.obj
 0001:0003998c       ?ScheduleTask@ScheduleGroupBase@details@Concurrency@@QEAAXP6AXPEAX@Z0AEAVlocation@3@@Z 000000018003a98c f   libconcrt:ScheduleGroupBase.obj
 0001:000399f4       ?ScheduleTask@ScheduleGroupBase@details@Concurrency@@UEAAXP6AXPEAX@Z0@Z 000000018003a9f4 f   libconcrt:ScheduleGroupBase.obj
 0001:00039a5c       ?ScheduleTask@ScheduleGroupSegmentBase@details@Concurrency@@QEAAXP6AXPEAX@Z0@Z 000000018003aa5c f   libconcrt:ScheduleGroupBase.obj
 0001:00039c1c       ?StealUnrealizedChore@ScheduleGroupSegmentBase@details@Concurrency@@IEAAPEAV_UnrealizedChore@23@_N@Z 000000018003ac1c f   libconcrt:ScheduleGroupBase.obj
 0001:00039fb4       ??IQuickBitSet@details@Concurrency@@QEBA?AV012@AEBV012@@Z 000000018003afb4 f i libconcrt:CacheLocalScheduleGroup.obj
 0001:0003a05c       ?AddToRunnablesCollection@CacheLocalScheduleGroupSegment@details@Concurrency@@EEAAXPEAVInternalContextBase@23@@Z 000000018003b05c f   libconcrt:CacheLocalScheduleGroup.obj
 0001:0003a0c0       ?Enqueue@?$Mailbox@V_UnrealizedChore@details@Concurrency@@@details@Concurrency@@QEAA?AVSlot@123@PEAV_UnrealizedChore@23@@Z 000000018003b0c0 f i libconcrt:CacheLocalScheduleGroup.obj
 0001:0003a150       ?MailChore@CacheLocalScheduleGroup@details@Concurrency@@UEAA?AVSlot@?$Mailbox@V_UnrealizedChore@details@Concurrency@@@23@PEAV_UnrealizedChore@23@PEAVlocation@3@PEAPEAVScheduleGroupSegmentBase@23@@Z 000000018003b150 f   libconcrt:CacheLocalScheduleGroup.obj
 0001:0003a1c4       ?NotifyAffinitizedWork@CacheLocalScheduleGroupSegment@details@Concurrency@@UEAAXXZ 000000018003b1c4 f   libconcrt:CacheLocalScheduleGroup.obj
 0001:0003a228       ?PostAffinityMessage@SchedulerBase@details@Concurrency@@QEAAXAEBVQuickBitSet@23@@Z 000000018003b228 f i libconcrt:CacheLocalScheduleGroup.obj
 0001:0003a2d0       ?AddToRunnablesCollection@FairScheduleGroupSegment@details@Concurrency@@EEAAXPEAVInternalContextBase@23@@Z 000000018003b2d0 f   libconcrt:FairScheduleGroup.obj
 0001:0003a334       ?FindSegment@FairScheduleGroup@details@Concurrency@@MEAAPEAVScheduleGroupSegmentBase@23@PEAVlocation@3@PEAVSchedulingRing@23@@Z 000000018003b334 f   libconcrt:FairScheduleGroup.obj
 0001:0003a368       ?LocateSegment@FairScheduleGroup@details@Concurrency@@UEAAPEAVScheduleGroupSegmentBase@23@PEAVlocation@3@_N@Z 000000018003b368 f   libconcrt:FairScheduleGroup.obj
 0001:0003a408       ??0ExternalContextBase@details@Concurrency@@QEAA@PEAVSchedulerBase@12@_N@Z 000000018003b408 f   libconcrt:ExternalContextBase.obj
 0001:0003a4c4       ??1ExternalContextBase@details@Concurrency@@UEAA@XZ 000000018003b4c4 f   libconcrt:ExternalContextBase.obj
 0001:0003a4f4       ??_GExternalContextBase@details@Concurrency@@UEAAPEAXI@Z 000000018003b4f4 f i libconcrt:ExternalContextBase.obj
 0001:0003a4f4       ??_EExternalContextBase@details@Concurrency@@UEAAPEAXI@Z 000000018003b4f4 f i libconcrt:ExternalContextBase.obj
 0001:0003a528       ?Alloc@ExternalContextBase@details@Concurrency@@UEAAPEAX_K@Z 000000018003b528 f   libconcrt:ExternalContextBase.obj
 0001:0003a57c       ?Block@ExternalContextBase@details@Concurrency@@UEAAXXZ 000000018003b57c f   libconcrt:ExternalContextBase.obj
 0001:0003a610       ?Cleanup@ExternalContextBase@details@Concurrency@@AEAAXXZ 000000018003b610 f   libconcrt:ExternalContextBase.obj
 0001:0003a678       ?Free@ExternalContextBase@details@Concurrency@@UEAAXPEAX@Z 000000018003b678 f   libconcrt:ExternalContextBase.obj
 0001:0003a6cc       ?ImplicitDetachHandler@ExternalContextBase@details@Concurrency@@CAXPEAU_TP_CALLBACK_INSTANCE@@PEAXPEAU_TP_WAIT@@K@Z 000000018003b6cc f   libconcrt:ExternalContextBase.obj
 0001:0003a700       ?ImplicitDetachHandlerXP@ExternalContextBase@details@Concurrency@@CAXPEAXE@Z 000000018003b700 f   libconcrt:ExternalContextBase.obj
 0001:0003a72c       ?IsSynchronouslyBlocked@ExternalContextBase@details@Concurrency@@UEBA_NXZ 000000018003b72c f i libconcrt:ExternalContextBase.obj
 0001:0003a738       ?Oversubscribe@ExternalContextBase@details@Concurrency@@UEAAX_N@Z 000000018003b738 f   libconcrt:ExternalContextBase.obj
 0001:0003a774       ?PrepareForUse@ExternalContextBase@details@Concurrency@@QEAAX_N@Z 000000018003b774 f   libconcrt:ExternalContextBase.obj
 0001:0003a8a4       ?RemoveFromUse@ExternalContextBase@details@Concurrency@@QEAAXXZ 000000018003b8a4 f   libconcrt:ExternalContextBase.obj
 0001:0003a8d4       ?SpinYield@ExternalContextBase@details@Concurrency@@UEAAXXZ 000000018003b8d4 f i libconcrt:ExternalContextBase.obj
 0001:0003a904       ?Unblock@ExternalContextBase@details@Concurrency@@UEAAXXZ 000000018003b904 f   libconcrt:ExternalContextBase.obj
 0001:0003a9dc       ?Yield@ExternalContextBase@details@Concurrency@@UEAAXXZ 000000018003b9dc f   libconcrt:ExternalContextBase.obj
 0001:0003aa44       ??0ThreadScheduler@details@Concurrency@@QEAA@AEBVSchedulerPolicy@2@@Z 000000018003ba44 f   libconcrt:ThreadScheduler.obj
 0001:0003aa88       ??_EThreadInternalContext@details@Concurrency@@WBA@EAAPEAXI@Z 000000018003ba88 f i libconcrt:ThreadScheduler.obj
 0001:0003aa94       ??_EThreadScheduler@details@Concurrency@@WBA@EAAPEAXI@Z 000000018003ba94 f i libconcrt:ThreadScheduler.obj
 0001:0003aaa0       ??_GThreadInternalContext@details@Concurrency@@UEAAPEAXI@Z 000000018003baa0 f i libconcrt:ThreadScheduler.obj
 0001:0003aaa0       ??_EThreadInternalContext@details@Concurrency@@UEAAPEAXI@Z 000000018003baa0 f i libconcrt:ThreadScheduler.obj
 0001:0003aaec       ??_EThreadScheduler@details@Concurrency@@UEAAPEAXI@Z 000000018003baec f i libconcrt:ThreadScheduler.obj
 0001:0003aaec       ??_GThreadScheduler@details@Concurrency@@UEAAPEAXI@Z 000000018003baec f i libconcrt:ThreadScheduler.obj
 0001:0003ab38       ?AddVirtualProcessors@ThreadScheduler@details@Concurrency@@UEAAXPEAPEAUIVirtualProcessorRoot@3@I@Z 000000018003bb38 f i libconcrt:ThreadScheduler.obj
 0001:0003ab44       ?Create@ThreadScheduler@details@Concurrency@@SAPEAV123@AEBVSchedulerPolicy@3@@Z 000000018003bb44 f   libconcrt:ThreadScheduler.obj
 0001:0003ab80       ?CreateInternalContext@ThreadScheduler@details@Concurrency@@MEAAPEAVInternalContextBase@23@XZ 000000018003bb80 f   libconcrt:ThreadScheduler.obj
 0001:0003abec       ?CreateVirtualProcessor@ThreadScheduler@details@Concurrency@@UEAAPEAVVirtualProcessor@23@PEAVSchedulingNode@23@PEAUIVirtualProcessorRoot@3@@Z 000000018003bbec f   libconcrt:ThreadScheduler.obj
 0001:0003ac38       ?do_encoding@codecvt_base@std@@MEBAHXZ 000000018003bc38 f i libcpmt:cout.obj
 0001:0003ac38       ?do_max_length@codecvt_base@std@@MEBAHXZ 000000018003bc38 f i libcpmt:cout.obj
 0001:0003ac38       _get_startup_argv_mode     000000018003bc38 f i LIBCMT:argv_mode.obj
 0001:0003ac38       DllMain                    000000018003bc38 f i LIBCMT:dll_dllmain_stub.obj
 0001:0003ac38       ?GetContextKind@ThreadInternalContext@details@Concurrency@@UEBA?AW4ContextKind@ContextBase@23@XZ 000000018003bc38 f i libconcrt:ThreadScheduler.obj
 0001:0003ac40       ?GetIScheduler@ThreadScheduler@details@Concurrency@@UEAAPEAUIScheduler@3@XZ 000000018003bc40 f i libconcrt:ThreadScheduler.obj
 0001:0003ac48       ?GetId@ThreadScheduler@details@Concurrency@@UEBAIXZ 000000018003bc48 f i libconcrt:ThreadScheduler.obj
 0001:0003ac78       ?GetPolicy@ThreadScheduler@details@Concurrency@@UEBA?AVSchedulerPolicy@3@XZ 000000018003bc78 f i libconcrt:ThreadScheduler.obj
 0001:0003ac98       ?GetPolicy@ThreadScheduler@details@Concurrency@@WBA@EBA?AVSchedulerPolicy@3@XZ 000000018003bc98 f i libconcrt:ThreadScheduler.obj
 0001:0003aca4       ?RemoveVirtualProcessors@ThreadScheduler@details@Concurrency@@UEAAXPEAPEAUIVirtualProcessorRoot@3@I@Z 000000018003bca4 f i libconcrt:ThreadScheduler.obj
 0001:0003acb0       ?Statistics@ThreadScheduler@details@Concurrency@@UEAAXPEAI00@Z 000000018003bcb0 f i libconcrt:ThreadScheduler.obj
 0001:0003acbc       ?OneShotStaticConstruction@UMSThreadScheduler@details@Concurrency@@SAXXZ 000000018003bcbc f   libconcrt:UMSThreadScheduler.obj
 0001:0003ad08       ?OneShotStaticDestruction@UMSThreadScheduler@details@Concurrency@@SAXXZ 000000018003bd08 f   libconcrt:UMSThreadScheduler.obj
 0001:0003ad24       ??0exception_ptr@std@@QEAA@AEBV01@@Z 000000018003bd24 f i libconcrt:TaskCollectionBase.obj
 0001:0003ad3c       ?_Current_exception@exception_ptr@std@@SA?AV12@XZ 000000018003bd3c f i libconcrt:TaskCollectionBase.obj
 0001:0003ad5c       ?_FinishCancelState@_TaskCollectionBase@details@Concurrency@@IEAAX_K@Z 000000018003bd5c f   libconcrt:TaskCollectionBase.obj
 0001:0003ad94       ?_GetTokenState@_TaskCollectionBase@details@Concurrency@@QEAAPEAV_CancellationTokenState@23@PEAPEAV_CancellationTokenRegistration@23@@Z 000000018003bd94 f   libconcrt:TaskCollectionBase.obj
 0001:0003adc0       ?_MarkCancellation@_TaskCollectionBase@details@Concurrency@@IEAA_NXZ 000000018003bdc0 f   libconcrt:TaskCollectionBase.obj
 0001:0003ade0       ?_RaisedException@_TaskCollectionBase@details@Concurrency@@IEAAXXZ 000000018003bde0 f   libconcrt:TaskCollectionBase.obj
 0001:0003ae60       ?_RethrowException@_TaskCollectionBase@details@Concurrency@@IEAAXXZ 000000018003be60 f   libconcrt:TaskCollectionBase.obj
 0001:0003aee8       ?_RethrowException@exception_ptr@std@@QEBAXXZ 000000018003bee8 f i libconcrt:TaskCollectionBase.obj
 0001:0003aef4       ?current_exception@std@@YA?AVexception_ptr@1@XZ 000000018003bef4 f i libconcrt:TaskCollectionBase.obj
 0001:0003af0c       ?rethrow_exception@std@@YAXVexception_ptr@1@@Z 000000018003bf0c f i libconcrt:TaskCollectionBase.obj
 0001:0003af24       ??0?$StructuredWorkStealingQueue@VInternalContextBase@details@Concurrency@@V_HyperNonReentrantLock@23@@details@Concurrency@@QEAA@PEAV_HyperNonReentrantLock@12@@Z 000000018003bf24 f i libconcrt:VirtualProcessor.obj
 0001:0003af24       ??0?$StructuredWorkStealingQueue@V_UnrealizedChore@details@Concurrency@@V_CriticalNonReentrantLock@23@@details@Concurrency@@QEAA@PEAV_CriticalNonReentrantLock@12@@Z 000000018003bf24 f i libconcrt:WorkQueue.obj
 0001:0003afa0       ??0?$WorkStealingQueue@V_UnrealizedChore@details@Concurrency@@V_CriticalNonReentrantLock@23@@details@Concurrency@@QEAA@PEAV_CriticalNonReentrantLock@12@@Z 000000018003bfa0 f i libconcrt:WorkQueue.obj
 0001:0003b018       ??0WorkQueue@details@Concurrency@@QEAA@XZ 000000018003c018 f   libconcrt:WorkQueue.obj
 0001:0003b090       ?RedetachFromScheduleGroupAtSafePoint@WorkQueue@details@Concurrency@@QEAAXPEAVScheduleGroupSegmentBase@23@@Z 000000018003c090 f   libconcrt:WorkQueue.obj
 0001:0003b0b8       ?Reinitialize@WorkQueue@details@Concurrency@@AEAAXXZ 000000018003c0b8 f   libconcrt:WorkQueue.obj
 0001:0003b124       ?RetireAtSafePoint@WorkQueue@details@Concurrency@@QEAAXPEAVScheduleGroupSegmentBase@23@@Z 000000018003c124 f   libconcrt:WorkQueue.obj
 0001:0003b14c       ?StaticRedetachFromScheduleGroup@WorkQueue@details@Concurrency@@CAXPEAV123@@Z 000000018003c14c f   libconcrt:WorkQueue.obj
 0001:0003b15c       ?StaticRetire@WorkQueue@details@Concurrency@@CAXPEAV123@@Z 000000018003c15c f   libconcrt:WorkQueue.obj
 0001:0003b16c       ?Steal@WorkQueue@details@Concurrency@@QEAAPEAV_UnrealizedChore@23@_N@Z 000000018003c16c f   libconcrt:WorkQueue.obj
 0001:0003b1c8       ?Sweep@?$WorkStealingQueue@V_UnrealizedChore@details@Concurrency@@V_CriticalNonReentrantLock@23@@details@Concurrency@@QEAAXP6A_NPEAV_UnrealizedChore@23@PEAX@Z12@Z 000000018003c1c8 f i libconcrt:WorkQueue.obj
 0001:0003b2a0       ?SweepUnstructured@WorkQueue@details@Concurrency@@QEAAXP6A_NPEAV_UnrealizedChore@23@PEAX@Z12@Z 000000018003c2a0 f   libconcrt:WorkQueue.obj
 0001:0003b2ac       ?TryToSteal@WorkQueue@details@Concurrency@@QEAAPEAV_UnrealizedChore@23@_NAEA_N@Z 000000018003c2ac f   libconcrt:WorkQueue.obj
 0001:0003b318       ?UnlockedSteal@?$StructuredWorkStealingQueue@V_UnrealizedChore@details@Concurrency@@V_CriticalNonReentrantLock@23@@details@Concurrency@@QEAAPEAV_UnrealizedChore@23@_N@Z 000000018003c318 f i libconcrt:WorkQueue.obj
 0001:0003b424       ?UnlockedSteal@?$WorkStealingQueue@V_UnrealizedChore@details@Concurrency@@V_CriticalNonReentrantLock@23@@details@Concurrency@@QEAAPEAV_UnrealizedChore@23@_N0@Z 000000018003c424 f i libconcrt:WorkQueue.obj
 0001:0003b548       ?UnlockedSteal@WorkQueue@details@Concurrency@@AEAAPEAV_UnrealizedChore@23@_N@Z 000000018003c548 f   libconcrt:WorkQueue.obj
 0001:0003b670       ?_CancelViaToken@_UnrealizedChore@details@Concurrency@@CAXPEAVContextBase@23@@Z 000000018003c670 f   libconcrt:Chores.obj
 0001:0003b6a0       ?_InternalFree@_UnrealizedChore@details@Concurrency@@CAXPEAV123@@Z 000000018003c6a0 f   libconcrt:Chores.obj
 0001:0003b6d4       ?_PrepareSteal@_UnrealizedChore@details@Concurrency@@QEAAXPEAVContextBase@23@@Z 000000018003c6d4 f   libconcrt:Chores.obj
 0001:0003b6ec       ?_PrepareStealStructured@_UnrealizedChore@details@Concurrency@@AEAAXPEAVContextBase@23@@Z 000000018003c6ec f   libconcrt:Chores.obj
 0001:0003b724       ?_PrepareStealUnstructured@_UnrealizedChore@details@Concurrency@@AEAAXPEAVContextBase@23@@Z 000000018003c724 f   libconcrt:Chores.obj
 0001:0003b7b8       ?_SetDetached@_UnrealizedChore@details@Concurrency@@QEAAX_N@Z 000000018003c7b8 f   libconcrt:Chores.obj
 0001:0003b7bc       ?_StructuredChoreWrapper@_UnrealizedChore@details@Concurrency@@CAXPEAV123@@Z 000000018003c7bc f   libconcrt:Chores.obj
 0001:0003b960       ??0VirtualProcessorRoot@details@Concurrency@@QEAA@PEAVSchedulerProxy@12@PEAUSchedulerNode@12@I@Z 000000018003c960 f   libconcrt:VirtualProcessorRoot.obj
 0001:0003b9b8       ??_GVirtualProcessorRoot@details@Concurrency@@UEAAPEAXI@Z 000000018003c9b8 f i libconcrt:VirtualProcessorRoot.obj
 0001:0003b9b8       ??_EVirtualProcessorRoot@details@Concurrency@@UEAAPEAXI@Z 000000018003c9b8 f i libconcrt:VirtualProcessorRoot.obj
 0001:0003b9f0       ?CurrentSubscriptionLevel@VirtualProcessorRoot@details@Concurrency@@UEBAIXZ 000000018003c9f0 f i libconcrt:VirtualProcessorRoot.obj
 0001:0003b9fc       ?GetExecutionResourceId@VirtualProcessorRoot@details@Concurrency@@UEBAIXZ 000000018003c9fc f i libconcrt:VirtualProcessorRoot.obj
 0001:0003ba00       ?GetId@VirtualProcessorRoot@details@Concurrency@@UEBAIXZ 000000018003ca00 f i libconcrt:VirtualProcessorRoot.obj
 0001:0003ba04       ?GetNodeId@VirtualProcessorRoot@details@Concurrency@@UEBAIXZ 000000018003ca04 f i libconcrt:VirtualProcessorRoot.obj
 0001:0003ba08       ?Remove@VirtualProcessorRoot@details@Concurrency@@UEAAXPEAUIScheduler@3@@Z 000000018003ca08 f   libconcrt:VirtualProcessorRoot.obj
 0001:0003ba78       ?ResetSubscriptionLevel@VirtualProcessorRoot@details@Concurrency@@QEAAXXZ 000000018003ca78 f   libconcrt:VirtualProcessorRoot.obj
 0001:0003ba9c       ?Subscribe@VirtualProcessorRoot@details@Concurrency@@QEAAXXZ 000000018003ca9c f   libconcrt:VirtualProcessorRoot.obj
 0001:0003baac       ?Unsubscribe@VirtualProcessorRoot@details@Concurrency@@QEAAXXZ 000000018003caac f   libconcrt:VirtualProcessorRoot.obj
 0001:0003babc       ??0FreeVirtualProcessorRoot@details@Concurrency@@QEAA@PEAVSchedulerProxy@12@PEAUSchedulerNode@12@I@Z 000000018003cabc f   libconcrt:FreeVirtualProcessorRoot.obj
 0001:0003baf4       ??_EFreeVirtualProcessorRoot@details@Concurrency@@UEAAPEAXI@Z 000000018003caf4 f i libconcrt:FreeVirtualProcessorRoot.obj
 0001:0003baf4       ??_GFreeVirtualProcessorRoot@details@Concurrency@@UEAAPEAXI@Z 000000018003caf4 f i libconcrt:FreeVirtualProcessorRoot.obj
 0001:0003bb2c       ?Activate@FreeVirtualProcessorRoot@details@Concurrency@@UEAAXPEAUIExecutionContext@3@@Z 000000018003cb2c f   libconcrt:FreeVirtualProcessorRoot.obj
 0001:0003bc6c       ?Affinitize@FreeVirtualProcessorRoot@details@Concurrency@@QEAAXPEAVFreeThreadProxy@23@@Z 000000018003cc6c f   libconcrt:FreeVirtualProcessorRoot.obj
 0001:0003bd20       ?Deactivate@FreeVirtualProcessorRoot@details@Concurrency@@UEAA_NPEAUIExecutionContext@3@@Z 000000018003cd20 f   libconcrt:FreeVirtualProcessorRoot.obj
 0001:0003be4c       ?DeleteThis@FreeVirtualProcessorRoot@details@Concurrency@@UEAAXXZ 000000018003ce4c f   libconcrt:FreeVirtualProcessorRoot.obj
 0001:0003bef4       ?EnsureAllTasksVisible@FreeVirtualProcessorRoot@details@Concurrency@@UEAAXPEAUIExecutionContext@3@@Z 000000018003cef4 f   libconcrt:FreeVirtualProcessorRoot.obj
 0001:0003bfb4       ?ResetOnIdle@FreeVirtualProcessorRoot@details@Concurrency@@QEAAXW4SwitchingProxyState@3@@Z 000000018003cfb4 f   libconcrt:FreeVirtualProcessorRoot.obj
 0001:0003c084       ?AssociateExecutionContext@FreeThreadProxy@details@Concurrency@@QEAAXPEAUIExecutionContext@3@@Z 000000018003d084 f   libconcrt:FreeThreadProxy.obj
 0001:0003c0c8       ?Dispatch@FreeThreadProxy@details@Concurrency@@EEAAXXZ 000000018003d0c8 f   libconcrt:FreeThreadProxy.obj
 0001:0003c1a8       ?ReturnIdleProxy@FreeThreadProxy@details@Concurrency@@QEAAXXZ 000000018003d1a8 f   libconcrt:FreeThreadProxy.obj
 0001:0003c1f0       ?SwitchOut@FreeThreadProxy@details@Concurrency@@UEAAXW4SwitchingProxyState@3@@Z 000000018003d1f0 f   libconcrt:FreeThreadProxy.obj
 0001:0003c250       ?SwitchTo@FreeThreadProxy@details@Concurrency@@UEAAXPEAUIExecutionContext@3@W4SwitchingProxyState@3@@Z 000000018003d250 f   libconcrt:FreeThreadProxy.obj
 0001:0003c340       ??0ThreadProxy@details@Concurrency@@QEAA@PEAUIThreadProxyFactory@12@I@Z 000000018003d340 f   libconcrt:ThreadProxy.obj
 0001:0003c448       ??0scheduler_worker_creation_error@Concurrency@@QEAA@AEBV01@@Z 000000018003d448 f i libconcrt:ThreadProxy.obj
 0001:0003c4a0       ??1ThreadProxy@details@Concurrency@@UEAA@XZ 000000018003d4a0 f   libconcrt:ThreadProxy.obj
 0001:0003c500       ??_GThreadProxy@details@Concurrency@@UEAAPEAXI@Z 000000018003d500 f i libconcrt:ThreadProxy.obj
 0001:0003c500       ??_EThreadProxy@details@Concurrency@@UEAAPEAXI@Z 000000018003d500 f i libconcrt:ThreadProxy.obj
 0001:0003c534       ?Cancel@ThreadProxy@details@Concurrency@@QEAAXXZ 000000018003d534 f   libconcrt:ThreadProxy.obj
 0001:0003c548       ?GetId@ThreadProxy@details@Concurrency@@UEBAIXZ 000000018003d548 f   libconcrt:ThreadProxy.obj
 0001:0003c54c       ?ResumeExecution@ThreadProxy@details@Concurrency@@QEAAXXZ 000000018003d54c f   libconcrt:ThreadProxy.obj
 0001:0003c558       ?SetPriority@ThreadProxy@details@Concurrency@@QEAAXH@Z 000000018003d558 f   libconcrt:ThreadProxy.obj
 0001:0003c564       ?SpinUntilBlocked@ThreadProxy@details@Concurrency@@QEAAXXZ 000000018003d564 f   libconcrt:ThreadProxy.obj
 0001:0003c59c       ?SuspendExecution@ThreadProxy@details@Concurrency@@QEAAXXZ 000000018003d59c f   libconcrt:ThreadProxy.obj
 0001:0003c5c8       ?ThreadProxyMain@ThreadProxy@details@Concurrency@@CAKPEAX@Z 000000018003d5c8 f   libconcrt:ThreadProxy.obj
 0001:0003c62c       ??0location@Concurrency@@QEAA@W4_Type@01@IIPEAX@Z 000000018003d62c f   libconcrt:location.obj
 0001:0003c650       ?Exists@?$Hash@II@details@Concurrency@@QEAA_NAEBI@Z 000000018003d650 f i libconcrt:location.obj
 0001:0003c6c4       ?_FastNodeIntersects@location@Concurrency@@QEBA_NAEBV12@@Z 000000018003d6c4 f   libconcrt:location.obj
 0001:0003c724       ?_FastVPIntersects@location@Concurrency@@QEBA_NAEBV12@@Z 000000018003d724 f   libconcrt:location.obj
 0001:0003c770       ??0WorkItem@details@Concurrency@@QEAA@PEAVInternalContextBase@12@@Z 000000018003d770 f   libconcrt:SearchAlgorithms.obj
 0001:0003c7a8       ?Bind@WorkItem@details@Concurrency@@QEAAPEAVInternalContextBase@23@XZ 000000018003d7a8 f   libconcrt:SearchAlgorithms.obj
 0001:0003c804       ?BindTo@WorkItem@details@Concurrency@@QEAAXPEAVInternalContextBase@23@@Z 000000018003d804 f   libconcrt:SearchAlgorithms.obj
 0001:0003c84c       ?GetLocalRunnable@WorkSearchContext@details@Concurrency@@AEAA_NPEAVWorkItem@23@PEAVVirtualProcessor@23@_N@Z 000000018003d84c f   libconcrt:SearchAlgorithms.obj
 0001:0003c908       ?GetPseudoRRAffineScheduleGroupSegment@SchedulingRing@details@Concurrency@@QEAAPEAVScheduleGroupSegmentBase@23@PEAH@Z 000000018003d908 f i libconcrt:SearchAlgorithms.obj
 0001:0003c974       ?GetPseudoRRNonAffineScheduleGroupSegment@SchedulingRing@details@Concurrency@@QEAAPEAVScheduleGroupSegmentBase@23@PEAH@Z 000000018003d974 f i libconcrt:SearchAlgorithms.obj
 0001:0003c9e4       ?GetRealizedChore@WorkSearchContext@details@Concurrency@@AEAA_NPEAVWorkItem@23@PEAVScheduleGroupSegmentBase@23@_N@Z 000000018003d9e4 f   libconcrt:SearchAlgorithms.obj
 0001:0003ca50       ?GetRealizedChoreWithinGroup@WorkSearchContext@details@Concurrency@@AEAA_NPEAVWorkItem@23@PEAVScheduleGroupSegmentBase@23@_NW4SearchAffinity@123@2@Z 000000018003da50 f   libconcrt:SearchAlgorithms.obj
 0001:0003cb20       ?GetRunnableContext@WorkSearchContext@details@Concurrency@@AEAA_NPEAVWorkItem@23@PEAVScheduleGroupSegmentBase@23@@Z 000000018003db20 f   libconcrt:SearchAlgorithms.obj
 0001:0003cb80       ?GetRunnableContextWithinGroup@WorkSearchContext@details@Concurrency@@AEAA_NPEAVWorkItem@23@PEAVScheduleGroupSegmentBase@23@W4SearchAffinity@123@_N@Z 000000018003db80 f   libconcrt:SearchAlgorithms.obj
 0001:0003cc3c       ?GetUnrealizedChore@WorkSearchContext@details@Concurrency@@AEAA_NPEAVWorkItem@23@PEAVScheduleGroupSegmentBase@23@_N2@Z 000000018003dc3c f   libconcrt:SearchAlgorithms.obj
 0001:0003ccb4       ?GetUnrealizedChoreWithinGroup@WorkSearchContext@details@Concurrency@@AEAA_NPEAVWorkItem@23@PEAVScheduleGroupSegmentBase@23@_NW4SearchAffinity@123@2@Z 000000018003dcb4 f   libconcrt:SearchAlgorithms.obj
 0001:0003cd8c       ?Invoke@WorkItem@details@Concurrency@@QEAAXXZ 000000018003dd8c f   libconcrt:SearchAlgorithms.obj
 0001:0003cde8       ?PreSearch@WorkSearchContext@details@Concurrency@@AEAA_NPEAVWorkItem@23@@Z 000000018003dde8 f   libconcrt:SearchAlgorithms.obj
 0001:0003ce48       ?QuickSearch@WorkSearchContext@details@Concurrency@@AEAA_NPEAVScheduleGroupSegmentBase@23@PEAVWorkItem@23@_NK@Z 000000018003de48 f   libconcrt:SearchAlgorithms.obj
 0001:0003ceec       ?QuickSearchYield@WorkSearchContext@details@Concurrency@@AEAA_NPEAVScheduleGroupSegmentBase@23@PEAVWorkItem@23@_NK@Z 000000018003deec f   libconcrt:SearchAlgorithms.obj
 0001:0003cf7c       ?Reset@WorkSearchContext@details@Concurrency@@QEAAXPEAVVirtualProcessor@23@W4Algorithm@123@@Z 000000018003df7c f   libconcrt:SearchAlgorithms.obj
 0001:0003cff0       ?ResolveToken@WorkItem@details@Concurrency@@QEAA_NXZ 000000018003dff0 f   libconcrt:SearchAlgorithms.obj
 0001:0003d08c       ?SearchCacheLocal@WorkSearchContext@details@Concurrency@@AEAA_NPEAVWorkItem@23@PEAVScheduleGroupSegmentBase@23@_NK@Z 000000018003e08c f   libconcrt:SearchAlgorithms.obj
 0001:0003d4ac       ?SearchCacheLocalYield@WorkSearchContext@details@Concurrency@@AEAA_NPEAVWorkItem@23@PEAVScheduleGroupSegmentBase@23@_NK@Z 000000018003e4ac f   libconcrt:SearchAlgorithms.obj
 0001:0003d7f8       ?SearchCacheLocal_Realized@WorkSearchContext@details@Concurrency@@AEAA_NPEAVWorkItem@23@PEAVSchedulingRing@23@PEAVScheduleGroupSegmentBase@23@_NW4SearchAffinity@123@K3@Z 000000018003e7f8 f   libconcrt:SearchAlgorithms.obj
 0001:0003d9bc       ?SearchCacheLocal_Runnables@WorkSearchContext@details@Concurrency@@AEAA_NPEAVWorkItem@23@PEAVSchedulingRing@23@PEAVScheduleGroupSegmentBase@23@_NW4SearchAffinity@123@K3@Z 000000018003e9bc f   libconcrt:SearchAlgorithms.obj
 0001:0003db98       ?SearchCacheLocal_Unrealized@WorkSearchContext@details@Concurrency@@AEAA_NPEAVWorkItem@23@PEAVSchedulingRing@23@PEAVScheduleGroupSegmentBase@23@_NW4SearchAffinity@123@K3@Z 000000018003eb98 f   libconcrt:SearchAlgorithms.obj
 0001:0003dd60       ?SearchFair@WorkSearchContext@details@Concurrency@@AEAA_NPEAVWorkItem@23@PEAVScheduleGroupSegmentBase@23@_NK@Z 000000018003ed60 f   libconcrt:SearchAlgorithms.obj
 0001:0003deac       ?SearchFairYield@WorkSearchContext@details@Concurrency@@AEAA_NPEAVWorkItem@23@PEAVScheduleGroupSegmentBase@23@_NK@Z 000000018003eeac f   libconcrt:SearchAlgorithms.obj
 0001:0003e00c       ?SearchFair_Realized@WorkSearchContext@details@Concurrency@@AEAA_NPEAVWorkItem@23@PEAVSchedulingRing@23@_N@Z 000000018003f00c f   libconcrt:SearchAlgorithms.obj
 0001:0003e0dc       ?SearchFair_Runnables@WorkSearchContext@details@Concurrency@@AEAA_NPEAVWorkItem@23@PEAVSchedulingRing@23@@Z 000000018003f0dc f   libconcrt:SearchAlgorithms.obj
 0001:0003e190       ?SearchFair_Unrealized@WorkSearchContext@details@Concurrency@@AEAA_NPEAVWorkItem@23@PEAVSchedulingRing@23@_N@Z 000000018003f190 f   libconcrt:SearchAlgorithms.obj
 0001:0003e264       ?SkipSegmentSearch@WorkSearchContext@details@Concurrency@@AEAA_NPEAVScheduleGroupSegmentBase@23@0W4SearchAffinity@123@_N@Z 000000018003f264 f   libconcrt:SearchAlgorithms.obj
 0001:0003e33c       ?StealForeignLocalRunnable@WorkSearchContext@details@Concurrency@@AEAA_NPEAVWorkItem@23@PEAVSchedulingNode@23@@Z 000000018003f33c f   libconcrt:SearchAlgorithms.obj
 0001:0003e414       ?StealLocalRunnable@WorkSearchContext@details@Concurrency@@AEAA_NPEAVWorkItem@23@PEAVSchedulingNode@23@PEAVVirtualProcessor@23@@Z 000000018003f414 f   libconcrt:SearchAlgorithms.obj
 0001:0003e4d8       ?StealLocalRunnableContext@VirtualProcessor@details@Concurrency@@AEAAPEAVInternalContextBase@23@XZ 000000018003f4d8 f i libconcrt:SearchAlgorithms.obj
 0001:0003e53c       ?TransferReferences@WorkItem@details@Concurrency@@QEAAXPEAVInternalContextBase@23@@Z 000000018003f53c f   libconcrt:SearchAlgorithms.obj
 0001:0003e5dc       ?Invoke@RealizedChore@details@Concurrency@@QEAAXXZ 000000018003f5dc f   libconcrt:RealizedChore.obj
 0001:0003e60c       ??0ThreadVirtualProcessor@details@Concurrency@@QEAA@PEAVSchedulingNode@12@PEAUIVirtualProcessorRoot@2@@Z 000000018003f60c f   libconcrt:ThreadVirtualProcessor.obj
 0001:0003e664       ??_EThreadVirtualProcessor@details@Concurrency@@UEAAPEAXI@Z 000000018003f664 f i libconcrt:ThreadVirtualProcessor.obj
 0001:0003e664       ??_GThreadVirtualProcessor@details@Concurrency@@UEAAPEAXI@Z 000000018003f664 f i libconcrt:ThreadVirtualProcessor.obj
 0001:0003e6c0       memmove                    000000018003f6c0 f   libvcruntime:memcpy.obj
 0001:0003e6c0       memcpy                     000000018003f6c0 f   libvcruntime:memcpy.obj
 0001:0003eaf8       _purecall                  000000018003faf8 f   libvcruntime:purevirt.obj
 0001:0003eb34       memchr                     000000018003fb34 f   libvcruntime:memchr.obj
 0001:0003eb50       __std_exception_copy       000000018003fb50 f   libvcruntime:std_exception.obj
 0001:0003ebe0       __std_exception_destroy    000000018003fbe0 f   libvcruntime:std_exception.obj
 0001:0003ec08       _CxxThrowException         000000018003fc08 f   libvcruntime:throw.obj
 0001:0003ece0       ?_GetEstablisherFrame@@YAPEA_KPEA_KPEAU_xDISPATCHER_CONTEXT@@PEBU_s_FuncInfo@@0@Z 000000018003fce0 f   libvcruntime:trnsctrl.obj
 0001:0003edac       ?_GetRangeOfTrysToCheck@@YAPEBU_s_TryBlockMapEntry@@PEA_KPEBU_s_FuncInfo@@HHPEAI2PEAU_xDISPATCHER_CONTEXT@@@Z 000000018003fdac f   libvcruntime:trnsctrl.obj
 0001:0003eed8       ?__FrameUnwindToEmptyState@@YAXPEA_KPEAU_xDISPATCHER_CONTEXT@@PEBU_s_FuncInfo@@@Z 000000018003fed8 f   libvcruntime:trnsctrl.obj
 0001:0003ef6c       ?__SehTransFilter@@YAHPEAU_EXCEPTION_POINTERS@@PEAUEHExceptionRecord@@PEA_KPEAU_CONTEXT@@PEAU_xDISPATCHER_CONTEXT@@PEBU_s_FuncInfo@@PEAH@Z 000000018003ff6c f   libvcruntime:trnsctrl.obj
 0001:0003f004       _CallSETranslator          0000000180040004 f   libvcruntime:trnsctrl.obj
 0001:0003f05c       _CreateFrameInfo           000000018004005c f   libvcruntime:trnsctrl.obj
 0001:0003f098       _FindAndUnlinkFrame        0000000180040098 f   libvcruntime:trnsctrl.obj
 0001:0003f0f0       _GetImageBase              00000001800400f0 f   libvcruntime:trnsctrl.obj
 0001:0003f104       _GetThrowImageBase         0000000180040104 f   libvcruntime:trnsctrl.obj
 0001:0003f118       _IsExceptionObjectToBeDestroyed 0000000180040118 f   libvcruntime:trnsctrl.obj
 0001:0003f148       _SetImageBase              0000000180040148 f   libvcruntime:trnsctrl.obj
 0001:0003f160       _SetThrowImageBase         0000000180040160 f   libvcruntime:trnsctrl.obj
 0001:0003f178       _UnwindNestedFrames        0000000180040178 f   libvcruntime:trnsctrl.obj
 0001:0003f29c       __CxxFrameHandler3         000000018004029c f   libvcruntime:trnsctrl.obj
 0001:0003f31c       __DestructExceptionObject  000000018004031c f   libvcruntime:frame.obj
 0001:0003f3a4       ??0bad_exception@std@@QEAA@AEBV01@@Z 00000001800403a4 f i libvcruntime:frame.obj
 0001:0003f3e4       ??0bad_exception@std@@QEAA@XZ 00000001800403e4 f i libvcruntime:frame.obj
 0001:0003fd44       ?_CallMemberFunction0@@YAXPEAXP6AX0@Z@Z 0000000180040d44 f i libvcruntime:frame.obj
 0001:0003fd48       ?_CallMemberFunction1@@YAXPEAXP6AX0@Z0@Z 0000000180040d48 f i libvcruntime:frame.obj
 0001:0003fd54       ?_CallMemberFunction2@@YAXPEAXP6AX0@Z0H@Z 0000000180040d54 f i libvcruntime:frame.obj
 0001:0003fd64       __AdjustPointer            0000000180040d64 f   libvcruntime:frame.obj
 0001:0003fd88       __BuildCatchObject         0000000180040d88 f   libvcruntime:frame.obj
 0001:0003fe50       __BuildCatchObjectHelper   0000000180040e50 f   libvcruntime:frame.obj
 0001:00040034       __CxxCallCatchBlock        0000000180041034 f   libvcruntime:frame.obj
 0001:00040220       __FrameUnwindFilter        0000000180041220 f   libvcruntime:frame.obj
 0001:0004026c       __FrameUnwindToState       000000018004126c f   libvcruntime:frame.obj
 0001:00040400       __InternalCxxFrameHandler  0000000180041400 f   libvcruntime:frame.obj
 0001:00040658       __TypeMatch                0000000180041658 f   libvcruntime:frame.obj
 0001:00040798       __current_exception        0000000180041798 f   libvcruntime:frame.obj
 0001:000407ac       __processing_throw         00000001800417ac f   libvcruntime:frame.obj
 0001:000407c0       __std_terminate            00000001800417c0 f   libvcruntime:frame.obj
 0001:000407cc       __uncaught_exception       00000001800417cc f   libvcruntime:frame.obj
 0001:00040800       memset                     0000000180041800 f   libvcruntime:memset.obj
 0001:000409b0       memcmp                     00000001800419b0 f   libvcruntime:memcmp.obj
 0001:00040a78       __vcrt_initialize          0000000180041a78 f   libvcruntime:initialization.obj
 0001:00040ab0       __vcrt_thread_attach       0000000180041ab0 f   libvcruntime:initialization.obj
 0001:00040ac4       __vcrt_thread_detach       0000000180041ac4 f   libvcruntime:initialization.obj
 0001:00040ad8       __vcrt_uninitialize        0000000180041ad8 f   libvcruntime:initialization.obj
 0001:00040b04       __vcrt_uninitialize_critical 0000000180041b04 f   libvcruntime:initialization.obj
 0001:00040b14       __C_specific_handler       0000000180041b14 f   libvcruntime:_chandler_.obj
 0001:00040ed8       __vcrt_EventRegister       0000000180041ed8 f   libvcruntime:winapi_downlevel.obj
 0001:00040f5c       __vcrt_EventSetInformation 0000000180041f5c f   libvcruntime:winapi_downlevel.obj
 0001:00040fe0       __vcrt_EventUnregister     0000000180041fe0 f   libvcruntime:winapi_downlevel.obj
 0001:00041034       __vcrt_EventWriteTransfer  0000000180042034 f   libvcruntime:winapi_downlevel.obj
 0001:000410cc       __vcrt_FlsAlloc            00000001800420cc f   libvcruntime:winapi_downlevel.obj
 0001:00041120       __vcrt_FlsFree             0000000180042120 f   libvcruntime:winapi_downlevel.obj
 0001:00041174       __vcrt_FlsGetValue         0000000180042174 f   libvcruntime:winapi_downlevel.obj
 0001:000411c8       __vcrt_FlsSetValue         00000001800421c8 f   libvcruntime:winapi_downlevel.obj
 0001:00041230       __vcrt_InitializeCriticalSectionEx 0000000180042230 f   libvcruntime:winapi_downlevel.obj
 0001:000412a8       __vcrt_initialize_winapi_thunks 00000001800422a8 f   libvcruntime:winapi_downlevel.obj
 0001:000412e0       __vcrt_uninitialize_winapi_thunks 00000001800422e0 f   libvcruntime:winapi_downlevel.obj
 0001:00041324       __telemetry_main_invoke_trigger 0000000180042324 f   libvcruntime:telemetry.obj
 0001:0004143c       __telemetry_main_return_trigger 000000018004243c f   libvcruntime:telemetry.obj
 0001:00041554       __vcrt_initialize_telemetry_provider 0000000180042554 f   libvcruntime:telemetry.obj
 0001:00041568       __vcrt_uninitialize_telemetry_provider 0000000180042568 f   libvcruntime:telemetry.obj
 0001:00041588       __std_type_info_compare    0000000180042588 f   libvcruntime:std_type_info.obj
 0001:000415b0       __std_type_info_destroy_list 00000001800425b0 f   libvcruntime:std_type_info.obj
 0001:000415dc       ??0__non_rtti_object@std@@QEAA@AEBV01@@Z 00000001800425dc f i libvcruntime:rtti.obj
 0001:0004161c       ??0bad_typeid@std@@QEAA@AEBV01@@Z 000000018004261c f i libvcruntime:rtti.obj
 0001:00041ae0       ?__construct_from_string_literal@__non_rtti_object@std@@SA?AV12@QEBD@Z 0000000180042ae0 f i libvcruntime:rtti.obj
 0001:00041af8       ?__construct_from_string_literal@bad_cast@std@@SA?AV12@QEBD@Z 0000000180042af8 f i libvcruntime:rtti.obj
 0001:00041b10       __RTDynamicCast            0000000180042b10 f   libvcruntime:rtti.obj
 0001:00041c8c       __vcrt_initialize_pure_virtual_call_handler 0000000180042c8c f   libvcruntime:purevirt_data.obj
 0001:00041cb0       __vcrt_freefls             0000000180042cb0 f   libvcruntime:per_thread_data.obj
 0001:00041cd0       __vcrt_freeptd             0000000180042cd0 f   libvcruntime:per_thread_data.obj
 0001:00041d20       __vcrt_getptd              0000000180042d20 f   libvcruntime:per_thread_data.obj
 0001:00041d3c       __vcrt_getptd_noexit       0000000180042d3c f   libvcruntime:per_thread_data.obj
 0001:00041df4       __vcrt_initialize_ptd      0000000180042df4 f   libvcruntime:per_thread_data.obj
 0001:00041e34       __vcrt_uninitialize_ptd    0000000180042e34 f   libvcruntime:per_thread_data.obj
 0001:00041e58       ?__GetCurrentState@@YAHPEA_KPEAU_xDISPATCHER_CONTEXT@@PEBU_s_FuncInfo@@@Z 0000000180042e58 f   libvcruntime:ehstate.obj
 0001:00041e80       ?__GetUnwindTryBlock@@YAHPEA_KPEAU_xDISPATCHER_CONTEXT@@PEBU_s_FuncInfo@@@Z 0000000180042e80 f   libvcruntime:ehstate.obj
 0001:00041eac       ?__SetState@@YAXPEA_KPEAU_xDISPATCHER_CONTEXT@@PEBU_s_FuncInfo@@H@Z 0000000180042eac f   libvcruntime:ehstate.obj
 0001:00041eb8       ?__SetUnwindTryBlock@@YAXPEA_KPEAU_xDISPATCHER_CONTEXT@@PEBU_s_FuncInfo@@H@Z 0000000180042eb8 f   libvcruntime:ehstate.obj
 0001:00041ef4       ?__StateFromControlPc@@YAHPEBU_s_FuncInfo@@PEAU_xDISPATCHER_CONTEXT@@@Z 0000000180042ef4 f   libvcruntime:ehstate.obj
 0001:00041efc       ?__StateFromIp@@YAHPEBU_s_FuncInfo@@PEAU_xDISPATCHER_CONTEXT@@_J@Z 0000000180042efc f   libvcruntime:ehstate.obj
 0001:00041f80       _CallSettingFrame          0000000180042f80 f   libvcruntime:handlers.obj
 0001:00041fd0       _local_unwind              0000000180042fd0 f   libvcruntime:_jmpuwind_.obj
 0001:00042000       _NLG_Notify                0000000180043000 f   libvcruntime:_jmpuwind_.obj
 0001:00042020       __NLG_Dispatch2            0000000180043020 f   libvcruntime:_jmpuwind_.obj
 0001:00042030       __NLG_Return2              0000000180043030 f   libvcruntime:_jmpuwind_.obj
 0001:00042034       __vcrt_initialize_locks    0000000180043034 f   libvcruntime:locks.obj
 0001:0004207c       __vcrt_uninitialize_locks  000000018004307c f   libvcruntime:locks.obj
 0001:000420b4       ??0_LocaleUpdate@@QEAA@QEAU__crt_locale_pointers@@@Z 00000001800430b4 f i libucrt:_ctype.obj
 0001:00042144       isalnum                    0000000180043144 f i libucrt:_ctype.obj
 0001:000421c0       isdigit                    00000001800431c0 f i libucrt:_ctype.obj
 0001:00042234       islower                    0000000180043234 f i libucrt:_ctype.obj
 0001:000422a8       isupper                    00000001800432a8 f i libucrt:_ctype.obj
 0001:0004231c       __acrt_call_reportfault    000000018004331c f   libucrt:invalid_parameter.obj
 0001:00042478       __acrt_initialize_invalid_parameter_handler 0000000180043478 f   libucrt:invalid_parameter.obj
 0001:00042480       _invalid_parameter         0000000180043480 f   libucrt:invalid_parameter.obj
 0001:00042528       _invalid_parameter_noinfo  0000000180043528 f   libucrt:invalid_parameter.obj
 0001:00042548       _invalid_parameter_noinfo_noreturn 0000000180043548 f   libucrt:invalid_parameter.obj
 0001:00042578       _invoke_watson             0000000180043578 f   libucrt:invalid_parameter.obj
 0001:000425c0       __acrt_errno_from_os_error 00000001800435c0 f   libucrt:errno.obj
 0001:00042608       __acrt_errno_map_os_error  0000000180043608 f   libucrt:errno.obj
 0001:00042658       __doserrno                 0000000180043658 f   libucrt:errno.obj
 0001:00042678       _errno                     0000000180043678 f   libucrt:errno.obj
 0001:00042698       ??$is_overflow_condition@K@__crt_strtox@@YA_NIK@Z 0000000180043698 f i libucrt:strtox.obj
 0001:000426c4       ??$parse_integer@KV?$c_string_character_source@D@__crt_strtox@@@__crt_strtox@@YAKQEAU__crt_locale_pointers@@V?$c_string_character_source@D@0@H_N@Z 00000001800436c4 f i libucrt:strtox.obj
 0001:000429d8       ??$parse_integer@KV?$c_string_character_source@_W@__crt_strtox@@@__crt_strtox@@YAKQEAU__crt_locale_pointers@@V?$c_string_character_source@_W@0@H_N@Z 00000001800439d8 f i libucrt:strtox.obj
 0001:000430ac       strtol                     00000001800440ac f   libucrt:strtox.obj
 0001:000430dc       rand                       00000001800440dc f   libucrt:rand.obj
 0001:00043120       strncmp                    0000000180044120 f   libucrt:strncmp.obj
 0001:000431a0       ??$make_c_string_character_source@D$$T@__crt_strtox@@YA?AV?$c_string_character_source@D@0@QEBD$$T@Z 00000001800441a0 f i libucrt:atox.obj
 0001:000431a0       ??$make_c_string_character_source@DPEAPEAD@__crt_strtox@@YA?AV?$c_string_character_source@D@0@QEBDQEAPEAD@Z 00000001800441a0 f i libucrt:strtox.obj
 0001:000431a0       ??$make_c_string_character_source@_W$$T@__crt_strtox@@YA?AV?$c_string_character_source@_W@0@QEB_W$$T@Z 00000001800441a0 f i libucrt:atox.obj
 0001:000431b4       _wtol                      00000001800441b4 f   libucrt:atox.obj
 0001:000431e0       atoi                       00000001800441e0 f   libucrt:atox.obj
 0001:0004320c       abort                      000000018004420c f   libucrt:abort.obj
 0001:00043264       calloc                     0000000180044264 f   libucrt:calloc.obj
 0001:0004326c       strcspn                    000000018004426c f   libucrt:strcspn.obj
 0001:000434b4       ??$ensure_buffer_is_big_enough@D@formatting_buffer@__crt_stdio_output@@QEAA_N_K@Z 00000001800444b4 f i libucrt:output.obj
 0001:00043560       ??$is_wide_character_specifier@D@__crt_stdio_output@@YA_N_KDW4length_modifier@0@@Z 0000000180044560 f i libucrt:output.obj
 0001:00043590       ??$type_case_integer_parse_into_buffer@I@?$output_processor@DV?$string_output_adapter@D@__crt_stdio_output@@V?$format_validation_base@DV?$string_output_adapter@D@__crt_stdio_output@@@2@@__crt_stdio_output@@AEAAXII_N@Z 0000000180044590 f i libucrt:output.obj
 0001:00043590       ??$type_case_integer_parse_into_buffer@I@?$output_processor@DV?$string_output_adapter@D@__crt_stdio_output@@V?$standard_base@DV?$string_output_adapter@D@__crt_stdio_output@@@2@@__crt_stdio_output@@AEAAXII_N@Z 0000000180044590 f i libucrt:output.obj
 0001:0004362c       ??$type_case_integer_parse_into_buffer@_K@?$output_processor@DV?$string_output_adapter@D@__crt_stdio_output@@V?$standard_base@DV?$string_output_adapter@D@__crt_stdio_output@@@2@@__crt_stdio_output@@AEAAX_KI_N@Z 000000018004462c f i libucrt:output.obj
 0001:0004362c       ??$type_case_integer_parse_into_buffer@_K@?$output_processor@DV?$string_output_adapter@D@__crt_stdio_output@@V?$format_validation_base@DV?$string_output_adapter@D@__crt_stdio_output@@@2@@__crt_stdio_output@@AEAAX_KI_N@Z 000000018004462c f i libucrt:output.obj
 0001:000436c8       ??$write_multiple_characters@V?$string_output_adapter@D@__crt_stdio_output@@D@__crt_stdio_output@@YAXAEBV?$string_output_adapter@D@0@DHQEAH@Z 00000001800446c8 f i libucrt:output.obj
 0001:00043724       ??0?$output_processor@DV?$string_output_adapter@D@__crt_stdio_output@@V?$standard_base@DV?$string_output_adapter@D@__crt_stdio_output@@@2@@__crt_stdio_output@@QEAA@AEBV?$string_output_adapter@D@1@_KQEBDQEAU__crt_locale_pointers@@QEAD@Z 0000000180044724 f i libucrt:output.obj
 0001:00043724       ??0?$output_processor@DV?$string_output_adapter@D@__crt_stdio_output@@V?$format_validation_base@DV?$string_output_adapter@D@__crt_stdio_output@@@2@@__crt_stdio_output@@QEAA@AEBV?$string_output_adapter@D@1@_KQEBDQEAU__crt_locale_pointers@@QEAD@Z 0000000180044724 f i libucrt:output.obj
 0001:000437a0       ?force_decimal_point@__crt_stdio_output@@YAXPEADQEAU__crt_locale_pointers@@@Z 00000001800447a0 f i libucrt:output.obj
 0001:00043810       ?parse_int_from_format_string@?$output_processor@DV?$string_output_adapter@D@__crt_stdio_output@@V?$standard_base@DV?$string_output_adapter@D@__crt_stdio_output@@@2@@__crt_stdio_output@@AEAA_NQEAH@Z 0000000180044810 f i libucrt:output.obj
 0001:00043810       ?parse_int_from_format_string@?$output_processor@DV?$string_output_adapter@D@__crt_stdio_output@@V?$format_validation_base@DV?$string_output_adapter@D@__crt_stdio_output@@@2@@__crt_stdio_output@@AEAA_NQEAH@Z 0000000180044810 f i libucrt:output.obj
 0001:00043894       ?process@?$output_processor@DV?$string_output_adapter@D@__crt_stdio_output@@V?$format_validation_base@DV?$string_output_adapter@D@__crt_stdio_output@@@2@@__crt_stdio_output@@QEAAHXZ 0000000180044894 f i libucrt:output.obj
 0001:00043aa8       ?process@?$output_processor@DV?$string_output_adapter@D@__crt_stdio_output@@V?$standard_base@DV?$string_output_adapter@D@__crt_stdio_output@@@2@@__crt_stdio_output@@QEAAHXZ 0000000180044aa8 f i libucrt:output.obj
 0001:00043cac       ?state_case_normal@?$output_processor@DV?$string_output_adapter@D@__crt_stdio_output@@V?$standard_base@DV?$string_output_adapter@D@__crt_stdio_output@@@2@@__crt_stdio_output@@AEAA_NXZ 0000000180044cac f i libucrt:output.obj
 0001:00043cac       ?state_case_normal@?$output_processor@DV?$string_output_adapter@D@__crt_stdio_output@@V?$format_validation_base@DV?$string_output_adapter@D@__crt_stdio_output@@@2@@__crt_stdio_output@@AEAA_NXZ 0000000180044cac f i libucrt:output.obj
 0001:00043d20       ?state_case_normal_tchar@?$output_processor@DV?$string_output_adapter@D@__crt_stdio_output@@V?$format_validation_base@DV?$string_output_adapter@D@__crt_stdio_output@@@2@@__crt_stdio_output@@AEAA_ND@Z 0000000180044d20 f i libucrt:output.obj
 0001:00043d20       ?state_case_normal_tchar@?$output_processor@DV?$string_output_adapter@D@__crt_stdio_output@@V?$standard_base@DV?$string_output_adapter@D@__crt_stdio_output@@@2@@__crt_stdio_output@@AEAA_ND@Z 0000000180044d20 f i libucrt:output.obj
 0001:00043db8       ?state_case_size@?$output_processor@DV?$string_output_adapter@D@__crt_stdio_output@@V?$standard_base@DV?$string_output_adapter@D@__crt_stdio_output@@@2@@__crt_stdio_output@@AEAA_NXZ 0000000180044db8 f i libucrt:output.obj
 0001:00043db8       ?state_case_size@?$output_processor@DV?$string_output_adapter@D@__crt_stdio_output@@V?$format_validation_base@DV?$string_output_adapter@D@__crt_stdio_output@@@2@@__crt_stdio_output@@AEAA_NXZ 0000000180044db8 f i libucrt:output.obj
 0001:00043f34       ?state_case_type@?$output_processor@DV?$string_output_adapter@D@__crt_stdio_output@@V?$standard_base@DV?$string_output_adapter@D@__crt_stdio_output@@@2@@__crt_stdio_output@@AEAA_NXZ 0000000180044f34 f i libucrt:output.obj
 0001:00043f34       ?state_case_type@?$output_processor@DV?$string_output_adapter@D@__crt_stdio_output@@V?$format_validation_base@DV?$string_output_adapter@D@__crt_stdio_output@@@2@@__crt_stdio_output@@AEAA_NXZ 0000000180044f34 f i libucrt:output.obj
 0001:000441b0       ?type_case_Z@?$output_processor@DV?$string_output_adapter@D@__crt_stdio_output@@V?$standard_base@DV?$string_output_adapter@D@__crt_stdio_output@@@2@@__crt_stdio_output@@AEAA_NXZ 00000001800451b0 f i libucrt:output.obj
 0001:000441b0       ?type_case_Z@?$output_processor@DV?$string_output_adapter@D@__crt_stdio_output@@V?$format_validation_base@DV?$string_output_adapter@D@__crt_stdio_output@@@2@@__crt_stdio_output@@AEAA_NXZ 00000001800451b0 f i libucrt:output.obj
 0001:00044230       ?type_case_a@?$output_processor@DV?$string_output_adapter@D@__crt_stdio_output@@V?$format_validation_base@DV?$string_output_adapter@D@__crt_stdio_output@@@2@@__crt_stdio_output@@AEAA_NXZ 0000000180045230 f i libucrt:output.obj
 0001:00044230       ?type_case_a@?$output_processor@DV?$string_output_adapter@D@__crt_stdio_output@@V?$standard_base@DV?$string_output_adapter@D@__crt_stdio_output@@@2@@__crt_stdio_output@@AEAA_NXZ 0000000180045230 f i libucrt:output.obj
 0001:0004444c       ?type_case_c_tchar@?$output_processor@DV?$string_output_adapter@D@__crt_stdio_output@@V?$standard_base@DV?$string_output_adapter@D@__crt_stdio_output@@@2@@__crt_stdio_output@@AEAA_ND@Z 000000018004544c f i libucrt:output.obj
 0001:0004444c       ?type_case_c_tchar@?$output_processor@DV?$string_output_adapter@D@__crt_stdio_output@@V?$format_validation_base@DV?$string_output_adapter@D@__crt_stdio_output@@@2@@__crt_stdio_output@@AEAA_ND@Z 000000018004544c f i libucrt:output.obj
 0001:00044500       ?type_case_integer@?$output_processor@DV?$string_output_adapter@D@__crt_stdio_output@@V?$standard_base@DV?$string_output_adapter@D@__crt_stdio_output@@@2@@__crt_stdio_output@@AEAA_NI_N@Z 0000000180045500 f i libucrt:output.obj
 0001:00044500       ?type_case_integer@?$output_processor@DV?$string_output_adapter@D@__crt_stdio_output@@V?$format_validation_base@DV?$string_output_adapter@D@__crt_stdio_output@@@2@@__crt_stdio_output@@AEAA_NI_N@Z 0000000180045500 f i libucrt:output.obj
 0001:000446a0       ?type_case_n@?$output_processor@DV?$string_output_adapter@D@__crt_stdio_output@@V?$standard_base@DV?$string_output_adapter@D@__crt_stdio_output@@@2@@__crt_stdio_output@@AEAA_NXZ 00000001800456a0 f i libucrt:output.obj
 0001:000446a0       ?type_case_n@?$output_processor@DV?$string_output_adapter@D@__crt_stdio_output@@V?$format_validation_base@DV?$string_output_adapter@D@__crt_stdio_output@@@2@@__crt_stdio_output@@AEAA_NXZ 00000001800456a0 f i libucrt:output.obj
 0001:0004477c       ?type_case_s@?$output_processor@DV?$string_output_adapter@D@__crt_stdio_output@@V?$standard_base@DV?$string_output_adapter@D@__crt_stdio_output@@@2@@__crt_stdio_output@@AEAA_NXZ 000000018004577c f i libucrt:output.obj
 0001:0004477c       ?type_case_s@?$output_processor@DV?$string_output_adapter@D@__crt_stdio_output@@V?$format_validation_base@DV?$string_output_adapter@D@__crt_stdio_output@@@2@@__crt_stdio_output@@AEAA_NXZ 000000018004577c f i libucrt:output.obj
 0001:0004480c       ?write_stored_string_tchar@?$output_processor@DV?$string_output_adapter@D@__crt_stdio_output@@V?$standard_base@DV?$string_output_adapter@D@__crt_stdio_output@@@2@@__crt_stdio_output@@AEAA_ND@Z 000000018004580c f i libucrt:output.obj
 0001:0004480c       ?write_stored_string_tchar@?$output_processor@DV?$string_output_adapter@D@__crt_stdio_output@@V?$format_validation_base@DV?$string_output_adapter@D@__crt_stdio_output@@@2@@__crt_stdio_output@@AEAA_ND@Z 000000018004580c f i libucrt:output.obj
 0001:000448e4       ?write_string@?$string_output_adapter@D@__crt_stdio_output@@QEBAXQEBDHQEAH1@Z 00000001800458e4 f i libucrt:output.obj
 0001:000449a0       __stdio_common_vsprintf    00000001800459a0 f   libucrt:output.obj
 0001:00044bd4       __stdio_common_vsprintf_s  0000000180045bd4 f   libucrt:output.obj
 0001:00044c38       localeconv                 0000000180045c38 f   libucrt:localeconv.obj
 0001:00044c6c       free                       0000000180045c6c f   libucrt:free.obj
 0001:00044c74       frexp                      0000000180045c74 f   libucrt:frexp.obj
 0001:00044d6c       __ascii_stricmp            0000000180045d6c f   libucrt:stricmp.obj
 0001:00044da8       _stricmp                   0000000180045da8 f   libucrt:stricmp.obj
 0001:00044df0       _stricmp_l                 0000000180045df0 f   libucrt:stricmp.obj
 0001:00044ea4       _calloc_base               0000000180045ea4 f   libucrt:calloc_base.obj
 0001:00044f1c       _free_base                 0000000180045f1c f   libucrt:free_base.obj
 0001:00044f5c       __acrt_initialize_locks    0000000180045f5c f   libucrt:locks.obj
 0001:00044fa4       __acrt_lock                0000000180045fa4 f   libucrt:locks.obj
 0001:00044fc0       __acrt_uninitialize_locks  0000000180045fc0 f   libucrt:locks.obj
 0001:00044ff8       __acrt_unlock              0000000180045ff8 f   libucrt:locks.obj
 0001:00045014       _lock_locales              0000000180046014 f   libucrt:locks.obj
 0001:00045024       _unlock_locales            0000000180046024 f   libucrt:locks.obj
 0001:00045034       __acrt_initialize_stdio    0000000180046034 f   libucrt:_file.obj
 0001:00045154       __acrt_iob_func            0000000180046154 f   libucrt:_file.obj
 0001:00045168       __acrt_uninitialize_stdio  0000000180046168 f   libucrt:_file.obj
 0001:000451c4       _get_stream_buffer_pointers 00000001800461c4 f   libucrt:_file.obj
 0001:0004520c       _lock_file                 000000018004620c f   libucrt:_file.obj
 0001:00045218       _unlock_file               0000000180046218 f   libucrt:_file.obj
 0001:00045224       _fclose_nolock             0000000180046224 f   libucrt:fclose.obj
 0001:000452a8       fclose                     00000001800462a8 f   libucrt:fclose.obj
 0001:00045314       __acrt_stdio_flush_nolock  0000000180046314 f   libucrt:fflush.obj
 0001:0004538c       _fflush_nolock             000000018004638c f   libucrt:fflush.obj
 0001:000453d8       _flushall                  00000001800463d8 f   libucrt:fflush.obj
 0001:000454c8       fflush                     00000001800464c8 f   libucrt:fflush.obj
 0001:0004550c       _fgetc_nolock              000000018004650c f   libucrt:fgetc.obj
 0001:00045550       fgetc                      0000000180046550 f   libucrt:fgetc.obj
 0001:00045654       fgetpos                    0000000180046654 f   libucrt:fgetpos.obj
 0001:000456a0       fputc                      00000001800466a0 f   libucrt:fputc.obj
 0001:000457c0       fsetpos                    00000001800467c0 f   libucrt:fsetpos.obj
 0001:00045a6c       _fseeki64                  0000000180046a6c f   libucrt:fseek.obj
 0001:00045a74       ??$?RV<lambda_5d4c3fee44080f75d5d9762853974fe0>@@AEAV<lambda_532e024f4337e6fc7ad266c2bef9f4ed>@@V<lambda_c87bdc10097eb2402edb8ba9bdf0697b>@@@?$__crt_seh_guarded_call@_K@@QEAA_K$$QEAV<lambda_5d4c3fee44080f75d5d9762853974fe0>@@AEAV<lambda_532e024f4337e6fc7ad266c2bef9f4ed>@@$$QEAV<lambda_c87bdc10097eb2402edb8ba9bdf0697b>@@@Z 0000000180046a74 f i libucrt:fwrite.obj
 0001:00045b18       _fwrite_nolock             0000000180046b18 f   libucrt:fwrite.obj
 0001:00045cb4       fwrite                     0000000180046cb4 f   libucrt:fwrite.obj
 0001:00045d38       ??$?RV<lambda_7a5ef57ff966f610505f1d28a3d40618>@@AEAV<lambda_b721fa326cdb32351d23dfa67958c160>@@V<lambda_5e0fb27672408a07956fe59e48ccb2aa>@@@?$__crt_seh_guarded_call@H@@QEAAH$$QEAV<lambda_7a5ef57ff966f610505f1d28a3d40618>@@AEAV<lambda_b721fa326cdb32351d23dfa67958c160>@@$$QEAV<lambda_5e0fb27672408a07956fe59e48ccb2aa>@@@Z 0000000180046d38 f i libucrt:setvbuf.obj
 0001:00045e68       setvbuf                    0000000180046e68 f   libucrt:setvbuf.obj
 0001:00045f08       _ungetc_nolock             0000000180046f08 f   libucrt:ungetc.obj
 0001:00046018       ungetc                     0000000180047018 f   libucrt:ungetc.obj
 0001:00046078       malloc                     0000000180047078 f   libucrt:malloc.obj
 0001:00046168       setlocale                  0000000180047168 f   libucrt:setlocale.obj
 0001:00046334       __pctype_func              0000000180047334 f   libucrt:ctype.obj
 0001:00046364       _wcsdup                    0000000180047364 f   libucrt:wcsdup.obj
 0001:000463e8       ___lc_codepage_func        00000001800473e8 f   libucrt:initctype.obj
 0001:00046418       ___lc_locale_name_func     0000000180047418 f   libucrt:initctype.obj
 0001:0004644c       ___mb_cur_max_func         000000018004744c f   libucrt:initctype.obj
 0001:0004647c       __acrt_locale_initialize_ctype 000000018004747c f   libucrt:initctype.obj
 0001:00046ac8       _ismbblead                 0000000180047ac8 f   libucrt:ismbbyte.obj
 0001:00046adc       _malloc_base               0000000180047adc f   libucrt:malloc_base.obj
 0001:00046b3c       _realloc_base              0000000180047b3c f   libucrt:realloc_base.obj
 0001:00046bc0       ?divide@__crt_strtox@@YA_KAEAUbig_integer@1@AEBU21@@Z 0000000180047bc0 f i libucrt:strtod.obj
 0001:00047090       pow                        0000000180048090 f   libucrt:pow.obj
 0001:00048730       powf                       0000000180049730 f   libucrt:powf.obj
 0001:000495f8       __strncnt                  000000018004a5f8 f   libucrt:strncnt.obj
 0001:00049660       _tolower_l                 000000018004a660 f   libucrt:tolower_toupper.obj
 0001:000497a0       tolower                    000000018004a7a0 f   libucrt:tolower_toupper.obj
 0001:000497cc       wcscpy_s                   000000018004a7cc f   libucrt:wcscpy_s.obj
 0001:00049834       strnlen                    000000018004a834 f   libucrt:strnlen.obj
 0001:00049990       wcsnlen                    000000018004a990 f   libucrt:strnlen.obj
 0001:00049b80       __acrt_initialize_new_handler 000000018004ab80 f   libucrt:new_handler.obj
 0001:00049b88       _callnewh                  000000018004ab88 f   libucrt:new_handler.obj
 0001:00049bc8       _query_new_handler         000000018004abc8 f   libucrt:new_handler.obj
 0001:00049bfc       _seh_filter_dll            000000018004abfc f   libucrt:exception_filter.obj
 0001:00049c10       _seh_filter_exe            000000018004ac10 f   libucrt:exception_filter.obj
 0001:00049fd0       __acrt_initialize_thread_local_exit_callback 000000018004afd0 f   libucrt:exit.obj
 0001:00049fd8       _cexit                     000000018004afd8 f   libucrt:exit.obj
 0001:00049fe8       _exit                      000000018004afe8 f   libucrt:exit.obj
 0001:00049ff4       _is_c_termination_complete 000000018004aff4 f   libucrt:exit.obj
 0001:0004a1b8       __acrt_allocate_buffer_for_argv 000000018004b1b8 f   libucrt:argv_parsing.obj
 0001:0004a21c       _configure_narrow_argv     000000018004b21c f   libucrt:argv_parsing.obj
 0001:0004a578       __dcrt_uninitialize_environments_nolock 000000018004b578 f   libucrt:environment_initialization.obj
 0001:0004a5b0       _initialize_narrow_environment 000000018004b5b0 f   libucrt:environment_initialization.obj
 0001:0004a5b8       ??$?RV<lambda_b8c45f8f788dd370798f47cfe8ac3a86>@@AEAV<lambda_4e60a939b0d047cfe11ddc22648dfba9>@@V<lambda_332c3edc96d0294ec56c57d38c1cdfd5>@@@?$__crt_seh_guarded_call@H@@QEAAH$$QEAV<lambda_b8c45f8f788dd370798f47cfe8ac3a86>@@AEAV<lambda_4e60a939b0d047cfe11ddc22648dfba9>@@$$QEAV<lambda_332c3edc96d0294ec56c57d38c1cdfd5>@@@Z 000000018004b5b8 f i libucrt:onexit.obj
 0001:0004a5f4       ??$?RV<lambda_e24bbb7b643b32fcea6fa61b31d4c984>@@AEAV<lambda_275893d493268fdec8709772e3fcec0e>@@V<lambda_9d71df4d7cf3f480f8d633942495c3b0>@@@?$__crt_seh_guarded_call@H@@QEAAH$$QEAV<lambda_e24bbb7b643b32fcea6fa61b31d4c984>@@AEAV<lambda_275893d493268fdec8709772e3fcec0e>@@$$QEAV<lambda_9d71df4d7cf3f480f8d633942495c3b0>@@@Z 000000018004b5f4 f i libucrt:onexit.obj
 0001:0004a970       _crt_atexit                000000018004b970 f   libucrt:onexit.obj
 0001:0004a980       _execute_onexit_table      000000018004b980 f   libucrt:onexit.obj
 0001:0004a9bc       _initialize_onexit_table   000000018004b9bc f   libucrt:onexit.obj
 0001:0004a9fc       _register_onexit_function  000000018004b9fc f   libucrt:onexit.obj
 0001:0004ab78       __acrt_initialize          000000018004bb78 f   libucrt:initialization.obj
 0001:0004ab8c       __acrt_thread_attach       000000018004bb8c f   libucrt:initialization.obj
 0001:0004aba0       __acrt_thread_detach       000000018004bba0 f   libucrt:initialization.obj
 0001:0004abb0       __acrt_uninitialize        000000018004bbb0 f   libucrt:initialization.obj
 0001:0004abc4       __acrt_uninitialize_critical 000000018004bbc4 f   libucrt:initialization.obj
 0001:0004abd4       _initterm                  000000018004bbd4 f   libucrt:initterm.obj
 0001:0004ac4c       _initterm_e                000000018004bc4c f   libucrt:initterm.obj
 0001:0004ac98       terminate                  000000018004bc98 f   libucrt:terminate.obj
 0001:0004acc0       exp                        000000018004bcc0 f   libucrt:exp.obj
 0001:0004b0b8       sqrt                       000000018004c0b8 f   libucrt:sqrt.obj
 0001:0004b18c       wcsncpy_s                  000000018004c18c f   libucrt:wcsncpy_s.obj
 0001:0004b270       strcpy_s                   000000018004c270 f   libucrt:strcpy_s.obj
 0001:0004b2d0       _isctype_l                 000000018004c2d0 f   libucrt:isctype.obj
 0001:0004b3e0       ??$?RV<lambda_46352004c1216016012b18bd6f87e700>@@AEAV<lambda_3bd07e1a1191394380780325891bf33f>@@V<lambda_334532d3f185bcaa59b5be82d7d22bff>@@@?$__crt_seh_guarded_call@X@@QEAAX$$QEAV<lambda_46352004c1216016012b18bd6f87e700>@@AEAV<lambda_3bd07e1a1191394380780325891bf33f>@@$$QEAV<lambda_334532d3f185bcaa59b5be82d7d22bff>@@@Z 000000018004c3e0 f i libucrt:per_thread_data.obj
 0001:0004b440       ??$?RV<lambda_5e887d1dcbef67a5eb4283622ba103bf>@@AEAV<lambda_4466841279450cc726390878d4a41900>@@V<lambda_341c25c0346d94847f1f3c463c57e077>@@@?$__crt_seh_guarded_call@X@@QEAAX$$QEAV<lambda_5e887d1dcbef67a5eb4283622ba103bf>@@AEAV<lambda_4466841279450cc726390878d4a41900>@@$$QEAV<lambda_341c25c0346d94847f1f3c463c57e077>@@@Z 000000018004c440 f i libucrt:per_thread_data.obj
 0001:0004b488       ??$?RV<lambda_72d1df2b273a38828b1ce30cbf4cdab5>@@AEAV<lambda_876a65b173b8412d3a47c70a915b0cf4>@@V<lambda_41932305e351933ebe8f8be3ed8bb5dc>@@@?$__crt_seh_guarded_call@X@@QEAAX$$QEAV<lambda_72d1df2b273a38828b1ce30cbf4cdab5>@@AEAV<lambda_876a65b173b8412d3a47c70a915b0cf4>@@$$QEAV<lambda_41932305e351933ebe8f8be3ed8bb5dc>@@@Z 000000018004c488 f i libucrt:per_thread_data.obj
 0001:0004b4c8       ??$?RV<lambda_fb3a7dec4e47f37f22dae91bb15c9095>@@AEAV<lambda_698284760c8add0bfb0756c19673e34b>@@V<lambda_dfb8eca1e75fef3034a8fb18dd509707>@@@?$__crt_seh_guarded_call@X@@QEAAX$$QEAV<lambda_fb3a7dec4e47f37f22dae91bb15c9095>@@AEAV<lambda_698284760c8add0bfb0756c19673e34b>@@$$QEAV<lambda_dfb8eca1e75fef3034a8fb18dd509707>@@@Z 000000018004c4c8 f i libucrt:per_thread_data.obj
 0001:0004b758       __acrt_freeptd             000000018004c758 f   libucrt:per_thread_data.obj
 0001:0004b79c       __acrt_getptd              000000018004c79c f   libucrt:per_thread_data.obj
 0001:0004b830       __acrt_getptd_noexit       000000018004c830 f   libucrt:per_thread_data.obj
 0001:0004b8d0       __acrt_initialize_ptd      000000018004c8d0 f   libucrt:per_thread_data.obj
 0001:0004b90c       __acrt_uninitialize_ptd    000000018004c90c f   libucrt:per_thread_data.obj
 0001:0004b930       __acrt_update_locale_info  000000018004c930 f   libucrt:locale_update.obj
 0001:0004b964       __acrt_update_multibyte_info 000000018004c964 f   libucrt:locale_update.obj
 0001:0004b998       ??$?RV<lambda_5df02c53a8f32f81fd64e5bbb78039f1>@@AEAV<lambda_2af78c5f5901b1372d98f9ab3177dfa6>@@AEAV<lambda_f51fe5fd7c79a33db34fc9310f277369>@@@?$__crt_seh_guarded_call@X@@QEAAX$$QEAV<lambda_5df02c53a8f32f81fd64e5bbb78039f1>@@AEAV<lambda_2af78c5f5901b1372d98f9ab3177dfa6>@@AEAV<lambda_f51fe5fd7c79a33db34fc9310f277369>@@@Z 000000018004c998 f i libucrt:wsetlocale.obj
 0001:0004b9c4       ??$?RV<lambda_d67e8342c384adda8f857579ab50b2ae>@@AEAV<lambda_30712929f77e709619002f448b6a9510>@@V<lambda_4525336fd7e478d965fb7ca7a337cad8>@@@?$__crt_seh_guarded_call@X@@QEAAX$$QEAV<lambda_d67e8342c384adda8f857579ab50b2ae>@@AEAV<lambda_30712929f77e709619002f448b6a9510>@@$$QEAV<lambda_4525336fd7e478d965fb7ca7a337cad8>@@@Z 000000018004c9c4 f i libucrt:wsetlocale.obj
 0001:0004bb90       __acrt_copy_locale_name    000000018004cb90 f   libucrt:wsetlocale.obj
 0001:0004bc14       __acrt_set_locale_changed  000000018004cc14 f   libucrt:wsetlocale.obj
 0001:0004bc20       __acrt_uninitialize_locale 000000018004cc20 f   libucrt:wsetlocale.obj
 0001:0004bc68       __lc_lctowcs               000000018004cc68 f   libucrt:wsetlocale.obj
 0001:0004bd0c       __lc_wcstolc               000000018004cd0c f   libucrt:wsetlocale.obj
 0001:0004bf84       _expandlocale              000000018004cf84 f   libucrt:wsetlocale.obj
 0001:0004c380       _wcscats                   000000018004d380 f   libucrt:wsetlocale.obj
 0001:0004c3e8       _wsetlocale                000000018004d3e8 f   libucrt:wsetlocale.obj
 0001:0004cc34       iswctype                   000000018004dc34 f   libucrt:iswctype.obj
 0001:0004cca4       ??$?RV<lambda_c36588078e9f5dfd39652860aa6b3aaf>@@AEAV<lambda_ec61778202f4f5fc7e7711acc23c3bca>@@V<lambda_dc9d2797ccde5d239b4a0efae8ebd7db>@@@?$__crt_seh_guarded_call@P6AXH@Z@@QEAAP6AXH@Z$$QEAV<lambda_c36588078e9f5dfd39652860aa6b3aaf>@@AEAV<lambda_ec61778202f4f5fc7e7711acc23c3bca>@@$$QEAV<lambda_dc9d2797ccde5d239b4a0efae8ebd7db>@@@Z 000000018004dca4 f i libucrt:signal.obj
 0001:0004ccec       __acrt_get_sigabrt_handler 000000018004dcec f   libucrt:signal.obj
 0001:0004cd1c       __acrt_initialize_signal_handlers 000000018004dd1c f   libucrt:signal.obj
 0001:0004cd3c       raise                      000000018004dd3c f   libucrt:signal.obj
 0001:0004cfd8       _mbtowc_l                  000000018004dfd8 f   libucrt:mbtowc.obj
 0001:0004d120       mbtowc                     000000018004e120 f   libucrt:mbtowc.obj
 0001:0004d128       _wctomb_s_l                000000018004e128 f   libucrt:wctomb.obj
 0001:0004d2ac       wctomb_s                   000000018004e2ac f   libucrt:wctomb.obj
 0001:0004d2c0       ?__acrt_fp_classify@@YA?AW4__acrt_fp_class@@AEBN@Z 000000018004e2c0 f i libucrt:cvt.obj
 0001:0004dcf8       __acrt_fp_format           000000018004ecf8 f   libucrt:cvt.obj
 0001:0004df3c       _fileno                    000000018004ef3c f   libucrt:fileno.obj
 0001:0004df64       _get_printf_count_output   000000018004ef64 f   libucrt:printf_count_output.obj
 0001:0004df7c       __acrt_stdio_begin_temporary_buffering_nolock 000000018004ef7c f   libucrt:_sftbuf.obj
 0001:0004e04c       __acrt_stdio_end_temporary_buffering_nolock 000000018004f04c f   libucrt:_sftbuf.obj
 0001:0004e270       __acrt_initialize_lowio    000000018004f270 f   libucrt:ioinit.obj
 0001:0004e2ac       __acrt_uninitialize_lowio  000000018004f2ac f   libucrt:ioinit.obj
 0001:0004e2ec       _dsign                     000000018004f2ec f   libucrt:nan.obj
 0001:0004e304       _errcode                   000000018004f304 f   libucrt:fpexcept.obj
 0001:0004e348       _except1                   000000018004f348 f   libucrt:fpexcept.obj
 0001:0004e43c       _handle_exc                000000018004f43c f   libucrt:fpexcept.obj
 0001:0004e6a4       _raise_exc                 000000018004f6a4 f   libucrt:fpexcept.obj
 0001:0004e6cc       _raise_exc_ex              000000018004f6cc f   libucrt:fpexcept.obj
 0001:0004e9d4       _raise_excf                000000018004f9d4 f   libucrt:fpexcept.obj
 0001:0004ea00       _set_errno_from_matherr    000000018004fa00 f   libucrt:fpexcept.obj
 0001:0004ea30       _umatherr                  000000018004fa30 f   libucrt:fpexcept.obj
 0001:0004eb04       _decomp                    000000018004fb04 f   libucrt:util.obj
 0001:0004ec38       _sptype                    000000018004fc38 f   libucrt:util.obj
 0001:0004ecac       _clrfp                     000000018004fcac f   libucrt:fpctrl.obj
 0001:0004eccc       _ctrlfp                    000000018004fccc f   libucrt:fpctrl.obj
 0001:0004ed48       _set_statfp                000000018004fd48 f   libucrt:fpctrl.obj
 0001:0004ed68       _statfp                    000000018004fd68 f   libucrt:fpctrl.obj
 0001:0004ed7c       _query_new_mode            000000018004fd7c f   libucrt:new_mode.obj
 0001:0004ed84       __acrt_initialize_heap     000000018004fd84 f   libucrt:heap_handle.obj
 0001:0004eda0       __acrt_uninitialize_heap   000000018004fda0 f   libucrt:heap_handle.obj
 0001:0004edf0       ??$?RV<lambda_630b2aca97f6d20d5b5ea6529ea6b6af>@@AEAV<lambda_af91936f1d075d609f72d9d8cba980af>@@V<lambda_e82fa975f615b5c7c7b0e4d178fdae67>@@@?$__crt_seh_guarded_call@H@@QEAAH$$QEAV<lambda_630b2aca97f6d20d5b5ea6529ea6b6af>@@AEAV<lambda_af91936f1d075d609f72d9d8cba980af>@@$$QEAV<lambda_e82fa975f615b5c7c7b0e4d178fdae67>@@@Z 000000018004fdf0 f i libucrt:winapi_thunks.obj
 0001:0004f028       __acrt_EnumSystemLocalesEx 0000000180050028 f   libucrt:winapi_thunks.obj
 0001:0004f0d0       __acrt_FlsAlloc            00000001800500d0 f   libucrt:winapi_thunks.obj
 0001:0004f128       __acrt_FlsFree             0000000180050128 f   libucrt:winapi_thunks.obj
 0001:0004f180       __acrt_FlsGetValue         0000000180050180 f   libucrt:winapi_thunks.obj
 0001:0004f1d8       __acrt_FlsSetValue         00000001800501d8 f   libucrt:winapi_thunks.obj
 0001:0004f240       __acrt_GetLocaleInfoEx     0000000180050240 f   libucrt:winapi_thunks.obj
 0001:0004f2d8       __acrt_GetUserDefaultLocaleName 00000001800502d8 f   libucrt:winapi_thunks.obj
 0001:0004f34c       __acrt_InitializeCriticalSectionEx 000000018005034c f   libucrt:winapi_thunks.obj
 0001:0004f3c4       __acrt_IsValidLocaleName   00000001800503c4 f   libucrt:winapi_thunks.obj
 0001:0004f42c       __acrt_LCIDToLocaleName    000000018005042c f   libucrt:winapi_thunks.obj
 0001:0004f4b8       __acrt_LCMapStringEx       00000001800504b8 f   libucrt:winapi_thunks.obj
 0001:0004f5a8       __acrt_LocaleNameToLCID    00000001800505a8 f   libucrt:winapi_thunks.obj
 0001:0004f610       __acrt_can_use_vista_locale_apis 0000000180050610 f   libucrt:winapi_thunks.obj
 0001:0004f640       __acrt_initialize_winapi_thunks 0000000180050640 f   libucrt:winapi_thunks.obj
 0001:0004f678       __acrt_is_packaged_app     0000000180050678 f   libucrt:winapi_thunks.obj
 0001:0004f700       __acrt_uninitialize_winapi_thunks 0000000180050700 f   libucrt:winapi_thunks.obj
 0001:0004f744       _fcloseall                 0000000180050744 f   libucrt:closeall.obj
 0001:0004f7f8       __acrt_stdio_free_buffer_nolock 00000001800507f8 f   libucrt:_freebuf.obj
 0001:0004f838       ??$?RV<lambda_bfedae4ebbf01fab1bb6dcc6a9e276e0>@@AEAV<lambda_2fe9b910cf3cbf4a0ab98a02ba45b3ec>@@V<lambda_237c231691f317818eb88cc1d5d642d6>@@@?$__crt_seh_guarded_call@H@@QEAAH$$QEAV<lambda_bfedae4ebbf01fab1bb6dcc6a9e276e0>@@AEAV<lambda_2fe9b910cf3cbf4a0ab98a02ba45b3ec>@@$$QEAV<lambda_237c231691f317818eb88cc1d5d642d6>@@@Z 0000000180050838 f i libucrt:close.obj
 0001:0004f8ac       _close                     00000001800508ac f   libucrt:close.obj
 0001:0004f950       _close_nolock              0000000180050950 f   libucrt:close.obj
 0001:0004fa0c       ?__acrt_stdio_free_stream@@YAXV__crt_stdio_stream@@@Z 0000000180050a0c f   libucrt:stream.obj
 0001:0004fa50       ??$?RV<lambda_b521505b218e5242e90febf6bfebc422>@@AEAV<lambda_6978c1fb23f02e42e1d9e99668cc68aa>@@V<lambda_314360699dd331753a4119843814e9a7>@@@?$__crt_seh_guarded_call@H@@QEAAH$$QEAV<lambda_b521505b218e5242e90febf6bfebc422>@@AEAV<lambda_6978c1fb23f02e42e1d9e99668cc68aa>@@$$QEAV<lambda_314360699dd331753a4119843814e9a7>@@@Z 0000000180050a50 f i libucrt:commit.obj
 0001:0004fadc       _commit                    0000000180050adc f   libucrt:commit.obj
 0001:00050110       _write                     0000000180051110 f   libucrt:write.obj
 0001:000501fc       _write_nolock              00000001800511fc f   libucrt:write.obj
 0001:00050688       __acrt_stdio_refill_and_read_narrow_nolock 0000000180051688 f   libucrt:_filbuf.obj
 0001:00050b4c       _ftelli64                  0000000180051b4c f   libucrt:ftell.obj
 0001:00050b54       _ftelli64_nolock           0000000180051b54 f   libucrt:ftell.obj
 0001:00050c60       __acrt_stdio_flush_and_write_narrow_nolock 0000000180051c60 f   libucrt:_flsbuf.obj
 0001:00050ed4       _lseeki64                  0000000180051ed4 f   libucrt:lseek.obj
 0001:00050edc       _lseeki64_nolock           0000000180051edc f   libucrt:lseek.obj
 0001:00050ee4       __acrt_stdio_allocate_buffer_nolock 0000000180051ee4 f   libucrt:_getbuf.obj
 0001:00051124       _mbstowcs_s_l              0000000180052124 f   libucrt:mbstowcs.obj
 0001:00051254       mbstowcs_s                 0000000180052254 f   libucrt:mbstowcs.obj
 0001:000515a8       _wcstombs_s_l              00000001800525a8 f   libucrt:wcstombs.obj
 0001:00051834       __acrt_GetLocaleInfoA      0000000180052834 f   libucrt:getlocaleinfoa.obj
 0001:000519fc       __acrt_GetStringTypeA      00000001800529fc f   libucrt:getstringtypea.obj
 0001:00051f0c       __acrt_LCMapStringA        0000000180052f0c f   libucrt:lcmapstringa.obj
 0001:00051fb0       __acrt_initialize_fma3     0000000180052fb0 f   libucrt:fma3_available.obj
 0001:00052020       _pow_special               0000000180053020 f   libucrt:pow_special.obj
 0001:00052144       _powf_special              0000000180053144 f   libucrt:pow_special.obj
 0001:000522d0       _wcsicmp                   00000001800532d0 f   libucrt:wcsicmp.obj
 0001:00052358       _wcsicmp_l                 0000000180053358 f   libucrt:wcsicmp.obj
 0001:00052448       __acrt_initialize_timeset  0000000180053448 f   libucrt:timeset.obj
 0001:00052478       _isleadbyte_l              0000000180053478 f i libucrt:_wctype.obj
 0001:00052994       ?expand_if_necessary@?$argument_list@D@?A0xca0879c4@@AEAAHXZ 0000000180053994 f i libucrt:argv_wildcards.obj
 0001:00052a5c       __acrt_expand_narrow_argv_wildcards 0000000180053a5c f   libucrt:argv_wildcards.obj
 0001:00052a64       ??$?RV<lambda_99476a1ad63dd22509b5d3e65b0ffc95>@@AEAV<lambda_ad1ced32f4ac17aa236e5ef05d6b3b7c>@@V<lambda_f7424dd8d45958661754dc4f2697e9c3>@@@?$__crt_seh_guarded_call@X@@QEAAX$$QEAV<lambda_99476a1ad63dd22509b5d3e65b0ffc95>@@AEAV<lambda_ad1ced32f4ac17aa236e5ef05d6b3b7c>@@$$QEAV<lambda_f7424dd8d45958661754dc4f2697e9c3>@@@Z 0000000180053a64 f i libucrt:mbctype.obj
 0001:00053160       __acrt_initialize_multibyte 0000000180054160 f   libucrt:mbctype.obj
 0001:00053188       __acrt_update_thread_multibyte_data 0000000180054188 f   libucrt:mbctype.obj
 0001:00053248       _setmbcp_nolock            0000000180054248 f   libucrt:mbctype.obj
 0001:000534f0       __acrt_initialize_command_line 00000001800544f0 f   libucrt:argv_data.obj
 0001:00053518       __dcrt_get_narrow_environment_from_os 0000000180054518 f   libucrt:get_environment_from_os.obj
 0001:0005361c       _recalloc                  000000018005461c f   libucrt:recalloc.obj
 0001:00053624       _recalloc_base             0000000180054624 f   libucrt:recalloc.obj
 0001:000536bc       __acrt_execute_initializers 00000001800546bc f   libucrt:shared_initialization.obj
 0001:00053750       __acrt_execute_uninitializers 0000000180054750 f   libucrt:shared_initialization.obj
 0001:000537a0       __acrt_has_user_matherr    00000001800547a0 f   libucrt:matherr.obj
 0001:000537c0       __acrt_initialize_user_matherr 00000001800547c0 f   libucrt:matherr.obj
 0001:000537c8       __acrt_invoke_user_matherr 00000001800547c8 f   libucrt:matherr.obj
 0001:00053810       _exp_special               0000000180054810 f   libucrt:exp_special.obj
 0001:000539cc       _handle_error              00000001800549cc f   libucrt:libm_error.obj
 0001:00053af4       _handle_errorf             0000000180054af4 f   libucrt:libm_error.obj
 0001:00053c28       _handle_nan                0000000180054c28 f   libucrt:libm_error.obj
 0001:00053c44       _handle_nanf               0000000180054c44 f   libucrt:libm_error.obj
 0001:00053c54       __acrt_add_locale_ref      0000000180054c54 f   libucrt:locale_refcounting.obj
 0001:00053ce0       __acrt_free_locale         0000000180054ce0 f   libucrt:locale_refcounting.obj
 0001:00053e58       __acrt_locale_add_lc_time_reference 0000000180054e58 f   libucrt:locale_refcounting.obj
 0001:00053e80       __acrt_locale_free_lc_time_if_unreferenced 0000000180054e80 f   libucrt:locale_refcounting.obj
 0001:00053eb8       __acrt_locale_release_lc_time_reference 0000000180054eb8 f   libucrt:locale_refcounting.obj
 0001:00053ee0       __acrt_release_locale_ref  0000000180054ee0 f   libucrt:locale_refcounting.obj
 0001:00053f88       __acrt_update_thread_locale_data 0000000180054f88 f   libucrt:locale_refcounting.obj
 0001:00053ff8       _updatetlocinfoEx_nolock   0000000180054ff8 f   libucrt:locale_refcounting.obj
 0001:00054060       __acrt_locale_free_monetary 0000000180055060 f   libucrt:initmon.obj
 0001:0005416c       __acrt_locale_initialize_monetary 000000018005516c f   libucrt:initmon.obj
 0001:000546a4       __acrt_locale_free_numeric 00000001800556a4 f   libucrt:initnum.obj
 0001:00054710       __acrt_locale_initialize_numeric 0000000180055710 f   libucrt:initnum.obj
 0001:00054d94       __acrt_locale_free_time    0000000180055d94 f   libucrt:inittime.obj
 0001:00054e9c       __acrt_locale_initialize_time 0000000180055e9c f   libucrt:inittime.obj
 0001:00054f30       wcscat_s                   0000000180055f30 f   libucrt:wcscat_s.obj
 0001:00054fb0       wcscspn                    0000000180055fb0 f   libucrt:wcscspn.obj
 0001:00054ff0       wcsncmp                    0000000180055ff0 f   libucrt:wcsncmp.obj
 0001:0005501c       wcspbrk                    000000018005601c f   libucrt:wcspbrk.obj
 0001:000558c0       __acrt_get_qualified_locale 00000001800568c0 f   libucrt:get_qualified_locale.obj
 0001:000562ac       __acrt_get_qualified_locale_downlevel 00000001800572ac f   libucrt:getqloc_downlevel.obj
 0001:0005653c       __acrt_fp_strflt_to_string 000000018005753c f   libucrt:_fptostr.obj
 0001:000565fc       __acrt_fltout              00000001800575fc f   libucrt:cfout.obj
 0001:000579f0       _isatty                    00000001800589f0 f   libucrt:isatty.obj
 0001:00057a50       __acrt_lowio_create_handle_array 0000000180058a50 f   libucrt:osfinfo.obj
 0001:00057ae8       __acrt_lowio_destroy_handle_array 0000000180058ae8 f   libucrt:osfinfo.obj
 0001:00057b38       __acrt_lowio_ensure_fh_exists 0000000180058b38 f   libucrt:osfinfo.obj
 0001:00057bf0       __acrt_lowio_lock_fh       0000000180058bf0 f   libucrt:osfinfo.obj
 0001:00057c14       __acrt_lowio_unlock_fh     0000000180058c14 f   libucrt:osfinfo.obj
 0001:00057c38       _free_osfhnd               0000000180058c38 f   libucrt:osfinfo.obj
 0001:00057cf4       _get_osfhandle             0000000180058cf4 f   libucrt:osfinfo.obj
 0001:00057d80       _get_fpsr                  0000000180058d80 f   libucrt:fpsr.obj
 0001:00057d90       _set_fpsr                  0000000180058d90 f   libucrt:fpsr.obj
 0001:00057d9a       _fclrf                     0000000180058d9a f   libucrt:fpsr.obj
 0001:00057dae       _frnd                      0000000180058dae f   libucrt:fpsr.obj
 0001:00057e98       __acrt_DownlevelLCIDToLocaleName 0000000180058e98 f   libucrt:lcidtoname_downlevel.obj
 0001:00057f7c       __acrt_DownlevelLocaleNameToLCID 0000000180058f7c f   libucrt:lcidtoname_downlevel.obj
 0001:00057fb0       _putwch_nolock             0000000180058fb0 f   libucrt:putwch.obj
 0001:0005853c       _read                      000000018005953c f   libucrt:read.obj
 0001:00058654       _read_nolock               0000000180059654 f   libucrt:read.obj
 0001:00058abc       strncpy_s                  0000000180059abc f   libucrt:strncpy_s.obj
 0001:00058b90       _getfpcontrolword          0000000180059b90 f   libucrt:_fenvutils.obj
 0001:00058ba8       _getfpstatusword           0000000180059ba8 f   libucrt:_fenvutils.obj
 0001:00058bbc       _setfpcontrolword          0000000180059bbc f   libucrt:_fenvutils.obj
 0001:00058bc8       _setfpstatusword           0000000180059bc8 f   libucrt:_fenvutils.obj
 0001:00058c18       _towlower_l                0000000180059c18 f   libucrt:towlower.obj
 0001:00058db0       qsort                      0000000180059db0 f   libucrt:qsort.obj
 0001:000590e4       strpbrk                    000000018005a0e4 f   libucrt:strpbrk.obj
 0001:00059184       _mbsdec                    000000018005a184 f   libucrt:mbsdec.obj
 0001:0005918c       _mbsdec_l                  000000018005a18c f   libucrt:mbsdec.obj
 0001:0005923c       _msize                     000000018005a23c f   libucrt:msize.obj
 0001:000593a0       _itow_s                    000000018005a3a0 f   libucrt:xtoa.obj
 0001:000593c0       _wcsnicmp                  000000018005a3c0 f   libucrt:wcsnicmp.obj
 0001:0005945c       _wcsnicmp_l                000000018005a45c f   libucrt:wcsnicmp.obj
 0001:00059574       wcscmp                     000000018005a574 f   libucrt:wcscmp.obj
 0001:000595ac       fegetenv                   000000018005a5ac f   libucrt:fegetenv.obj
 0001:000595cc       fesetenv                   000000018005a5cc f   libucrt:fesetenv.obj
 0001:00059618       feholdexcept               000000018005a618 f   libucrt:feholdexcept.obj
 0001:00059668       ceil                       000000018005a668 f   libucrt:ceil.obj
 0001:00059730       log10                      000000018005a730 f   libucrt:log10.obj
 0001:00059cdc       _query_app_type            000000018005acdc f   libucrt:report_runtime_error.obj
 0001:00059ce4       __dcrt_lowio_initialize_console_output 000000018005ace4 f   libucrt:initcon.obj
 0001:00059d20       __dcrt_terminate_console_output 000000018005ad20 f   libucrt:initcon.obj
 0001:00059d40       _clearfp                   000000018005ad40 f   libucrt:ieee.obj
 0001:00059d94       _controlfp                 000000018005ad94 f   libucrt:ieee.obj
 0001:00059da0       _statusfp                  000000018005ada0 f   libucrt:ieee.obj
 0001:0005a080       __acrt_LCMapStringW        000000018005b080 f   libucrt:lcmapstringw.obj
 0001:0005a110       _log10_special             000000018005b110 f   libucrt:log_special.obj
 0001:0005a1c6       IsProcessorFeaturePresent  000000018005b1c6 f   kernel32:KERNEL32.dll
 0001:0005a1cc       RtlUnwindEx                000000018005b1cc f   kernel32:KERNEL32.dll
 0001:0005a1d2       SystemFunction036          000000018005b1d2 f   advapi32:ADVAPI32.dll
 0001:0005a1d8       ?DloadAcquireSectionWriteAccess@@YAXXZ 000000018005b1d8 f i DelayImp:delayhlp.obj
 0001:0005a294       ?DloadGetSRWLockFunctionPointers@@YAEXZ 000000018005b294 f i DelayImp:delayhlp.obj
 0001:0005a330       ?DloadMakePermanentImageCommit@@YAXPEAX_K@Z 000000018005b330 f i DelayImp:delayhlp.obj
 0001:0005a3c8       ?DloadObtainSection@@YAPEAXPEAK0@Z 000000018005b3c8 f i DelayImp:delayhlp.obj
 0001:0005a460       ?DloadProtectSection@@YAXKPEAK@Z 000000018005b460 f i DelayImp:delayhlp.obj
 0001:0005a4f0       ?DloadReleaseSectionWriteAccess@@YAXXZ 000000018005b4f0 f i DelayImp:delayhlp.obj
 0001:0005a594       __delayLoadHelper2         000000018005b594 f   DelayImp:delayhlp.obj
 0001:0005a89c       ?GetCurrentThreadId@platform@details@Concurrency@@YAJXZ 000000018005b89c f   libcpmt:ppltasks.obj
 0001:0005a8a4       ??$_Resetp@V__ExceptionPtr@@@?$shared_ptr@V__ExceptionPtr@@@std@@AEAAXPEAV__ExceptionPtr@@@Z 000000018005b8a4 f i libcpmt:excptptr.obj
 0001:0005a904       ??$_Resetp@V__ExceptionPtr@@P6AXPEAV1@@ZU?$_DebugMallocator@H@@@?$shared_ptr@V__ExceptionPtr@@@std@@AEAAXPEAV__ExceptionPtr@@P6AX0@ZU?$_DebugMallocator@H@@@Z 000000018005b904 f i libcpmt:excptptr.obj
 0001:0005a994       ??$reset@V__ExceptionPtr@@@?$shared_ptr@V__ExceptionPtr@@@std@@QEAAXPEAV__ExceptionPtr@@@Z 000000018005b994 f i libcpmt:excptptr.obj
 0001:0005aa30       ??$reset@V__ExceptionPtr@@P6AXPEAV1@@ZU?$_DebugMallocator@H@@@?$shared_ptr@V__ExceptionPtr@@@std@@QEAAXPEAV__ExceptionPtr@@P6AX0@ZU?$_DebugMallocator@H@@@Z 000000018005ba30 f i libcpmt:excptptr.obj
 0001:0005aacc       ??0__ExceptionPtr@@AEAA@PEBUEHExceptionRecord@@_N@Z 000000018005bacc f   libcpmt:excptptr.obj
 0001:0005ac50       ??1?$shared_ptr@V__ExceptionPtr@@@std@@QEAA@XZ 000000018005bc50 f i libcpmt:excptptr.obj
 0001:0005acb0       ??1__ExceptionPtr@@QEAA@XZ 000000018005bcb0 f   libcpmt:excptptr.obj
 0001:0005ad90       ??_G?$_Ref_count_del_alloc@V__ExceptionPtr@@P6AXPEAV1@@ZU?$_DebugMallocator@H@@@std@@UEAAPEAXI@Z 000000018005bd90 f i libcpmt:excptptr.obj
 0001:0005ad90       ??_E?$_Ref_count_del_alloc@V__ExceptionPtr@@P6AXPEAV1@@ZU?$_DebugMallocator@H@@@std@@UEAAPEAXI@Z 000000018005bd90 f i libcpmt:excptptr.obj
 0001:0005adbc       ??_G?$shared_ptr@V__ExceptionPtr@@@std@@QEAAPEAXI@Z 000000018005bdbc f i libcpmt:excptptr.obj
 0001:0005ae4c       ??_G__ExceptionPtr@@QEAAPEAXI@Z 000000018005be4c f i libcpmt:excptptr.obj
 0001:0005ae80       ?_BadAllocException@__ExceptionPtr@@SA?AV?$shared_ptr@V__ExceptionPtr@@@std@@XZ 000000018005be80 f   libcpmt:excptptr.obj
 0001:0005aebc       ?_CallCopyCtor@__ExceptionPtr@@AEBAXPEAX0_KQEBU_s_CatchableType@@@Z 000000018005bebc f   libcpmt:excptptr.obj
 0001:0005afa8       ?_CopyException@__ExceptionPtr@@SA?AV?$shared_ptr@V__ExceptionPtr@@@std@@PEBXPEBU_s_ThrowInfo@@_N@Z 000000018005bfa8 f   libcpmt:excptptr.obj
 0001:0005b140       ?_CurrentException@__ExceptionPtr@@SA?AV?$shared_ptr@V__ExceptionPtr@@@std@@XZ 000000018005c140 f   libcpmt:excptptr.obj
 0001:0005b21c       ?_DeleteExceptionPtr@@YAXQEAV__ExceptionPtr@@@Z 000000018005c21c f   libcpmt:excptptr.obj
 0001:0005b238       ?_Delete_this@?$_Ref_count@V__ExceptionPtr@@@std@@EEAAXXZ 000000018005c238 f i libcpmt:excptptr.obj
 0001:0005b270       ?_Delete_this@?$_Ref_count_del_alloc@V__ExceptionPtr@@P6AXPEAV1@@ZU?$_DebugMallocator@H@@@std@@EEAAXXZ 000000018005c270 f i libcpmt:excptptr.obj
 0001:0005b2a8       ?_Destroy@?$_Ref_count@V__ExceptionPtr@@@std@@EEAAXXZ 000000018005c2a8 f i libcpmt:excptptr.obj
 0001:0005b2d4       ?_Destroy@?$_Ref_count_del_alloc@V__ExceptionPtr@@P6AXPEAV1@@ZU?$_DebugMallocator@H@@@std@@EEAAXXZ 000000018005c2d4 f i libcpmt:excptptr.obj
 0001:0005b30c       ?_Get_deleter@?$_Ref_count_del_alloc@V__ExceptionPtr@@P6AXPEAV1@@ZU?$_DebugMallocator@H@@@std@@UEBAPEAXAEBVtype_info@@@Z 000000018005c30c f i libcpmt:excptptr.obj
 0001:0005b338       ?_InitBadAllocException@__ExceptionPtr@@CA?AV?$shared_ptr@V__ExceptionPtr@@@std@@XZ 000000018005c338 f   libcpmt:excptptr.obj
 0001:0005b3a0       ?_Reset0@?$_Ptr_base@V__ExceptionPtr@@@std@@QEAAXPEAV__ExceptionPtr@@PEAV_Ref_count_base@2@@Z 000000018005c3a0 f i libcpmt:excptptr.obj
 0001:0005b430       ?_RethrowException@__ExceptionPtr@@QEBAXXZ 000000018005c430 f   libcpmt:excptptr.obj
 0001:0005b5fc       ?__ExceptionPtrCopy@@YAXPEAXPEBX@Z 000000018005c5fc f   libcpmt:excptptr.obj
 0001:0005b62c       ?__ExceptionPtrCreate@@YAXPEAX@Z 000000018005c62c f   libcpmt:excptptr.obj
 0001:0005b63c       ?__ExceptionPtrCurrentException@@YAXPEAX@Z 000000018005c63c f   libcpmt:excptptr.obj
 0001:0005b6c0       ?__ExceptionPtrDestroy@@YAXPEAX@Z 000000018005c6c0 f   libcpmt:excptptr.obj
 0001:0005b6c8       ?__ExceptionPtrRethrow@@YAXPEBX@Z 000000018005c6c8 f   libcpmt:excptptr.obj
 0001:0005b6dc       ?create_stl_condition_variable@details@Concurrency@@YAXPEAVstl_condition_variable_interface@12@@Z 000000018005c6dc f i libcpmt:cond.obj
 0001:0005b770       ?destroy@stl_condition_variable_concrt@details@Concurrency@@UEAAXXZ 000000018005c770 f i libcpmt:cond.obj
 0001:0005b864       ?notify_all@stl_condition_variable_concrt@details@Concurrency@@UEAAXXZ 000000018005c864 f i libcpmt:cond.obj
 0001:0005b870       ?notify_all@stl_condition_variable_vista@details@Concurrency@@UEAAXXZ 000000018005c870 f i libcpmt:cond.obj
 0001:0005b870       ?notify_all@stl_condition_variable_win7@details@Concurrency@@UEAAXXZ 000000018005c870 f i libcpmt:cond.obj
 0001:0005b87c       ?notify_one@stl_condition_variable_concrt@details@Concurrency@@UEAAXXZ 000000018005c87c f i libcpmt:cond.obj
 0001:0005b888       ?notify_one@stl_condition_variable_vista@details@Concurrency@@UEAAXXZ 000000018005c888 f i libcpmt:cond.obj
 0001:0005b888       ?notify_one@stl_condition_variable_win7@details@Concurrency@@UEAAXXZ 000000018005c888 f i libcpmt:cond.obj
 0001:0005b894       ?wait@stl_condition_variable_concrt@details@Concurrency@@UEAAXPEAVstl_critical_section_interface@23@@Z 000000018005c894 f i libcpmt:cond.obj
 0001:0005b8a4       ?wait@stl_condition_variable_vista@details@Concurrency@@UEAAXPEAVstl_critical_section_interface@23@@Z 000000018005c8a4 f i libcpmt:cond.obj
 0001:0005b8c8       ?wait@stl_condition_variable_win7@details@Concurrency@@UEAAXPEAVstl_critical_section_interface@23@@Z 000000018005c8c8 f i libcpmt:cond.obj
 0001:0005b8f0       ?wait_for@stl_condition_variable_concrt@details@Concurrency@@UEAA_NPEAVstl_critical_section_interface@23@I@Z 000000018005c8f0 f i libcpmt:cond.obj
 0001:0005b900       ?wait_for@stl_condition_variable_vista@details@Concurrency@@UEAA_NPEAVstl_critical_section_interface@23@I@Z 000000018005c900 f i libcpmt:cond.obj
 0001:0005b91c       ?wait_for@stl_condition_variable_win7@details@Concurrency@@UEAA_NPEAVstl_critical_section_interface@23@I@Z 000000018005c91c f i libcpmt:cond.obj
 0001:0005b93c       _Cnd_broadcast             000000018005c93c f   libcpmt:cond.obj
 0001:0005b96c       _Cnd_destroy_in_situ       000000018005c96c f   libcpmt:cond.obj
 0001:0005b99c       _Cnd_init_in_situ          000000018005c99c f   libcpmt:cond.obj
 0001:0005b9a4       _Cnd_wait                  000000018005c9a4 f   libcpmt:cond.obj
 0001:0005b9ac       ??_L@YAXPEAX_K1P6AX0@Z2@Z  000000018005c9ac f   LIBCMT:ehvecctr.obj
 0001:0005ba20       _FindPESection             000000018005ca20 f   LIBCMT:pesect.obj
 0001:0005ba70       _IsNonwritableInCurrentImage 000000018005ca70 f   LIBCMT:pesect.obj
 0001:0005bac0       _ValidateImageBase         000000018005cac0 f   LIBCMT:pesect.obj
 0001:0005baf0       strrchr                    000000018005caf0 f   libvcruntime:strrchr.obj
 0001:0005bc34       wcschr                     000000018005cc34 f   libvcruntime:wcschr.obj
 0001:0005bcd0       _guard_dispatch_icall_nop  000000018005ccd0 f   LIBCMT:_guard_dispatch_.obj
 0001:0005cee0       ??__F_Static@?1???$_Immortalize@V_Iostream_error_category@std@@@std@@YAAEAV_Iostream_error_category@0@XZ@YAXXZ 000000018005dee0 f i addon.obj
 0001:0005cee4       ??__F_Static@?1???$_Immortalize@V_Generic_error_category@std@@@std@@YAAEAV_Generic_error_category@0@XZ@YAXXZ 000000018005dee4 f i libcpmt:thread0.obj
 0002:00000000       __imp_SystemFunction036    000000018005f000     advapi32:ADVAPI32.dll
 0002:00000008       \177ADVAPI32_NULL_THUNK_DATA 000000018005f008     advapi32:ADVAPI32.dll
 0002:00000010       __imp_LoadLibraryExA       000000018005f010     kernel32:KERNEL32.dll
 0002:00000018       __imp_VirtualQuery         000000018005f018     kernel32:KERNEL32.dll
 0002:00000020       __imp_GetSystemInfo        000000018005f020     kernel32:KERNEL32.dll
 0002:00000028       __imp_GetModuleHandleA     000000018005f028     kernel32:KERNEL32.dll
 0002:00000030       __imp_GetCurrentProcessId  000000018005f030     kernel32:KERNEL32.dll
 0002:00000038       __imp_GetCurrentThreadId   000000018005f038     kernel32:KERNEL32.dll
 0002:00000040       __imp_CreateFileW          000000018005f040     kernel32:KERNEL32.dll
 0002:00000048       __imp_HeapSize             000000018005f048     kernel32:KERNEL32.dll
 0002:00000050       __imp_ReadConsoleW         000000018005f050     kernel32:KERNEL32.dll
 0002:00000058       __imp_WriteConsoleW        000000018005f058     kernel32:KERNEL32.dll
 0002:00000060       __imp_SetStdHandle         000000018005f060     kernel32:KERNEL32.dll
 0002:00000068       __imp_FreeEnvironmentStringsW 000000018005f068     kernel32:KERNEL32.dll
 0002:00000070       __imp_GetEnvironmentStringsW 000000018005f070     kernel32:KERNEL32.dll
 0002:00000078       __imp_GetCommandLineW      000000018005f078     kernel32:KERNEL32.dll
 0002:00000080       __imp_GetCommandLineA      000000018005f080     kernel32:KERNEL32.dll
 0002:00000088       __imp_GetOEMCP             000000018005f088     kernel32:KERNEL32.dll
 0002:00000090       __imp_IsValidCodePage      000000018005f090     kernel32:KERNEL32.dll
 0002:00000098       __imp_FindNextFileA        000000018005f098     kernel32:KERNEL32.dll
 0002:000000a0       __imp_EnterCriticalSection 000000018005f0a0     kernel32:KERNEL32.dll
 0002:000000a8       __imp_LeaveCriticalSection 000000018005f0a8     kernel32:KERNEL32.dll
 0002:000000b0       __imp_TryEnterCriticalSection 000000018005f0b0     kernel32:KERNEL32.dll
 0002:000000b8       __imp_DeleteCriticalSection 000000018005f0b8     kernel32:KERNEL32.dll
 0002:000000c0       __imp_WideCharToMultiByte  000000018005f0c0     kernel32:KERNEL32.dll
 0002:000000c8       __imp_QueryPerformanceCounter 000000018005f0c8     kernel32:KERNEL32.dll
 0002:000000d0       __imp_SetLastError         000000018005f0d0     kernel32:KERNEL32.dll
 0002:000000d8       __imp_InitializeCriticalSectionAndSpinCount 000000018005f0d8     kernel32:KERNEL32.dll
 0002:000000e0       __imp_CreateEventW         000000018005f0e0     kernel32:KERNEL32.dll
 0002:000000e8       __imp_Sleep                000000018005f0e8     kernel32:KERNEL32.dll
 0002:000000f0       __imp_TlsAlloc             000000018005f0f0     kernel32:KERNEL32.dll
 0002:000000f8       __imp_TlsGetValue          000000018005f0f8     kernel32:KERNEL32.dll
 0002:00000100       __imp_TlsSetValue          000000018005f100     kernel32:KERNEL32.dll
 0002:00000108       __imp_TlsFree              000000018005f108     kernel32:KERNEL32.dll
 0002:00000110       __imp_GetSystemTimeAsFileTime 000000018005f110     kernel32:KERNEL32.dll
 0002:00000118       __imp_GetTickCount         000000018005f118     kernel32:KERNEL32.dll
 0002:00000120       __imp_GetModuleHandleW     000000018005f120     kernel32:KERNEL32.dll
 0002:00000128       __imp_GetProcAddress       000000018005f128     kernel32:KERNEL32.dll
 0002:00000130       __imp_EncodePointer        000000018005f130     kernel32:KERNEL32.dll
 0002:00000138       __imp_DecodePointer        000000018005f138     kernel32:KERNEL32.dll
 0002:00000140       __imp_MultiByteToWideChar  000000018005f140     kernel32:KERNEL32.dll
 0002:00000148       __imp_LCMapStringW         000000018005f148     kernel32:KERNEL32.dll
 0002:00000150       __imp_GetLocaleInfoW       000000018005f150     kernel32:KERNEL32.dll
 0002:00000158       __imp_GetStringTypeW       000000018005f158     kernel32:KERNEL32.dll
 0002:00000160       __imp_GetCPInfo            000000018005f160     kernel32:KERNEL32.dll
 0002:00000168       __imp_CloseHandle          000000018005f168     kernel32:KERNEL32.dll
 0002:00000170       __imp_SetEvent             000000018005f170     kernel32:KERNEL32.dll
 0002:00000178       __imp_ResetEvent           000000018005f178     kernel32:KERNEL32.dll
 0002:00000180       __imp_WaitForSingleObjectEx 000000018005f180     kernel32:KERNEL32.dll
 0002:00000188       __imp_RtlCaptureContext    000000018005f188     kernel32:KERNEL32.dll
 0002:00000190       __imp_RtlLookupFunctionEntry 000000018005f190     kernel32:KERNEL32.dll
 0002:00000198       __imp_RtlVirtualUnwind     000000018005f198     kernel32:KERNEL32.dll
 0002:000001a0       __imp_UnhandledExceptionFilter 000000018005f1a0     kernel32:KERNEL32.dll
 0002:000001a8       __imp_SetUnhandledExceptionFilter 000000018005f1a8     kernel32:KERNEL32.dll
 0002:000001b0       __imp_GetCurrentProcess    000000018005f1b0     kernel32:KERNEL32.dll
 0002:000001b8       __imp_TerminateProcess     000000018005f1b8     kernel32:KERNEL32.dll
 0002:000001c0       __imp_IsProcessorFeaturePresent 000000018005f1c0     kernel32:KERNEL32.dll
 0002:000001c8       __imp_IsDebuggerPresent    000000018005f1c8     kernel32:KERNEL32.dll
 0002:000001d0       __imp_GetStartupInfoW      000000018005f1d0     kernel32:KERNEL32.dll
 0002:000001d8       __imp_InitializeSListHead  000000018005f1d8     kernel32:KERNEL32.dll
 0002:000001e0       __imp_GetLastError         000000018005f1e0     kernel32:KERNEL32.dll
 0002:000001e8       __imp_SignalObjectAndWait  000000018005f1e8     kernel32:KERNEL32.dll
 0002:000001f0       __imp_SwitchToThread       000000018005f1f0     kernel32:KERNEL32.dll
 0002:000001f8       __imp_CreateThread         000000018005f1f8     kernel32:KERNEL32.dll
 0002:00000200       __imp_SetThreadPriority    000000018005f200     kernel32:KERNEL32.dll
 0002:00000208       __imp_GetThreadPriority    000000018005f208     kernel32:KERNEL32.dll
 0002:00000210       __imp_GetLogicalProcessorInformation 000000018005f210     kernel32:KERNEL32.dll
 0002:00000218       __imp_CreateTimerQueueTimer 000000018005f218     kernel32:KERNEL32.dll
 0002:00000220       __imp_ChangeTimerQueueTimer 000000018005f220     kernel32:KERNEL32.dll
 0002:00000228       __imp_DeleteTimerQueueTimer 000000018005f228     kernel32:KERNEL32.dll
 0002:00000230       __imp_GetNumaHighestNodeNumber 000000018005f230     kernel32:KERNEL32.dll
 0002:00000238       __imp_GetProcessAffinityMask 000000018005f238     kernel32:KERNEL32.dll
 0002:00000240       __imp_SetThreadAffinityMask 000000018005f240     kernel32:KERNEL32.dll
 0002:00000248       __imp_RegisterWaitForSingleObject 000000018005f248     kernel32:KERNEL32.dll
 0002:00000250       __imp_UnregisterWait       000000018005f250     kernel32:KERNEL32.dll
 0002:00000258       __imp_GetCurrentThread     000000018005f258     kernel32:KERNEL32.dll
 0002:00000260       __imp_GetThreadTimes       000000018005f260     kernel32:KERNEL32.dll
 0002:00000268       __imp_FreeLibrary          000000018005f268     kernel32:KERNEL32.dll
 0002:00000270       __imp_FreeLibraryAndExitThread 000000018005f270     kernel32:KERNEL32.dll
 0002:00000278       __imp_GetModuleFileNameW   000000018005f278     kernel32:KERNEL32.dll
 0002:00000280       __imp_LoadLibraryExW       000000018005f280     kernel32:KERNEL32.dll
 0002:00000288       __imp_GetVersionExW        000000018005f288     kernel32:KERNEL32.dll
 0002:00000290       __imp_VirtualAlloc         000000018005f290     kernel32:KERNEL32.dll
 0002:00000298       __imp_VirtualFree          000000018005f298     kernel32:KERNEL32.dll
 0002:000002a0       __imp_VirtualProtect       000000018005f2a0     kernel32:KERNEL32.dll
 0002:000002a8       __imp_DuplicateHandle      000000018005f2a8     kernel32:KERNEL32.dll
 0002:000002b0       __imp_ReleaseSemaphore     000000018005f2b0     kernel32:KERNEL32.dll
 0002:000002b8       __imp_InterlockedPopEntrySList 000000018005f2b8     kernel32:KERNEL32.dll
 0002:000002c0       __imp_InterlockedPushEntrySList 000000018005f2c0     kernel32:KERNEL32.dll
 0002:000002c8       __imp_InterlockedFlushSList 000000018005f2c8     kernel32:KERNEL32.dll
 0002:000002d0       __imp_QueryDepthSList      000000018005f2d0     kernel32:KERNEL32.dll
 0002:000002d8       __imp_UnregisterWaitEx     000000018005f2d8     kernel32:KERNEL32.dll
 0002:000002e0       __imp_CreateTimerQueue     000000018005f2e0     kernel32:KERNEL32.dll
 0002:000002e8       __imp_LoadLibraryW         000000018005f2e8     kernel32:KERNEL32.dll
 0002:000002f0       __imp_RtlPcToFileHeader    000000018005f2f0     kernel32:KERNEL32.dll
 0002:000002f8       __imp_RaiseException       000000018005f2f8     kernel32:KERNEL32.dll
 0002:00000300       __imp_RtlUnwindEx          000000018005f300     kernel32:KERNEL32.dll
 0002:00000308       __imp_HeapAlloc            000000018005f308     kernel32:KERNEL32.dll
 0002:00000310       __imp_HeapFree             000000018005f310     kernel32:KERNEL32.dll
 0002:00000318       __imp_HeapReAlloc          000000018005f318     kernel32:KERNEL32.dll
 0002:00000320       __imp_ExitProcess          000000018005f320     kernel32:KERNEL32.dll
 0002:00000328       __imp_GetModuleHandleExW   000000018005f328     kernel32:KERNEL32.dll
 0002:00000330       __imp_GetModuleFileNameA   000000018005f330     kernel32:KERNEL32.dll
 0002:00000338       __imp_GetACP               000000018005f338     kernel32:KERNEL32.dll
 0002:00000340       __imp_GetStdHandle         000000018005f340     kernel32:KERNEL32.dll
 0002:00000348       __imp_GetFileType          000000018005f348     kernel32:KERNEL32.dll
 0002:00000350       __imp_GetProcessHeap       000000018005f350     kernel32:KERNEL32.dll
 0002:00000358       __imp_IsValidLocale        000000018005f358     kernel32:KERNEL32.dll
 0002:00000360       __imp_GetUserDefaultLCID   000000018005f360     kernel32:KERNEL32.dll
 0002:00000368       __imp_EnumSystemLocalesW   000000018005f368     kernel32:KERNEL32.dll
 0002:00000370       __imp_FlushFileBuffers     000000018005f370     kernel32:KERNEL32.dll
 0002:00000378       __imp_WriteFile            000000018005f378     kernel32:KERNEL32.dll
 0002:00000380       __imp_GetConsoleCP         000000018005f380     kernel32:KERNEL32.dll
 0002:00000388       __imp_GetConsoleMode       000000018005f388     kernel32:KERNEL32.dll
 0002:00000390       __imp_ReadFile             000000018005f390     kernel32:KERNEL32.dll
 0002:00000398       __imp_SetFilePointerEx     000000018005f398     kernel32:KERNEL32.dll
 0002:000003a0       __imp_FindClose            000000018005f3a0     kernel32:KERNEL32.dll
 0002:000003a8       __imp_FindFirstFileExA     000000018005f3a8     kernel32:KERNEL32.dll
 0002:000003b0       \177KERNEL32_NULL_THUNK_DATA 000000018005f3b0     kernel32:KERNEL32.dll
 0002:000003b8       __imp_WSADuplicateSocketW  000000018005f3b8     ws2_32:WS2_32.dll
 0002:000003c0       __imp_WSASocketW           000000018005f3c0     ws2_32:WS2_32.dll
 0002:000003c8       __imp_getpeername          000000018005f3c8     ws2_32:WS2_32.dll
 0002:000003d0       __imp_inet_ntop            000000018005f3d0     ws2_32:WS2_32.dll
 0002:000003d8       __imp_ntohs                000000018005f3d8     ws2_32:WS2_32.dll
 0002:000003e0       __imp_htons                000000018005f3e0     ws2_32:WS2_32.dll
 0002:000003e8       __imp_accept               000000018005f3e8     ws2_32:WS2_32.dll
 0002:000003f0       __imp_bind                 000000018005f3f0     ws2_32:WS2_32.dll
 0002:000003f8       __imp_listen               000000018005f3f8     ws2_32:WS2_32.dll
 0002:00000400       __imp_getaddrinfo          000000018005f400     ws2_32:WS2_32.dll
 0002:00000408       __imp_socket               000000018005f408     ws2_32:WS2_32.dll
 0002:00000410       __imp_connect              000000018005f410     ws2_32:WS2_32.dll
 0002:00000418       __imp_recv                 000000018005f418     ws2_32:WS2_32.dll
 0002:00000420       __imp_freeaddrinfo         000000018005f420     ws2_32:WS2_32.dll
 0002:00000428       __imp_WSACleanup           000000018005f428     ws2_32:WS2_32.dll
 0002:00000430       __imp_WSAStartup           000000018005f430     ws2_32:WS2_32.dll
 0002:00000438       __imp_closesocket          000000018005f438     ws2_32:WS2_32.dll
 0002:00000440       __imp_shutdown             000000018005f440     ws2_32:WS2_32.dll
 0002:00000448       __imp_send                 000000018005f448     ws2_32:WS2_32.dll
 0002:00000450       __imp_setsockopt           000000018005f450     ws2_32:WS2_32.dll
 0002:00000458       __imp_WSAGetLastError      000000018005f458     ws2_32:WS2_32.dll
 0002:00000460       \177WS2_32_NULL_THUNK_DATA 000000018005f460     ws2_32:WS2_32.dll
 0002:00000468       __guard_check_icall_fptr   000000018005f468     LIBCMT:guard_support.obj
 0002:00000470       __guard_dispatch_icall_fptr 000000018005f470     LIBCMT:guard_support.obj
 0002:00000478       __xc_a                     000000018005f478     LIBCMT:initializers.obj
 0002:00000510       _register_uws_             000000018005f510     addon.obj
 0002:00000550       __xc_z                     000000018005f550     LIBCMT:initializers.obj
 0002:00000558       __xi_a                     000000018005f558     LIBCMT:initializers.obj
 0002:00000570       __acrt_stdio_initializer   000000018005f570     libucrt:stdio_initializer.obj
 0002:00000578       __acrt_tran_fma3_initializer 000000018005f578     libucrt:fma3_initializer.obj
 0002:00000580       __acrt_timeset_initializer 000000018005f580     libucrt:timeset_initializer.obj
 0002:00000588       __acrt_multibyte_initializer 000000018005f588     libucrt:multibyte_initializer.obj
 0002:00000590       __xi_z                     000000018005f590     LIBCMT:initializers.obj
 0002:00000598       __xl_a                     000000018005f598     LIBCMT:tlssup.obj
 0002:000005a0       __xl_z                     000000018005f5a0     LIBCMT:tlssup.obj
 0002:000005a8       __xp_a                     000000018005f5a8     LIBCMT:initializers.obj
 0002:000005b8       __acrt_locale_terminator   000000018005f5b8     libucrt:locale_initializer.obj
 0002:000005c0       __dcrt_console_output_terminator 000000018005f5c0     libucrt:console_output_initializer.obj
 0002:000005c8       __acrt_stdio_terminator    000000018005f5c8     libucrt:stdio_initializer.obj
 0002:000005d0       __xp_z                     000000018005f5d0     LIBCMT:initializers.obj
 0002:000005d8       __xt_a                     000000018005f5d8     LIBCMT:initializers.obj
 0002:000005e0       __xt_z                     000000018005f5e0     LIBCMT:initializers.obj
 0002:000005f0       __sz_node_exe              000000018005f5f0     node:node.exe
 0002:00000608       ??_7exception@std@@6B@     000000018005f608     libcpmt:xthrow.obj
 0002:00000618       ??_C@_0BC@EOODALEL@Unknown?5exception?$AA@ 000000018005f618     libcpmt:xthrow.obj
 0002:00000638       ??_7bad_alloc@std@@6B@     000000018005f638     libcpmt:xthrow.obj
 0002:00000648       ??_C@_0P@GHFPNOJB@bad?5allocation?$AA@ 000000018005f648     libcpmt:xthrow.obj
 0002:00000660       ??_7logic_error@std@@6B@   000000018005f660     libcpmt:xthrow.obj
 0002:00000678       ??_7invalid_argument@std@@6B@ 000000018005f678     libcpmt:xthrow.obj
 0002:00000690       ??_7length_error@std@@6B@  000000018005f690     libcpmt:xthrow.obj
 0002:000006a8       ??_7out_of_range@std@@6B@  000000018005f6a8     libcpmt:xthrow.obj
 0002:000006c0       ??_7runtime_error@std@@6B@ 000000018005f6c0     libcpmt:xthrow.obj
 0002:000006d8       ??_7bad_function_call@std@@6B@ 000000018005f6d8     libcpmt:xthrow.obj
 0002:000006e8       ??_C@_0BC@DPJNKNAF@bad?5function?5call?$AA@ 000000018005f6e8     libcpmt:xthrow.obj
 0002:00000758       ??_C@_0BI@NGCEHDD@device?5or?5resource?5busy?$AA@ 000000018005f758     libcpmt:thread0.obj
 0002:00000770       ??_C@_0BB@FCMFBGOM@invalid?5argument?$AA@ 000000018005f770     libcpmt:thread0.obj
 0002:00000788       ??_C@_0BA@ENLPPKBN@no?5such?5process?$AA@ 000000018005f788     libcpmt:thread0.obj
 0002:00000798       ??_C@_0BC@ENOOLCNF@not?5enough?5memory?$AA@ 000000018005f798     libcpmt:thread0.obj
 0002:000007b0       ??_C@_0BI@OHIEJAAB@operation?5not?5permitted?$AA@ 000000018005f7b0     libcpmt:thread0.obj
 0002:000007c8       ??_C@_0BO@BJBOMOEJ@resource?5deadlock?5would?5occur?$AA@ 000000018005f7c8     libcpmt:thread0.obj
 0002:000007e8       ??_C@_0BP@LKNGHENJ@resource?5unavailable?5try?5again?$AA@ 000000018005f7e8     libcpmt:thread0.obj
 0002:00000838       ??_7error_category@std@@6B@ 000000018005f838     libcpmt:thread0.obj
 0002:00000870       ??_7_System_error@std@@6B@ 000000018005f870     libcpmt:thread0.obj
 0002:00000888       ??_7system_error@std@@6B@  000000018005f888     libcpmt:thread0.obj
 0002:000008a0       ??_7_Generic_error_category@std@@6B@ 000000018005f8a0     libcpmt:thread0.obj
 0002:00000900       ??_7stl_critical_section_vista@details@Concurrency@@6B@ 000000018005f900     libcpmt:mutex.obj
 0002:00000930       ??_7stl_critical_section_win7@details@Concurrency@@6B@ 000000018005f930     libcpmt:mutex.obj
 0002:00000960       ??_7stl_critical_section_concrt@details@Concurrency@@6B@ 000000018005f960     libcpmt:mutex.obj
 0002:00000be8       ??_7bad_cast@std@@6B@      000000018005fbe8     libcpmt:cout.obj
 0002:00000bf8       ??_C@_08EPJLHIJG@bad?5cast?$AA@ 000000018005fbf8     libcpmt:cout.obj
 0002:00000c10       ??_7_Facet_base@std@@6B@   000000018005fc10     libcpmt:cout.obj
 0002:00000c30       ??_7?$ctype@D@std@@6B@     000000018005fc30     libcpmt:cout.obj
 0002:00000c90       ??_7_Iostream_error_category@std@@6B@ 000000018005fc90     libcpmt:cout.obj
 0002:00000cc8       ??_7failure@ios_base@std@@6B@ 000000018005fcc8     libcpmt:cout.obj
 0002:00000ce0       ??_7ios_base@std@@6B@      000000018005fce0     libcpmt:cout.obj
 0002:00000cf0       ??_7?$basic_streambuf@DU?$char_traits@D@std@@@std@@6B@ 000000018005fcf0     libcpmt:cout.obj
 0002:00000d70       ??_7?$basic_filebuf@DU?$char_traits@D@std@@@std@@6B@ 000000018005fd70     libcpmt:cout.obj
 0002:00000df0       ??_7?$basic_ios@DU?$char_traits@D@std@@@std@@6B@ 000000018005fdf0     libcpmt:cout.obj
 0002:00000e00       ??_7?$basic_ostream@DU?$char_traits@D@std@@@std@@6B@ 000000018005fe00     libcpmt:cout.obj
 0002:00000e08       ??_8?$basic_ostream@DU?$char_traits@D@std@@@std@@7B@ 000000018005fe08     libcpmt:cout.obj
 0002:00000e18       ??_7?$codecvt@DDU_Mbstatet@@@std@@6B@ 000000018005fe18     libcpmt:cout.obj
 0002:00000f38       ??_7_Locimp@locale@std@@6B@ 000000018005ff38     libcpmt:locale0.obj
 0002:00000f50       ??_C@_01NBENCBCI@?$CK?$AA@ 000000018005ff50     libcpmt:locale0.obj
 0002:00000f54       ??_C@_01GFHCPBMG@C?$AA@    000000018005ff54     libcpmt:locale0.obj
 0002:000016b0       ??_C@_0BN@LKKBCCDB@address?5family?5not?5supported?$AA@ 00000001800606b0     libcpmt:syserror.obj
 0002:000016d0       ??_C@_0P@LDMLAFHI@address?5in?5use?$AA@ 00000001800606d0     libcpmt:syserror.obj
 0002:000016e0       ??_C@_0BG@DHPCNBJB@address?5not?5available?$AA@ 00000001800606e0     libcpmt:syserror.obj
 0002:000016f8       ??_C@_0BC@DFIBIBIL@already?5connected?$AA@ 00000001800606f8     libcpmt:syserror.obj
 0002:00001710       ??_C@_0BH@CAKOHOMI@argument?5list?5too?5long?$AA@ 0000000180060710     libcpmt:syserror.obj
 0002:00001728       ??_C@_0BH@CGIMPKIM@argument?5out?5of?5domain?$AA@ 0000000180060728     libcpmt:syserror.obj
 0002:00001740       ??_C@_0M@KGHGGJGL@bad?5address?$AA@ 0000000180060740     libcpmt:syserror.obj
 0002:00001750       ??_C@_0BE@MPJPGCEO@bad?5file?5descriptor?$AA@ 0000000180060750     libcpmt:syserror.obj
 0002:00001768       ??_C@_0M@PMMIEFCP@bad?5message?$AA@ 0000000180060768     libcpmt:syserror.obj
 0002:00001778       ??_C@_0M@KPHOFDBE@broken?5pipe?$AA@ 0000000180060778     libcpmt:syserror.obj
 0002:00001788       ??_C@_0BD@MGNDDEGM@connection?5aborted?$AA@ 0000000180060788     libcpmt:syserror.obj
 0002:000017a0       ??_C@_0BP@KAIHPOGN@connection?5already?5in?5progress?$AA@ 00000001800607a0     libcpmt:syserror.obj
 0002:000017c0       ??_C@_0BD@PJLIIJEL@connection?5refused?$AA@ 00000001800607c0     libcpmt:syserror.obj
 0002:000017d8       ??_C@_0BB@IECNJNOI@connection?5reset?$AA@ 00000001800607d8     libcpmt:syserror.obj
 0002:000017f0       ??_C@_0BC@PPHBOELF@cross?5device?5link?$AA@ 00000001800607f0     libcpmt:syserror.obj
 0002:00001808       ??_C@_0BN@KDMIFEIP@destination?5address?5required?$AA@ 0000000180060808     libcpmt:syserror.obj
 0002:00001828       ??_C@_0BE@JIDOCPHM@directory?5not?5empty?$AA@ 0000000180060828     libcpmt:syserror.obj
 0002:00001840       ??_C@_0BI@BNCLIGPB@executable?5format?5error?$AA@ 0000000180060840     libcpmt:syserror.obj
 0002:00001858       ??_C@_0M@MIDIAGJP@file?5exists?$AA@ 0000000180060858     libcpmt:syserror.obj
 0002:00001868       ??_C@_0P@DNAJLBJK@file?5too?5large?$AA@ 0000000180060868     libcpmt:syserror.obj
 0002:00001878       ??_C@_0BC@EJHOMAAK@filename?5too?5long?$AA@ 0000000180060878     libcpmt:syserror.obj
 0002:00001890       ??_C@_0BH@KEFGLDAF@function?5not?5supported?$AA@ 0000000180060890     libcpmt:syserror.obj
 0002:000018a8       ??_C@_0BB@DHFDFGDM@host?5unreachable?$AA@ 00000001800608a8     libcpmt:syserror.obj
 0002:000018c0       ??_C@_0BD@JPHBMONG@identifier?5removed?$AA@ 00000001800608c0     libcpmt:syserror.obj
 0002:000018d8       ??_C@_0BG@CDNPAGJK@illegal?5byte?5sequence?$AA@ 00000001800608d8     libcpmt:syserror.obj
 0002:000018f0       ??_C@_0CD@BNPLBMNA@inappropriate?5io?5control?5operati@ 00000001800608f0     libcpmt:syserror.obj
 0002:00001918       ??_C@_0M@EGEKIIMP@interrupted?$AA@ 0000000180060918     libcpmt:syserror.obj
 0002:00001928       ??_C@_0N@OHAFKDEK@invalid?5seek?$AA@ 0000000180060928     libcpmt:syserror.obj
 0002:00001938       ??_C@_08GLNPIFBN@io?5error?$AA@ 0000000180060938     libcpmt:syserror.obj
 0002:00001948       ??_C@_0P@FLLDBIDK@is?5a?5directory?$AA@ 0000000180060948     libcpmt:syserror.obj
 0002:00001958       ??_C@_0N@IFLPBIOP@message?5size?$AA@ 0000000180060958     libcpmt:syserror.obj
 0002:00001968       ??_C@_0N@KIIEAAIO@network?5down?$AA@ 0000000180060968     libcpmt:syserror.obj
 0002:00001978       ??_C@_0O@FNPDBHEE@network?5reset?$AA@ 0000000180060978     libcpmt:syserror.obj
 0002:00001988       ??_C@_0BE@IFNCKGE@network?5unreachable?$AA@ 0000000180060988     libcpmt:syserror.obj
 0002:000019a0       ??_C@_0BA@PFFCAOFK@no?5buffer?5space?$AA@ 00000001800609a0     libcpmt:syserror.obj
 0002:000019b0       ??_C@_0BB@IEPBLJHK@no?5child?5process?$AA@ 00000001800609b0     libcpmt:syserror.obj
 0002:000019c8       ??_C@_07PLECNNKG@no?5link?$AA@ 00000001800609c8     libcpmt:syserror.obj
 0002:000019d0       ??_C@_0BC@NJECKMKE@no?5lock?5available?$AA@ 00000001800609d0     libcpmt:syserror.obj
 0002:000019e8       ??_C@_0BF@PBGGPKKE@no?5message?5available?$AA@ 00000001800609e8     libcpmt:syserror.obj
 0002:00001a00       ??_C@_0L@EDOLMPAK@no?5message?$AA@ 0000000180060a00     libcpmt:syserror.obj
 0002:00001a10       ??_C@_0BD@EAMBFIDF@no?5protocol?5option?$AA@ 0000000180060a10     libcpmt:syserror.obj
 0002:00001a28       ??_C@_0BD@IJDJKDEA@no?5space?5on?5device?$AA@ 0000000180060a28     libcpmt:syserror.obj
 0002:00001a40       ??_C@_0BE@MKFDAFMP@no?5stream?5resources?$AA@ 0000000180060a40     libcpmt:syserror.obj
 0002:00001a58       ??_C@_0BK@IMCPHCBI@no?5such?5device?5or?5address?$AA@ 0000000180060a58     libcpmt:syserror.obj
 0002:00001a78       ??_C@_0P@FDINDDOK@no?5such?5device?$AA@ 0000000180060a78     libcpmt:syserror.obj
 0002:00001a88       ??_C@_0BK@NDOCBPGE@no?5such?5file?5or?5directory?$AA@ 0000000180060a88     libcpmt:syserror.obj
 0002:00001aa8       ??_C@_0BA@DOCPFFJG@not?5a?5directory?$AA@ 0000000180060aa8     libcpmt:syserror.obj
 0002:00001ab8       ??_C@_0N@POEIPGGF@not?5a?5socket?$AA@ 0000000180060ab8     libcpmt:syserror.obj
 0002:00001ac8       ??_C@_0N@LGAPMMPI@not?5a?5stream?$AA@ 0000000180060ac8     libcpmt:syserror.obj
 0002:00001ad8       ??_C@_0O@GLMIBBEG@not?5connected?$AA@ 0000000180060ad8     libcpmt:syserror.obj
 0002:00001ae8       ??_C@_0O@NHEDABJP@not?5supported?$AA@ 0000000180060ae8     libcpmt:syserror.obj
 0002:00001af8       ??_C@_0BD@MOLBPMEA@operation?5canceled?$AA@ 0000000180060af8     libcpmt:syserror.obj
 0002:00001b10       ??_C@_0BG@KDKHOPCO@operation?5in?5progress?$AA@ 0000000180060b10     libcpmt:syserror.obj
 0002:00001b28       ??_C@_0BI@LNEGIFLN@operation?5not?5supported?$AA@ 0000000180060b28     libcpmt:syserror.obj
 0002:00001b40       ??_C@_0BG@OEMDKMEE@operation?5would?5block?$AA@ 0000000180060b40     libcpmt:syserror.obj
 0002:00001b58       ??_C@_0L@BLPOFLNJ@owner?5dead?$AA@ 0000000180060b58     libcpmt:syserror.obj
 0002:00001b68       ??_C@_0BC@CIJDGCDI@permission?5denied?$AA@ 0000000180060b68     libcpmt:syserror.obj
 0002:00001b80       ??_C@_0P@FNPOCJBE@protocol?5error?$AA@ 0000000180060b80     libcpmt:syserror.obj
 0002:00001b90       ??_C@_0BH@JPPPLHJB@protocol?5not?5supported?$AA@ 0000000180060b90     libcpmt:syserror.obj
 0002:00001ba8       ??_C@_0BG@EICBIHDP@read?5only?5file?5system?$AA@ 0000000180060ba8     libcpmt:syserror.obj
 0002:00001bc0       ??_C@_0BE@GOIPJJHG@result?5out?5of?5range?$AA@ 0000000180060bc0     libcpmt:syserror.obj
 0002:00001bd8       ??_C@_0BG@MPLKFPAE@state?5not?5recoverable?$AA@ 0000000180060bd8     libcpmt:syserror.obj
 0002:00001bf0       ??_C@_0P@DIIFGFCG@stream?5timeout?$AA@ 0000000180060bf0     libcpmt:syserror.obj
 0002:00001c00       ??_C@_0P@IPFDMIFL@text?5file?5busy?$AA@ 0000000180060c00     libcpmt:syserror.obj
 0002:00001c10       ??_C@_09KJPPMAOI@timed?5out?$AA@ 0000000180060c10     libcpmt:syserror.obj
 0002:00001c20       ??_C@_0BO@HACHBEKI@too?5many?5files?5open?5in?5system?$AA@ 0000000180060c20     libcpmt:syserror.obj
 0002:00001c40       ??_C@_0BE@GHAFMPAH@too?5many?5files?5open?$AA@ 0000000180060c40     libcpmt:syserror.obj
 0002:00001c58       ??_C@_0P@HCOMKFCC@too?5many?5links?$AA@ 0000000180060c58     libcpmt:syserror.obj
 0002:00001c68       ??_C@_0BO@EFGOJEF@too?5many?5symbolic?5link?5levels?$AA@ 0000000180060c68     libcpmt:syserror.obj
 0002:00001c88       ??_C@_0BA@KGKGOOJA@value?5too?5large?$AA@ 0000000180060c88     libcpmt:syserror.obj
 0002:00001c98       ??_C@_0BE@MIEJDDNH@wrong?5protocol?5type?$AA@ 0000000180060c98     libcpmt:syserror.obj
 0002:00001cb0       ??_C@_0O@BFJCFAAK@unknown?5error?$AA@ 0000000180060cb0     libcpmt:syserror.obj
 0002:00001cc0       ??_C@_1BK@MGMFAEKH@?$AAk?$AAe?$AAr?$AAn?$AAe?$AAl?$AA3?$AA2?$AA?4?$AAd?$AAl?$AAl?$AA?$AA@ 0000000180060cc0     libcpmt:winapisupp.obj
 0002:00001ce0       ??_C@_08KNHFBNJ@FlsAlloc?$AA@ 0000000180060ce0     libcpmt:winapisupp.obj
 0002:00001cf0       ??_C@_07PEJMOBNF@FlsFree?$AA@ 0000000180060cf0     libcpmt:winapisupp.obj
 0002:00001cf8       ??_C@_0M@GDNOONDI@FlsGetValue?$AA@ 0000000180060cf8     libcpmt:winapisupp.obj
 0002:00001d08       ??_C@_0M@JCPCPOEF@FlsSetValue?$AA@ 0000000180060d08     libcpmt:winapisupp.obj
 0002:00001d18       ??_C@_0BM@HCFOFFN@InitializeCriticalSectionEx?$AA@ 0000000180060d18     libcpmt:winapisupp.obj
 0002:00001d38       ??_C@_0BE@GPLMMCMH@InitOnceExecuteOnce?$AA@ 0000000180060d38     libcpmt:winapisupp.obj
 0002:00001d50       ??_C@_0P@DLHPPCNH@CreateEventExW?$AA@ 0000000180060d50     libcpmt:winapisupp.obj
 0002:00001d60       ??_C@_0BB@MEFPJLHN@CreateSemaphoreW?$AA@ 0000000180060d60     libcpmt:winapisupp.obj
 0002:00001d78       ??_C@_0BD@KIEEOEEH@CreateSemaphoreExW?$AA@ 0000000180060d78     libcpmt:winapisupp.obj
 0002:00001d90       ??_C@_0BG@OGFAJCKC@CreateThreadpoolTimer?$AA@ 0000000180060d90     libcpmt:winapisupp.obj
 0002:00001da8       ??_C@_0BD@LPLEMMDI@SetThreadpoolTimer?$AA@ 0000000180060da8     libcpmt:winapisupp.obj
 0002:00001dc0       ??_C@_0CA@FMNJENH@WaitForThreadpoolTimerCallbacks?$AA@ 0000000180060dc0     libcpmt:winapisupp.obj
 0002:00001de0       ??_C@_0BF@DCFCCNOC@CloseThreadpoolTimer?$AA@ 0000000180060de0     libcpmt:winapisupp.obj
 0002:00001df8       ??_C@_0BF@FLABGKKM@CreateThreadpoolWait?$AA@ 0000000180060df8     libcpmt:winapisupp.obj
 0002:00001e10       ??_C@_0BC@MGCOHNA@SetThreadpoolWait?$AA@ 0000000180060e10     libcpmt:winapisupp.obj
 0002:00001e28       ??_C@_0BE@OCIOMIMP@CloseThreadpoolWait?$AA@ 0000000180060e28     libcpmt:winapisupp.obj
 0002:00001e40       ??_C@_0BJ@LKGHFHBO@FlushProcessWriteBuffers?$AA@ 0000000180060e40     libcpmt:winapisupp.obj
 0002:00001e60       ??_C@_0BP@KALKKPMO@FreeLibraryWhenCallbackReturns?$AA@ 0000000180060e60     libcpmt:winapisupp.obj
 0002:00001e80       ??_C@_0BK@DFNBACLA@GetCurrentProcessorNumber?$AA@ 0000000180060e80     libcpmt:winapisupp.obj
 0002:00001ea0       ??_C@_0BE@FKKLLFLM@CreateSymbolicLinkW?$AA@ 0000000180060ea0     libcpmt:winapisupp.obj
 0002:00001eb8       ??_C@_0BE@JOGNEJCI@GetCurrentPackageId?$AA@ 0000000180060eb8     libcpmt:winapisupp.obj
 0002:00001ed0       ??_C@_0P@CDHHOHKP@GetTickCount64?$AA@ 0000000180060ed0     libcpmt:winapisupp.obj
 0002:00001ee0       ??_C@_0BN@NEEHBBPO@GetFileInformationByHandleEx?$AA@ 0000000180060ee0     libcpmt:winapisupp.obj
 0002:00001f00       ??_C@_0BL@KBBHGKCM@SetFileInformationByHandle?$AA@ 0000000180060f00     libcpmt:winapisupp.obj
 0002:00001f20       ??_C@_0BP@FPNJPEJC@GetSystemTimePreciseAsFileTime?$AA@ 0000000180060f20     libcpmt:winapisupp.obj
 0002:00001f40       ??_C@_0BM@HLJJNPAH@InitializeConditionVariable?$AA@ 0000000180060f40     libcpmt:winapisupp.obj
 0002:00001f60       ??_C@_0BG@BFNILBLN@WakeConditionVariable?$AA@ 0000000180060f60     libcpmt:winapisupp.obj
 0002:00001f78       ??_C@_0BJ@PGPPEPCC@WakeAllConditionVariable?$AA@ 0000000180060f78     libcpmt:winapisupp.obj
 0002:00001f98       ??_C@_0BJ@JEBJOJFJ@SleepConditionVariableCS?$AA@ 0000000180060f98     libcpmt:winapisupp.obj
 0002:00001fb8       ??_C@_0BC@MMLHEBPB@InitializeSRWLock?$AA@ 0000000180060fb8     libcpmt:winapisupp.obj
 0002:00001fd0       ??_C@_0BI@OMNLIJDB@AcquireSRWLockExclusive?$AA@ 0000000180060fd0     libcpmt:winapisupp.obj
 0002:00001fe8       ??_C@_0BL@OGHFEMNA@TryAcquireSRWLockExclusive?$AA@ 0000000180060fe8     libcpmt:winapisupp.obj
 0002:00002008       ??_C@_0BI@HMIEPCNJ@ReleaseSRWLockExclusive?$AA@ 0000000180061008     libcpmt:winapisupp.obj
 0002:00002020       ??_C@_0BK@LGACAGIC@SleepConditionVariableSRW?$AA@ 0000000180061020     libcpmt:winapisupp.obj
 0002:00002040       ??_C@_0BF@GGPHFPJA@CreateThreadpoolWork?$AA@ 0000000180061040     libcpmt:winapisupp.obj
 0002:00002058       ??_C@_0BF@NHDAIMMO@SubmitThreadpoolWork?$AA@ 0000000180061058     libcpmt:winapisupp.obj
 0002:00002070       ??_C@_0BE@NPHIPNPD@CloseThreadpoolWork?$AA@ 0000000180061070     libcpmt:winapisupp.obj
 0002:00002088       ??_C@_0BA@IHGNDAEB@CompareStringEx?$AA@ 0000000180061088     libcpmt:winapisupp.obj
 0002:00002098       ??_C@_0BA@ONOKGCMP@GetLocaleInfoEx?$AA@ 0000000180061098     libcpmt:winapisupp.obj
 0002:000020a8       ??_C@_0O@KKBNKAPF@LCMapStringEx?$AA@ 00000001800610a8     libcpmt:winapisupp.obj
 0002:000020b8       ?_BADOFF@std@@3_JB         00000001800610b8     libcpmt:ios.obj
 0002:000020f0       ??_7?$num_put@DV?$ostreambuf_iterator@DU?$char_traits@D@std@@@std@@@std@@6B@ 00000001800610f0     libcpmt:locale.obj
 0002:00002150       ??_7?$numpunct@D@std@@6B@  0000000180061150     libcpmt:locale.obj
 0002:00002190       __real@4024000000000000    0000000180061190     libcpmt:locale.obj
 0002:00002198       ??_C@_11LOCGONAA@?$AA?$AA@ 0000000180061198     libcpmt:wlocale.obj
 0002:0000219c       ??_C@_01JOAMLHOP@?9?$AA@   000000018006119c     libcpmt:wlocale.obj
 0002:000021a0       __xmm@80000000000000008000000000000000 00000001800611a0     libcpmt:wlocale.obj
 0002:00002250       ??_C@_1M@PNMLOJDF@?$AAe?$AAt?$AA?9?$AAe?$AAe?$AA?$AA@ 0000000180061250     libcpmt:winapinls.obj
 0002:00002260       ??_C@_1M@GHHLIKEI@?$AAe?$AAu?$AA?9?$AAe?$AAs?$AA?$AA@ 0000000180061260     libcpmt:winapinls.obj
 0002:00002270       ??_C@_1M@PBNONODE@?$AAf?$AAa?$AA?9?$AAi?$AAr?$AA?$AA@ 0000000180061270     libcpmt:winapinls.obj
 0002:00002280       ??_C@_1M@JEEHPMIL@?$AAf?$AAi?$AA?9?$AAf?$AAi?$AA?$AA@ 0000000180061280     libcpmt:winapinls.obj
 0002:00002290       ??_C@_1M@LMDCNDBA@?$AAf?$AAo?$AA?9?$AAf?$AAo?$AA?$AA@ 0000000180061290     libcpmt:winapinls.obj
 0002:000022a0       ??_C@_1M@JKEOHLDK@?$AAf?$AAr?$AA?9?$AAb?$AAe?$AA?$AA@ 00000001800612a0     libcpmt:winapinls.obj
 0002:000022b0       ??_C@_1M@NOHADPMI@?$AAf?$AAr?$AA?9?$AAc?$AAa?$AA?$AA@ 00000001800612b0     libcpmt:winapinls.obj
 0002:000022c0       ??_C@_1M@KDHIHAEC@?$AAf?$AAr?$AA?9?$AAc?$AAh?$AA?$AA@ 00000001800612c0     libcpmt:winapinls.obj
 0002:000022d0       ??_C@_1M@MMBBFGAK@?$AAf?$AAr?$AA?9?$AAf?$AAr?$AA?$AA@ 00000001800612d0     libcpmt:winapinls.obj
 0002:000022e0       ??_C@_1M@PAFNENNF@?$AAf?$AAr?$AA?9?$AAl?$AAu?$AA?$AA@ 00000001800612e0     libcpmt:winapinls.obj
 0002:000022f0       ??_C@_1M@EOHDJGDD@?$AAf?$AAr?$AA?9?$AAm?$AAc?$AA?$AA@ 00000001800612f0     libcpmt:winapinls.obj
 0002:00002300       ??_C@_1M@FAPLLOPF@?$AAg?$AAl?$AA?9?$AAe?$AAs?$AA?$AA@ 0000000180061300     libcpmt:winapinls.obj
 0002:00002310       ??_C@_1M@FOPBFLOO@?$AAg?$AAu?$AA?9?$AAi?$AAn?$AA?$AA@ 0000000180061310     libcpmt:winapinls.obj
 0002:00002320       ??_C@_1M@KBMCINPM@?$AAh?$AAe?$AA?9?$AAi?$AAl?$AA?$AA@ 0000000180061320     libcpmt:winapinls.obj
 0002:00002330       ??_C@_1M@BBPHKFPJ@?$AAh?$AAi?$AA?9?$AAi?$AAn?$AA?$AA@ 0000000180061330     libcpmt:winapinls.obj
 0002:00002340       ??_C@_1M@PMBNDPHD@?$AAh?$AAr?$AA?9?$AAb?$AAa?$AA?$AA@ 0000000180061340     libcpmt:winapinls.obj
 0002:00002350       ??_C@_1M@BPCKOEGE@?$AAh?$AAr?$AA?9?$AAh?$AAr?$AA?$AA@ 0000000180061350     libcpmt:winapinls.obj
 0002:00002360       ??_C@_1M@GACBMHKE@?$AAh?$AAu?$AA?9?$AAh?$AAu?$AA?$AA@ 0000000180061360     libcpmt:winapinls.obj
 0002:00002370       ??_C@_1M@MILPAJJC@?$AAh?$AAy?$AA?9?$AAa?$AAm?$AA?$AA@ 0000000180061370     libcpmt:winapinls.obj
 0002:00002380       ??_C@_1M@BABBICEC@?$AAi?$AAd?$AA?9?$AAi?$AAd?$AA?$AA@ 0000000180061380     libcpmt:winapinls.obj
 0002:00002390       ??_C@_1M@BIKNHHPF@?$AAi?$AAs?$AA?9?$AAi?$AAs?$AA?$AA@ 0000000180061390     libcpmt:winapinls.obj
 0002:000023a0       ??_C@_1M@NMPCJPHE@?$AAi?$AAt?$AA?9?$AAc?$AAh?$AA?$AA@ 00000001800613a0     libcpmt:winapinls.obj
 0002:000023b0       ??_C@_1M@GHKGFEDF@?$AAi?$AAt?$AA?9?$AAi?$AAt?$AA?$AA@ 00000001800613b0     libcpmt:winapinls.obj
 0002:000023c0       ??_C@_1M@NIEJCJJA@?$AAj?$AAa?$AA?9?$AAj?$AAp?$AA?$AA@ 00000001800613c0     libcpmt:winapinls.obj
 0002:000023d0       ??_C@_1M@JILFNBIM@?$AAk?$AAa?$AA?9?$AAg?$AAe?$AA?$AA@ 00000001800613d0     libcpmt:winapinls.obj
 0002:000023e0       ??_C@_1M@PACPMGPH@?$AAk?$AAk?$AA?9?$AAk?$AAz?$AA?$AA@ 00000001800613e0     libcpmt:winapinls.obj
 0002:000023f0       ??_C@_1M@IELFGMHA@?$AAk?$AAn?$AA?9?$AAi?$AAn?$AA?$AA@ 00000001800613f0     libcpmt:winapinls.obj
 0002:00002400       ??_C@_1M@DMHAEOGC@?$AAk?$AAo?$AA?9?$AAk?$AAr?$AA?$AA@ 0000000180061400     libcpmt:winapinls.obj
 0002:00002410       ??_C@_1O@IBBJHCH@?$AAk?$AAo?$AAk?$AA?9?$AAi?$AAn?$AA?$AA@ 0000000180061410     libcpmt:winapinls.obj
 0002:00002420       ??_C@_1M@HBAHBIGA@?$AAk?$AAy?$AA?9?$AAk?$AAg?$AA?$AA@ 0000000180061420     libcpmt:winapinls.obj
 0002:00002430       ??_C@_1M@KPMILCJG@?$AAl?$AAt?$AA?9?$AAl?$AAt?$AA?$AA@ 0000000180061430     libcpmt:winapinls.obj
 0002:00002440       ??_C@_1M@BDEKKCA@?$AAl?$AAv?$AA?9?$AAl?$AAv?$AA?$AA@ 0000000180061440     libcpmt:winapinls.obj
 0002:00002450       ??_C@_1M@ELCKCCJJ@?$AAm?$AAi?$AA?9?$AAn?$AAz?$AA?$AA@ 0000000180061450     libcpmt:winapinls.obj
 0002:00002460       ??_C@_1M@CBOOLAPA@?$AAm?$AAk?$AA?9?$AAm?$AAk?$AA?$AA@ 0000000180061460     libcpmt:winapinls.obj
 0002:00002470       ??_C@_1M@GPHNBJKN@?$AAm?$AAl?$AA?9?$AAi?$AAn?$AA?$AA@ 0000000180061470     libcpmt:winapinls.obj
 0002:00002480       ??_C@_1M@PABJILIG@?$AAm?$AAn?$AA?9?$AAm?$AAn?$AA?$AA@ 0000000180061480     libcpmt:winapinls.obj
 0002:00002490       ??_C@_1M@FGBKKIPG@?$AAm?$AAr?$AA?9?$AAi?$AAn?$AA?$AA@ 0000000180061490     libcpmt:winapinls.obj
 0002:000024a0       ??_C@_1M@NDBPDDAL@?$AAm?$AAs?$AA?9?$AAb?$AAn?$AA?$AA@ 00000001800614a0     libcpmt:winapinls.obj
 0002:000024b0       ??_C@_1M@OPIHOOPI@?$AAm?$AAs?$AA?9?$AAm?$AAy?$AA?$AA@ 00000001800614b0     libcpmt:winapinls.obj
 0002:000024c0       ??_C@_1M@PPDBCNFM@?$AAm?$AAt?$AA?9?$AAm?$AAt?$AA?$AA@ 00000001800614c0     libcpmt:winapinls.obj
 0002:000024d0       ??_C@_1M@KDJDKMDD@?$AAn?$AAb?$AA?9?$AAn?$AAo?$AA?$AA@ 00000001800614d0     libcpmt:winapinls.obj
 0002:000024e0       ??_C@_1M@KFCFLMJP@?$AAn?$AAl?$AA?9?$AAb?$AAe?$AA?$AA@ 00000001800614e0     libcpmt:winapinls.obj
 0002:000024f0       ??_C@_1M@KPOPDDGO@?$AAn?$AAl?$AA?9?$AAn?$AAl?$AA?$AA@ 00000001800614f0     libcpmt:winapinls.obj
 0002:00002500       ??_C@_1M@LJKPEMLN@?$AAn?$AAn?$AA?9?$AAn?$AAo?$AA?$AA@ 0000000180061500     libcpmt:winapinls.obj
 0002:00002510       ??_C@_1M@BDGHHBFL@?$AAn?$AAs?$AA?9?$AAz?$AAa?$AA?$AA@ 0000000180061510     libcpmt:winapinls.obj
 0002:00002520       ??_C@_1M@IDEHOAP@?$AAp?$AAa?$AA?9?$AAi?$AAn?$AA?$AA@ 0000000180061520     libcpmt:winapinls.obj
 0002:00002530       ??_C@_1M@HDBKGOGH@?$AAp?$AAl?$AA?9?$AAp?$AAl?$AA?$AA@ 0000000180061530     libcpmt:winapinls.obj
 0002:00002540       ??_C@_1M@LJLLCMEH@?$AAp?$AAt?$AA?9?$AAb?$AAr?$AA?$AA@ 0000000180061540     libcpmt:winapinls.obj
 0002:00002550       ??_C@_1M@NCMONAAL@?$AAp?$AAt?$AA?9?$AAp?$AAt?$AA?$AA@ 0000000180061550     libcpmt:winapinls.obj
 0002:00002560       ??_C@_1O@EAKMAJDN@?$AAq?$AAu?$AAz?$AA?9?$AAb?$AAo?$AA?$AA@ 0000000180061560     libcpmt:winapinls.obj
 0002:00002570       ??_C@_1O@BHHPIGDN@?$AAq?$AAu?$AAz?$AA?9?$AAe?$AAc?$AA?$AA@ 0000000180061570     libcpmt:winapinls.obj
 0002:00002580       ??_C@_1O@GBAPEKMJ@?$AAq?$AAu?$AAz?$AA?9?$AAp?$AAe?$AA?$AA@ 0000000180061580     libcpmt:winapinls.obj
 0002:00002590       ??_C@_1M@CLGLEFBO@?$AAr?$AAo?$AA?9?$AAr?$AAo?$AA?$AA@ 0000000180061590     libcpmt:winapinls.obj
 0002:000025a0       ??_C@_1M@CEEDODME@?$AAr?$AAu?$AA?9?$AAr?$AAu?$AA?$AA@ 00000001800615a0     libcpmt:winapinls.obj
 0002:000025b0       ??_C@_1M@HPKKKMPP@?$AAs?$AAa?$AA?9?$AAi?$AAn?$AA?$AA@ 00000001800615b0     libcpmt:winapinls.obj
 0002:000025c0       ??_C@_1M@BKMAIGOJ@?$AAs?$AAe?$AA?9?$AAf?$AAi?$AA?$AA@ 00000001800615c0     libcpmt:winapinls.obj
 0002:000025d0       ??_C@_1M@NDPIFLFI@?$AAs?$AAe?$AA?9?$AAn?$AAo?$AA?$AA@ 00000001800615d0     libcpmt:winapinls.obj
 0002:000025e0       ??_C@_1M@DANKKHJ@?$AAs?$AAe?$AA?9?$AAs?$AAe?$AA?$AA@ 00000001800615e0     libcpmt:winapinls.obj
 0002:000025f0       ??_C@_1M@PNBLONPJ@?$AAs?$AAk?$AA?9?$AAs?$AAk?$AA?$AA@ 00000001800615f0     libcpmt:winapinls.obj
 0002:00002600       ??_C@_1M@LFMODOAL@?$AAs?$AAl?$AA?9?$AAs?$AAi?$AA?$AA@ 0000000180061600     libcpmt:winapinls.obj
 0002:00002610       ??_C@_1O@DFKOMPG@?$AAs?$AAm?$AAa?$AA?9?$AAn?$AAo?$AA?$AA@ 0000000180061610     libcpmt:winapinls.obj
 0002:00002620       ??_C@_1O@NDKPBNNH@?$AAs?$AAm?$AAa?$AA?9?$AAs?$AAe?$AA?$AA@ 0000000180061620     libcpmt:winapinls.obj
 0002:00002630       ??_C@_1O@PLLKBHAB@?$AAs?$AAm?$AAj?$AA?9?$AAn?$AAo?$AA?$AA@ 0000000180061630     libcpmt:winapinls.obj
 0002:00002640       ??_C@_1O@CLEPOGCA@?$AAs?$AAm?$AAj?$AA?9?$AAs?$AAe?$AA?$AA@ 0000000180061640     libcpmt:winapinls.obj
 0002:00002650       ??_C@_1O@DLGJGKMK@?$AAs?$AAm?$AAn?$AA?9?$AAf?$AAi?$AA?$AA@ 0000000180061650     libcpmt:winapinls.obj
 0002:00002660       ??_C@_1O@OJDJGAJC@?$AAs?$AAm?$AAs?$AA?9?$AAf?$AAi?$AA?$AA@ 0000000180061660     libcpmt:winapinls.obj
 0002:00002670       ??_C@_1M@BOFOGHPB@?$AAs?$AAq?$AA?9?$AAa?$AAl?$AA?$AA@ 0000000180061670     libcpmt:winapinls.obj
 0002:00002680       ??_C@_1BG@LJBBIPGB@?$AAs?$AAr?$AA?9?$AAb?$AAa?$AA?9?$AAc?$AAy?$AAr?$AAl?$AA?$AA@ 0000000180061680     libcpmt:winapinls.obj
 0002:00002698       ??_C@_1BG@JLBENFOE@?$AAs?$AAr?$AA?9?$AAb?$AAa?$AA?9?$AAl?$AAa?$AAt?$AAn?$AA?$AA@ 0000000180061698     libcpmt:winapinls.obj
 0002:000026b0       ??_C@_1BG@KODPNHE@?$AAs?$AAr?$AA?9?$AAs?$AAp?$AA?9?$AAc?$AAy?$AAr?$AAl?$AA?$AA@ 00000001800616b0     libcpmt:winapinls.obj
 0002:000026c8       ??_C@_1BG@CIOGKHPB@?$AAs?$AAr?$AA?9?$AAs?$AAp?$AA?9?$AAl?$AAa?$AAt?$AAn?$AA?$AA@ 00000001800616c8     libcpmt:winapinls.obj
 0002:000026e0       ??_C@_1M@NGFJLMAC@?$AAs?$AAv?$AA?9?$AAf?$AAi?$AA?$AA@ 00000001800616e0     libcpmt:winapinls.obj
 0002:000026f0       ??_C@_1M@MPJEJAJC@?$AAs?$AAv?$AA?9?$AAs?$AAe?$AA?$AA@ 00000001800616f0     libcpmt:winapinls.obj
 0002:00002700       ??_C@_1M@MPNDHLFK@?$AAs?$AAw?$AA?9?$AAk?$AAe?$AA?$AA@ 0000000180061700     libcpmt:winapinls.obj
 0002:00002710       ??_C@_1O@KOHBJJI@?$AAs?$AAy?$AAr?$AA?9?$AAs?$AAy?$AA?$AA@ 0000000180061710     libcpmt:winapinls.obj
 0002:00002720       ??_C@_1M@LDCEFHA@?$AAt?$AAa?$AA?9?$AAi?$AAn?$AA?$AA@ 0000000180061720     libcpmt:winapinls.obj
 0002:00002730       ??_C@_1M@CNJOFAK@?$AAt?$AAe?$AA?9?$AAi?$AAn?$AA?$AA@ 0000000180061730     libcpmt:winapinls.obj
 0002:00002740       ??_C@_1M@GNAECACD@?$AAt?$AAh?$AA?9?$AAt?$AAh?$AA?$AA@ 0000000180061740     libcpmt:winapinls.obj
 0002:00002750       ??_C@_1M@CHBIHOJO@?$AAt?$AAn?$AA?9?$AAz?$AAa?$AA?$AA@ 0000000180061750     libcpmt:winapinls.obj
 0002:00002760       ??_C@_1M@GCCMIGPJ@?$AAt?$AAr?$AA?9?$AAt?$AAr?$AA?$AA@ 0000000180061760     libcpmt:winapinls.obj
 0002:00002770       ??_C@_1M@CELMCNBK@?$AAt?$AAt?$AA?9?$AAr?$AAu?$AA?$AA@ 0000000180061770     libcpmt:winapinls.obj
 0002:00002780       ??_C@_1M@KLMCELGA@?$AAu?$AAk?$AA?9?$AAu?$AAa?$AA?$AA@ 0000000180061780     libcpmt:winapinls.obj
 0002:00002790       ??_C@_1M@EPAJJAJF@?$AAu?$AAr?$AA?9?$AAp?$AAk?$AA?$AA@ 0000000180061790     libcpmt:winapinls.obj
 0002:000027a0       ??_C@_1BG@GEGPMCDJ@?$AAu?$AAz?$AA?9?$AAu?$AAz?$AA?9?$AAc?$AAy?$AAr?$AAl?$AA?$AA@ 00000001800617a0     libcpmt:winapinls.obj
 0002:000027b8       ??_C@_1BG@EGGKJILM@?$AAu?$AAz?$AA?9?$AAu?$AAz?$AA?9?$AAl?$AAa?$AAt?$AAn?$AA?$AA@ 00000001800617b8     libcpmt:winapinls.obj
 0002:000027d0       ??_C@_1M@GFOCLFF@?$AAv?$AAi?$AA?9?$AAv?$AAn?$AA?$AA@ 00000001800617d0     libcpmt:winapinls.obj
 0002:000027e0       ??_C@_1M@CPAMEDFI@?$AAx?$AAh?$AA?9?$AAz?$AAa?$AA?$AA@ 00000001800617e0     libcpmt:winapinls.obj
 0002:000027f0       ??_C@_1O@EBKIFIGN@?$AAz?$AAh?$AA?9?$AAc?$AAh?$AAs?$AA?$AA@ 00000001800617f0     libcpmt:winapinls.obj
 0002:00002800       ??_C@_1O@NMHPGANE@?$AAz?$AAh?$AA?9?$AAc?$AAh?$AAt?$AA?$AA@ 0000000180061800     libcpmt:winapinls.obj
 0002:00002810       ??_C@_1M@LPINJOMC@?$AAz?$AAh?$AA?9?$AAc?$AAn?$AA?$AA@ 0000000180061810     libcpmt:winapinls.obj
 0002:00002820       ??_C@_1M@OCJEJODD@?$AAz?$AAh?$AA?9?$AAh?$AAk?$AA?$AA@ 0000000180061820     libcpmt:winapinls.obj
 0002:00002830       ??_C@_1M@DNDLJINH@?$AAz?$AAh?$AA?9?$AAm?$AAo?$AA?$AA@ 0000000180061830     libcpmt:winapinls.obj
 0002:00002840       ??_C@_1M@MBFDNDND@?$AAz?$AAh?$AA?9?$AAs?$AAg?$AA?$AA@ 0000000180061840     libcpmt:winapinls.obj
 0002:00002850       ??_C@_1M@IMEPLEPE@?$AAz?$AAh?$AA?9?$AAt?$AAw?$AA?$AA@ 0000000180061850     libcpmt:winapinls.obj
 0002:00002860       ??_C@_1M@BBGHNHJP@?$AAz?$AAu?$AA?9?$AAz?$AAa?$AA?$AA@ 0000000180061860     libcpmt:winapinls.obj
 0002:000044f0       ??_C@_15EMKDOKLE@?$AAa?$AAr?$AA?$AA@ 00000001800634f0     libcpmt:winapinls.obj
 0002:000044f8       ??_C@_15KNPADPLH@?$AAb?$AAg?$AA?$AA@ 00000001800634f8     libcpmt:winapinls.obj
 0002:00004500       ??_C@_15EDMHLDMO@?$AAc?$AAa?$AA?$AA@ 0000000180063500     libcpmt:winapinls.obj
 0002:00004508       ??_C@_1O@BPEAJADD@?$AAz?$AAh?$AA?9?$AAC?$AAH?$AAS?$AA?$AA@ 0000000180063508     libcpmt:winapinls.obj
 0002:00004518       ??_C@_15LJNHCMNK@?$AAc?$AAs?$AA?$AA@ 0000000180063518     libcpmt:winapinls.obj
 0002:00004520       ??_C@_15FOMCIDHG@?$AAd?$AAa?$AA?$AA@ 0000000180063520     libcpmt:winapinls.obj
 0002:00004528       ??_C@_15NBKABECB@?$AAd?$AAe?$AA?$AA@ 0000000180063528     libcpmt:winapinls.obj
 0002:00004530       ??_C@_15GHPEIIAO@?$AAe?$AAl?$AA?$AA@ 0000000180063530     libcpmt:winapinls.obj
 0002:00004538       ??_C@_15MNPNEAIF@?$AAe?$AAn?$AA?$AA@ 0000000180063538     libcpmt:winapinls.obj
 0002:00004540       ??_C@_15GPIOMPMH@?$AAe?$AAs?$AA?$AA@ 0000000180063540     libcpmt:winapinls.obj
 0002:00004548       ??_C@_15NGLOAKJC@?$AAf?$AAi?$AA?$AA@ 0000000180063548     libcpmt:winapinls.obj
 0002:00004550       ??_C@_15FBKGNKAM@?$AAf?$AAr?$AA?$AA@ 0000000180063550     libcpmt:winapinls.obj
 0002:00004558       ??_C@_15KGGCNEFK@?$AAh?$AAe?$AA?$AA@ 0000000180063558     libcpmt:winapinls.obj
 0002:00004560       ??_C@_15PGHLIDMF@?$AAh?$AAu?$AA?$AA@ 0000000180063560     libcpmt:winapinls.obj
 0002:00004568       ??_C@_15BIEMAPLM@?$AAi?$AAs?$AA?$AA@ 0000000180063568     libcpmt:winapinls.obj
 0002:00004570       ??_C@_15IFJLDHAF@?$AAi?$AAt?$AA?$AA@ 0000000180063570     libcpmt:winapinls.obj
 0002:00004578       ??_C@_15GEMIOCAG@?$AAj?$AAa?$AA?$AA@ 0000000180063578     libcpmt:winapinls.obj
 0002:00004580       ??_C@_15EPELEGJA@?$AAk?$AAo?$AA?$AA@ 0000000180063580     libcpmt:winapinls.obj
 0002:00004588       ??_C@_15NDDHIMN@?$AAn?$AAl?$AA?$AA@ 0000000180063588     libcpmt:winapinls.obj
 0002:00004590       ??_C@_15BPIGNHCD@?$AAn?$AAo?$AA?$AA@ 0000000180063590     libcpmt:winapinls.obj
 0002:00004598       ??_C@_15DEOPBLCG@?$AAp?$AAl?$AA?$AA@ 0000000180063598     libcpmt:winapinls.obj
 0002:000045a0       ??_C@_15KBECGEFG@?$AAp?$AAt?$AA?$AA@ 00000001800635a0     libcpmt:winapinls.obj
 0002:000045a8       ??_C@_15GLJCBFMD@?$AAr?$AAo?$AA?$AA@ 00000001800635a8     libcpmt:winapinls.obj
 0002:000045b0       ??_C@_15FEDGKCDI@?$AAr?$AAu?$AA?$AA@ 00000001800635b0     libcpmt:winapinls.obj
 0002:000045b8       ??_C@_15GLKMLLHM@?$AAh?$AAr?$AA?$AA@ 00000001800635b8     libcpmt:winapinls.obj
 0002:000045c0       ??_C@_15CPKMFBDB@?$AAs?$AAk?$AA?$AA@ 00000001800635c0     libcpmt:winapinls.obj
 0002:000045c8       ??_C@_15BAAIOGMK@?$AAs?$AAq?$AA?$AA@ 00000001800635c8     libcpmt:winapinls.obj
 0002:000045d0       ??_C@_15INNPNOHD@?$AAs?$AAv?$AA?$AA@ 00000001800635d0     libcpmt:winapinls.obj
 0002:000045d8       ??_C@_15CABMMOGH@?$AAt?$AAh?$AA?$AA@ 00000001800635d8     libcpmt:winapinls.obj
 0002:000045e0       ??_C@_15BPLIHJJM@?$AAt?$AAr?$AA?$AA@ 00000001800635e0     libcpmt:winapinls.obj
 0002:000045e8       ??_C@_15NEOEKKDJ@?$AAu?$AAr?$AA?$AA@ 00000001800635e8     libcpmt:winapinls.obj
 0002:000045f0       ??_C@_15NFICGAJK@?$AAi?$AAd?$AA?$AA@ 00000001800635f0     libcpmt:winapinls.obj
 0002:000045f8       ??_C@_15PJPFLCCM@?$AAu?$AAk?$AA?$AA@ 00000001800635f8     libcpmt:winapinls.obj
 0002:00004600       ??_C@_15HPJPHDM@?$AAb?$AAe?$AA?$AA@ 0000000180063600     libcpmt:winapinls.obj
 0002:00004608       ??_C@_15LCHLGJII@?$AAs?$AAl?$AA?$AA@ 0000000180063608     libcpmt:winapinls.obj
 0002:00004610       ??_C@_15PCFJPHHO@?$AAe?$AAt?$AA?$AA@ 0000000180063610     libcpmt:winapinls.obj
 0002:00004618       ??_C@_15HPFPGODN@?$AAl?$AAv?$AA?$AA@ 0000000180063618     libcpmt:winapinls.obj
 0002:00004620       ??_C@_15NFFGKGLG@?$AAl?$AAt?$AA?$AA@ 0000000180063620     libcpmt:winapinls.obj
 0002:00004628       ??_C@_15BDAKCCHN@?$AAf?$AAa?$AA?$AA@ 0000000180063628     libcpmt:winapinls.obj
 0002:00004630       ??_C@_15NFGIAIAJ@?$AAv?$AAi?$AA?$AA@ 0000000180063630     libcpmt:winapinls.obj
 0002:00004638       ??_C@_15LMKNDMHN@?$AAh?$AAy?$AA?$AA@ 0000000180063638     libcpmt:winapinls.obj
 0002:00004640       ??_C@_15IJBHMCFL@?$AAa?$AAz?$AA?$AA@ 0000000180063640     libcpmt:winapinls.obj
 0002:00004648       ??_C@_15EKOFJABL@?$AAe?$AAu?$AA?$AA@ 0000000180063648     libcpmt:winapinls.obj
 0002:00004650       ??_C@_15BGHADCNK@?$AAm?$AAk?$AA?$AA@ 0000000180063650     libcpmt:winapinls.obj
 0002:00004658       ??_C@_15JDNICKHM@?$AAa?$AAf?$AA?$AA@ 0000000180063658     libcpmt:winapinls.obj
 0002:00004660       ??_C@_15KPJEDBKD@?$AAk?$AAa?$AA?$AA@ 0000000180063660     libcpmt:winapinls.obj
 0002:00004668       ??_C@_15PDNFFFEO@?$AAf?$AAo?$AA?$AA@ 0000000180063668     libcpmt:winapinls.obj
 0002:00004670       ??_C@_15OMLEGLOC@?$AAh?$AAi?$AA?$AA@ 0000000180063670     libcpmt:winapinls.obj
 0002:00004678       ??_C@_15IDNNENKK@?$AAm?$AAs?$AA?$AA@ 0000000180063678     libcpmt:winapinls.obj
 0002:00004680       ??_C@_15MACJNBMH@?$AAk?$AAk?$AA?$AA@ 0000000180063680     libcpmt:winapinls.obj
 0002:00004688       ??_C@_15DKDJEOND@?$AAk?$AAy?$AA?$AA@ 0000000180063688     libcpmt:winapinls.obj
 0002:00004690       ??_C@_15DFGDLJBG@?$AAs?$AAw?$AA?$AA@ 0000000180063690     libcpmt:winapinls.obj
 0002:00004698       ??_C@_15BBFAICNG@?$AAu?$AAz?$AA?$AA@ 0000000180063698     libcpmt:winapinls.obj
 0002:000046a0       ??_C@_15DKNDCGEA@?$AAt?$AAt?$AA?$AA@ 00000001800636a0     libcpmt:winapinls.obj
 0002:000046a8       ??_C@_15MGIFMDPL@?$AAp?$AAa?$AA?$AA@ 00000001800636a8     libcpmt:winapinls.obj
 0002:000046b0       ??_C@_15HCNDBBA@?$AAg?$AAu?$AA?$AA@ 00000001800636b0     libcpmt:winapinls.obj
 0002:000046b8       ??_C@_15FNBEIBON@?$AAt?$AAa?$AA?$AA@ 00000001800636b8     libcpmt:winapinls.obj
 0002:000046c0       ??_C@_15NCHGBGLK@?$AAt?$AAe?$AA?$AA@ 00000001800636c0     libcpmt:winapinls.obj
 0002:000046c8       ??_C@_15PHPHCBPF@?$AAk?$AAn?$AA?$AA@ 00000001800636c8     libcpmt:winapinls.obj
 0002:000046d0       ??_C@_15DLGBCKMP@?$AAm?$AAr?$AA?$AA@ 00000001800636d0     libcpmt:winapinls.obj
 0002:000046d8       ??_C@_15EABBLBFF@?$AAs?$AAa?$AA?$AA@ 00000001800636d8     libcpmt:winapinls.obj
 0002:000046e0       ??_C@_15CBKOMCOI@?$AAm?$AAn?$AA?$AA@ 00000001800636e0     libcpmt:winapinls.obj
 0002:000046e8       ??_C@_15CKDMCJAF@?$AAg?$AAl?$AA?$AA@ 00000001800636e8     libcpmt:winapinls.obj
 0002:000046f0       ??_C@_17CNJFBPG@?$AAk?$AAo?$AAk?$AA?$AA@ 00000001800636f0     libcpmt:winapinls.obj
 0002:000046f8       ??_C@_17FFBJICPL@?$AAs?$AAy?$AAr?$AA?$AA@ 00000001800636f8     libcpmt:winapinls.obj
 0002:00004700       ??_C@_17KPNDCPAF@?$AAd?$AAi?$AAv?$AA?$AA@ 0000000180063700     libcpmt:winapinls.obj
 0002:00004708       ??_C@_1M@OKAHONE@?$AAa?$AAr?$AA?9?$AAS?$AAA?$AA?$AA@ 0000000180063708     libcpmt:winapinls.obj
 0002:00004718       ??_C@_1M@FFFIGIGK@?$AAb?$AAg?$AA?9?$AAB?$AAG?$AA?$AA@ 0000000180063718     libcpmt:winapinls.obj
 0002:00004728       ??_C@_1M@BJNKEDC@?$AAc?$AAa?$AA?9?$AAE?$AAS?$AA?$AA@ 0000000180063728     libcpmt:winapinls.obj
 0002:00004738       ??_C@_1M@CLNBBOPM@?$AAz?$AAh?$AA?9?$AAT?$AAW?$AA?$AA@ 0000000180063738     libcpmt:winapinls.obj
 0002:00004748       ??_C@_1M@IJJHFJHA@?$AAc?$AAs?$AA?9?$AAC?$AAZ?$AA?$AA@ 0000000180063748     libcpmt:winapinls.obj
 0002:00004758       ??_C@_1M@CLPEOBGI@?$AAd?$AAa?$AA?9?$AAD?$AAK?$AA?$AA@ 0000000180063758     libcpmt:winapinls.obj
 0002:00004768       ??_C@_1M@MCMADGCB@?$AAd?$AAe?$AA?9?$AAD?$AAE?$AA?$AA@ 0000000180063768     libcpmt:winapinls.obj
 0002:00004778       ??_C@_1M@OOCKEMAM@?$AAe?$AAl?$AA?9?$AAG?$AAR?$AA?$AA@ 0000000180063778     libcpmt:winapinls.obj
 0002:00004788       ??_C@_1M@BMHNFIME@?$AAe?$AAn?$AA?9?$AAU?$AAS?$AA?$AA@ 0000000180063788     libcpmt:winapinls.obj
 0002:00004798       ??_C@_1M@DDNJFGID@?$AAf?$AAi?$AA?9?$AAF?$AAI?$AA?$AA@ 0000000180063798     libcpmt:winapinls.obj
 0002:000047a8       ??_C@_1M@GLIPPMAC@?$AAf?$AAr?$AA?9?$AAF?$AAR?$AA?$AA@ 00000001800637a8     libcpmt:winapinls.obj
 0002:000047b8       ??_C@_1M@GFMCHPE@?$AAh?$AAe?$AA?9?$AAI?$AAL?$AA?$AA@ 00000001800637b8     libcpmt:winapinls.obj
 0002:000047c8       ??_C@_1M@MHLPGNKM@?$AAh?$AAu?$AA?9?$AAH?$AAU?$AA?$AA@ 00000001800637c8     libcpmt:winapinls.obj
 0002:000047d8       ??_C@_1M@LPDDNNPN@?$AAi?$AAs?$AA?9?$AAI?$AAS?$AA?$AA@ 00000001800637d8     libcpmt:winapinls.obj
 0002:000047e8       ??_C@_1M@MADIPODN@?$AAi?$AAt?$AA?9?$AAI?$AAT?$AA?$AA@ 00000001800637e8     libcpmt:winapinls.obj
 0002:000047f8       ??_C@_1M@HPNHIDJI@?$AAj?$AAa?$AA?9?$AAJ?$AAP?$AA?$AA@ 00000001800637f8     libcpmt:winapinls.obj
 0002:00004808       ??_C@_1M@JLOOOEGK@?$AAk?$AAo?$AA?9?$AAK?$AAR?$AA?$AA@ 0000000180063808     libcpmt:winapinls.obj
 0002:00004818       ??_C@_1M@IHBJJGG@?$AAn?$AAl?$AA?9?$AAN?$AAL?$AA?$AA@ 0000000180063818     libcpmt:winapinls.obj
 0002:00004828       ??_C@_1M@EANAGDL@?$AAn?$AAb?$AA?9?$AAN?$AAO?$AA?$AA@ 0000000180063828     libcpmt:winapinls.obj
 0002:00004838       ??_C@_1M@NEIEMEGP@?$AAp?$AAl?$AA?9?$AAP?$AAL?$AA?$AA@ 0000000180063838     libcpmt:winapinls.obj
 0002:00004848       ??_C@_1M@BOCFIGEP@?$AAp?$AAt?$AA?9?$AAB?$AAR?$AA?$AA@ 0000000180063848     libcpmt:winapinls.obj
 0002:00004858       ??_C@_1M@IMPFOPBG@?$AAr?$AAo?$AA?9?$AAR?$AAO?$AA?$AA@ 0000000180063858     libcpmt:winapinls.obj
 0002:00004868       ??_C@_1M@IDNNEJMM@?$AAr?$AAu?$AA?9?$AAR?$AAU?$AA?$AA@ 0000000180063868     libcpmt:winapinls.obj
 0002:00004878       ??_C@_1M@LILEEOGM@?$AAh?$AAr?$AA?9?$AAH?$AAR?$AA?$AA@ 0000000180063878     libcpmt:winapinls.obj
 0002:00004888       ??_C@_1M@FKIFEHPB@?$AAs?$AAk?$AA?9?$AAS?$AAK?$AA?$AA@ 0000000180063888     libcpmt:winapinls.obj
 0002:00004898       ??_C@_1M@LJMAMNPJ@?$AAs?$AAq?$AA?9?$AAA?$AAL?$AA?$AA@ 0000000180063898     libcpmt:winapinls.obj
 0002:000048a8       ??_C@_1M@GIAKDKJK@?$AAs?$AAv?$AA?9?$AAS?$AAE?$AA?$AA@ 00000001800638a8     libcpmt:winapinls.obj
 0002:000048b8       ??_C@_1M@MKJKIKCL@?$AAt?$AAh?$AA?9?$AAT?$AAH?$AA?$AA@ 00000001800638b8     libcpmt:winapinls.obj
 0002:000048c8       ??_C@_1M@MFLCCMPB@?$AAt?$AAr?$AA?9?$AAT?$AAR?$AA?$AA@ 00000001800638c8     libcpmt:winapinls.obj
 0002:000048d8       ??_C@_1M@OIJHDKJN@?$AAu?$AAr?$AA?9?$AAP?$AAK?$AA?$AA@ 00000001800638d8     libcpmt:winapinls.obj
 0002:000048e8       ??_C@_1M@LHIPCIEK@?$AAi?$AAd?$AA?9?$AAI?$AAD?$AA?$AA@ 00000001800638e8     libcpmt:winapinls.obj
 0002:000048f8       ??_C@_1M@MFMOBGI@?$AAu?$AAk?$AA?9?$AAU?$AAA?$AA?$AA@ 00000001800638f8     libcpmt:winapinls.obj
 0002:00004908       ??_C@_1M@OBGLJIPL@?$AAb?$AAe?$AA?9?$AAB?$AAY?$AA?$AA@ 0000000180063908     libcpmt:winapinls.obj
 0002:00004918       ??_C@_1M@BCFAJEAD@?$AAs?$AAl?$AA?9?$AAS?$AAI?$AA?$AA@ 0000000180063918     libcpmt:winapinls.obj
 0002:00004928       ??_C@_1M@FKFFEDDN@?$AAe?$AAt?$AA?9?$AAE?$AAE?$AA?$AA@ 0000000180063928     libcpmt:winapinls.obj
 0002:00004938       ??_C@_1M@KGKKAACI@?$AAl?$AAv?$AA?9?$AAL?$AAV?$AA?$AA@ 0000000180063938     libcpmt:winapinls.obj
 0002:00004948       ??_C@_1M@IFGBIJO@?$AAl?$AAt?$AA?9?$AAL?$AAT?$AA?$AA@ 0000000180063948     libcpmt:winapinls.obj
 0002:00004958       ??_C@_1M@FGEAHEDM@?$AAf?$AAa?$AA?9?$AAI?$AAR?$AA?$AA@ 0000000180063958     libcpmt:winapinls.obj
 0002:00004968       ??_C@_1M@KBMAIBFN@?$AAv?$AAi?$AA?9?$AAV?$AAN?$AA?$AA@ 0000000180063968     libcpmt:winapinls.obj
 0002:00004978       ??_C@_1M@GPCBKDJK@?$AAh?$AAy?$AA?9?$AAA?$AAM?$AA?$AA@ 0000000180063978     libcpmt:winapinls.obj
 0002:00004988       ??_C@_1BG@BECMDDJB@?$AAa?$AAz?$AA?9?$AAA?$AAZ?$AA?9?$AAL?$AAa?$AAt?$AAn?$AA?$AA@ 0000000180063988     libcpmt:winapinls.obj
 0002:000049a0       ??_C@_1M@MAOFCAEA@?$AAe?$AAu?$AA?9?$AAE?$AAS?$AA?$AA@ 00000001800639a0     libcpmt:winapinls.obj
 0002:000049b0       ??_C@_1M@IGHABKPI@?$AAm?$AAk?$AA?9?$AAM?$AAK?$AA?$AA@ 00000001800639b0     libcpmt:winapinls.obj
 0002:000049c0       ??_C@_1M@IAIGNEJG@?$AAt?$AAn?$AA?9?$AAZ?$AAA?$AA?$AA@ 00000001800639c0     libcpmt:winapinls.obj
 0002:000049d0       ??_C@_1M@IIJCOJFA@?$AAx?$AAh?$AA?9?$AAZ?$AAA?$AA?$AA@ 00000001800639d0     libcpmt:winapinls.obj
 0002:000049e0       ??_C@_1M@LGPJHNJH@?$AAz?$AAu?$AA?9?$AAZ?$AAA?$AA?$AA@ 00000001800639e0     libcpmt:winapinls.obj
 0002:000049f0       ??_C@_1M@HOKAOIO@?$AAa?$AAf?$AA?9?$AAZ?$AAA?$AA?$AA@ 00000001800639f0     libcpmt:winapinls.obj
 0002:00004a00       ??_C@_1M@DPCLHLIE@?$AAk?$AAa?$AA?9?$AAG?$AAE?$AA?$AA@ 0000000180063a00     libcpmt:winapinls.obj
 0002:00004a10       ??_C@_1M@BLKMHJBI@?$AAf?$AAo?$AA?9?$AAF?$AAO?$AA?$AA@ 0000000180063a10     libcpmt:winapinls.obj
 0002:00004a20       ??_C@_1M@LGGJAPPB@?$AAh?$AAi?$AA?9?$AAI?$AAN?$AA?$AA@ 0000000180063a20     libcpmt:winapinls.obj
 0002:00004a30       ??_C@_1M@FIKPIHFE@?$AAm?$AAt?$AA?9?$AAM?$AAT?$AA?$AA@ 0000000180063a30     libcpmt:winapinls.obj
 0002:00004a40       ??_C@_1M@HEGGPBFA@?$AAs?$AAe?$AA?9?$AAN?$AAO?$AA?$AA@ 0000000180063a40     libcpmt:winapinls.obj
 0002:00004a50       ??_C@_1M@EIBJEEPA@?$AAm?$AAs?$AA?9?$AAM?$AAY?$AA?$AA@ 0000000180063a50     libcpmt:winapinls.obj
 0002:00004a60       ??_C@_1M@FHLBGMPP@?$AAk?$AAk?$AA?9?$AAK?$AAZ?$AA?$AA@ 0000000180063a60     libcpmt:winapinls.obj
 0002:00004a70       ??_C@_1M@NGJJLCGI@?$AAk?$AAy?$AA?9?$AAK?$AAG?$AA?$AA@ 0000000180063a70     libcpmt:winapinls.obj
 0002:00004a80       ??_C@_1M@GIENNBFC@?$AAs?$AAw?$AA?9?$AAK?$AAE?$AA?$AA@ 0000000180063a80     libcpmt:winapinls.obj
 0002:00004a90       ??_C@_1BG@NDGMJIMJ@?$AAu?$AAz?$AA?9?$AAU?$AAZ?$AA?9?$AAL?$AAa?$AAt?$AAn?$AA?$AA@ 0000000180063a90     libcpmt:winapinls.obj
 0002:00004aa8       ??_C@_1M@IDCCIHBC@?$AAt?$AAt?$AA?9?$AAR?$AAU?$AA?$AA@ 0000000180063aa8     libcpmt:winapinls.obj
 0002:00004ab8       ??_C@_1M@LOICPMOJ@?$AAb?$AAn?$AA?9?$AAI?$AAN?$AA?$AA@ 0000000180063ab8     libcpmt:winapinls.obj
 0002:00004ac8       ??_C@_1M@KPKKNEAH@?$AAp?$AAa?$AA?9?$AAI?$AAN?$AA?$AA@ 0000000180063ac8     libcpmt:winapinls.obj
 0002:00004ad8       ??_C@_1M@PJGPPBOG@?$AAg?$AAu?$AA?9?$AAI?$AAN?$AA?$AA@ 0000000180063ad8     libcpmt:winapinls.obj
 0002:00004ae8       ??_C@_1M@KMKMOPHI@?$AAt?$AAa?$AA?9?$AAI?$AAN?$AA?$AA@ 0000000180063ae8     libcpmt:winapinls.obj
 0002:00004af8       ??_C@_1M@KFEHEPAC@?$AAt?$AAe?$AA?9?$AAI?$AAN?$AA?$AA@ 0000000180063af8     libcpmt:winapinls.obj
 0002:00004b08       ??_C@_1M@CDCLMGHI@?$AAk?$AAn?$AA?9?$AAI?$AAN?$AA?$AA@ 0000000180063b08     libcpmt:winapinls.obj
 0002:00004b18       ??_C@_1M@MIODLDKF@?$AAm?$AAl?$AA?9?$AAI?$AAN?$AA?$AA@ 0000000180063b18     libcpmt:winapinls.obj
 0002:00004b28       ??_C@_1M@PBIEACPO@?$AAm?$AAr?$AA?9?$AAI?$AAN?$AA?$AA@ 0000000180063b28     libcpmt:winapinls.obj
 0002:00004b38       ??_C@_1M@NIDEAGPH@?$AAs?$AAa?$AA?9?$AAI?$AAN?$AA?$AA@ 0000000180063b38     libcpmt:winapinls.obj
 0002:00004b48       ??_C@_1M@FHIHCBIO@?$AAm?$AAn?$AA?9?$AAM?$AAN?$AA?$AA@ 0000000180063b48     libcpmt:winapinls.obj
 0002:00004b58       ??_C@_1M@JAIJPENP@?$AAc?$AAy?$AA?9?$AAG?$AAB?$AA?$AA@ 0000000180063b58     libcpmt:winapinls.obj
 0002:00004b68       ??_C@_1M@PHGFBEPN@?$AAg?$AAl?$AA?9?$AAE?$AAS?$AA?$AA@ 0000000180063b68     libcpmt:winapinls.obj
 0002:00004b78       ??_C@_1O@KPIPDNCP@?$AAk?$AAo?$AAk?$AA?9?$AAI?$AAN?$AA?$AA@ 0000000180063b78     libcpmt:winapinls.obj
 0002:00004b88       ??_C@_1O@KNHJLDJA@?$AAs?$AAy?$AAr?$AA?9?$AAS?$AAY?$AA?$AA@ 0000000180063b88     libcpmt:winapinls.obj
 0002:00004b98       ??_C@_1O@MKEKBLAH@?$AAd?$AAi?$AAv?$AA?9?$AAM?$AAV?$AA?$AA@ 0000000180063b98     libcpmt:winapinls.obj
 0002:00004ba8       ??_C@_1O@OHDCKDDF@?$AAq?$AAu?$AAz?$AA?9?$AAB?$AAO?$AA?$AA@ 0000000180063ba8     libcpmt:winapinls.obj
 0002:00004bb8       ??_C@_1M@LEPJNLFD@?$AAn?$AAs?$AA?9?$AAZ?$AAA?$AA?$AA@ 0000000180063bb8     libcpmt:winapinls.obj
 0002:00004bc8       ??_C@_1M@OMLEIIJB@?$AAm?$AAi?$AA?9?$AAN?$AAZ?$AA?$AA@ 0000000180063bc8     libcpmt:winapinls.obj
 0002:00004bd8       ??_C@_1M@PMPEAILG@?$AAa?$AAr?$AA?9?$AAI?$AAQ?$AA?$AA@ 0000000180063bd8     libcpmt:winapinls.obj
 0002:00004be8       ??_C@_1M@BIBDDEMK@?$AAz?$AAh?$AA?9?$AAC?$AAN?$AA?$AA@ 0000000180063be8     libcpmt:winapinls.obj
 0002:00004bf8       ??_C@_1M@CNKPNOEE@?$AAd?$AAe?$AA?9?$AAC?$AAH?$AA?$AA@ 0000000180063bf8     libcpmt:winapinls.obj
 0002:00004c08       ??_C@_1M@LKMGMLKO@?$AAe?$AAn?$AA?9?$AAG?$AAB?$AA?$AA@ 0000000180063c08     libcpmt:winapinls.obj
 0002:00004c18       ??_C@_1M@PGKJFFGL@?$AAe?$AAs?$AA?9?$AAM?$AAX?$AA?$AA@ 0000000180063c18     libcpmt:winapinls.obj
 0002:00004c28       ??_C@_1M@DNNANBDC@?$AAf?$AAr?$AA?9?$AAB?$AAE?$AA?$AA@ 0000000180063c28     libcpmt:winapinls.obj
 0002:00004c38       ??_C@_1M@HLGMDFHM@?$AAi?$AAt?$AA?9?$AAC?$AAH?$AA?$AA@ 0000000180063c38     libcpmt:winapinls.obj
 0002:00004c48       ??_C@_1M@CLLBGJH@?$AAn?$AAl?$AA?9?$AAB?$AAE?$AA?$AA@ 0000000180063c48     libcpmt:winapinls.obj
 0002:00004c58       ??_C@_1M@BODBOGLF@?$AAn?$AAn?$AA?9?$AAN?$AAO?$AA?$AA@ 0000000180063c58     libcpmt:winapinls.obj
 0002:00004c68       ??_C@_1M@HFFAHKAD@?$AAp?$AAt?$AA?9?$AAP?$AAT?$AA?$AA@ 0000000180063c68     libcpmt:winapinls.obj
 0002:00004c78       ??_C@_1BG@LNOAKHIE@?$AAs?$AAr?$AA?9?$AAS?$AAP?$AA?9?$AAL?$AAa?$AAt?$AAn?$AA?$AA@ 0000000180063c78     libcpmt:winapinls.obj
 0002:00004c90       ??_C@_1M@HBMHBGAK@?$AAs?$AAv?$AA?9?$AAF?$AAI?$AA?$AA@ 0000000180063c90     libcpmt:winapinls.obj
 0002:00004ca0       ??_C@_1BG@DGCJGJBE@?$AAa?$AAz?$AA?9?$AAA?$AAZ?$AA?9?$AAC?$AAy?$AAr?$AAl?$AA?$AA@ 0000000180063ca0     libcpmt:winapinls.obj
 0002:00004cb8       ??_C@_1M@KEJDAAHB@?$AAs?$AAe?$AA?9?$AAS?$AAE?$AA?$AA@ 0000000180063cb8     libcpmt:winapinls.obj
 0002:00004cc8       ??_C@_1M@HEIBJJAD@?$AAm?$AAs?$AA?9?$AAB?$AAN?$AA?$AA@ 0000000180063cc8     libcpmt:winapinls.obj
 0002:00004cd8       ??_C@_1BG@PBGJMCEM@?$AAu?$AAz?$AA?9?$AAU?$AAZ?$AA?9?$AAC?$AAy?$AAr?$AAl?$AA?$AA@ 0000000180063cd8     libcpmt:winapinls.obj
 0002:00004cf0       ??_C@_1O@LAOBCMDF@?$AAq?$AAu?$AAz?$AA?9?$AAE?$AAC?$AA?$AA@ 0000000180063cf0     libcpmt:winapinls.obj
 0002:00004d00       ??_C@_1M@POEEMAIO@?$AAa?$AAr?$AA?9?$AAE?$AAG?$AA?$AA@ 0000000180063d00     libcpmt:winapinls.obj
 0002:00004d10       ??_C@_1M@EFAKDEDL@?$AAz?$AAh?$AA?9?$AAH?$AAK?$AA?$AA@ 0000000180063d10     libcpmt:winapinls.obj
 0002:00004d20       ??_C@_1M@HKKIJHGI@?$AAd?$AAe?$AA?9?$AAA?$AAT?$AA?$AA@ 0000000180063d20     libcpmt:winapinls.obj
 0002:00004d30       ??_C@_1M@KBFBEHJF@?$AAe?$AAn?$AA?9?$AAA?$AAU?$AA?$AA@ 0000000180063d30     libcpmt:winapinls.obj
 0002:00004d40       ??_C@_1M@MNPLFAAH@?$AAe?$AAs?$AA?9?$AAE?$AAS?$AA?$AA@ 0000000180063d40     libcpmt:winapinls.obj
 0002:00004d50       ??_C@_1M@HJOOJFMA@?$AAf?$AAr?$AA?9?$AAC?$AAA?$AA?$AA@ 0000000180063d50     libcpmt:winapinls.obj
 0002:00004d60       ??_C@_1BG@JPOFPNAB@?$AAs?$AAr?$AA?9?$AAS?$AAP?$AA?9?$AAC?$AAy?$AAr?$AAl?$AA?$AA@ 0000000180063d60     libcpmt:winapinls.obj
 0002:00004d78       ??_C@_1M@LNFOCMOB@?$AAs?$AAe?$AA?9?$AAF?$AAI?$AA?$AA@ 0000000180063d78     libcpmt:winapinls.obj
 0002:00004d88       ??_C@_1O@MGJBOAMB@?$AAq?$AAu?$AAz?$AA?9?$AAP?$AAE?$AA?$AA@ 0000000180063d88     libcpmt:winapinls.obj
 0002:00004d98       ??_C@_1M@GJINLBOK@?$AAa?$AAr?$AA?9?$AAL?$AAY?$AA?$AA@ 0000000180063d98     libcpmt:winapinls.obj
 0002:00004da8       ??_C@_1M@GGMNHJNL@?$AAz?$AAh?$AA?9?$AAS?$AAG?$AA?$AA@ 0000000180063da8     libcpmt:winapinls.obj
 0002:00004db8       ??_C@_1M@HOIKODND@?$AAd?$AAe?$AA?9?$AAL?$AAU?$AA?$AA@ 0000000180063db8     libcpmt:winapinls.obj
 0002:00004dc8       ??_C@_1M@DDOCCGFG@?$AAe?$AAn?$AA?9?$AAC?$AAA?$AA?$AA@ 0000000180063dc8     libcpmt:winapinls.obj
 0002:00004dd8       ??_C@_1M@BNOEMJLF@?$AAe?$AAs?$AA?9?$AAG?$AAT?$AA?$AA@ 0000000180063dd8     libcpmt:winapinls.obj
 0002:00004de8       ??_C@_1M@EOGNKEK@?$AAf?$AAr?$AA?9?$AAC?$AAH?$AA?$AA@ 0000000180063de8     libcpmt:winapinls.obj
 0002:00004df8       ??_C@_1M@FLIDJFHL@?$AAh?$AAr?$AA?9?$AAB?$AAA?$AA?$AA@ 0000000180063df8     libcpmt:winapinls.obj
 0002:00004e08       ??_C@_1O@FMCELNAJ@?$AAs?$AAm?$AAj?$AA?9?$AAN?$AAO?$AA?$AA@ 0000000180063e08     libcpmt:winapinls.obj
 0002:00004e18       ??_C@_1M@JHGLJMGJ@?$AAa?$AAr?$AA?9?$AAD?$AAZ?$AA?$AA@ 0000000180063e18     libcpmt:winapinls.obj
 0002:00004e28       ??_C@_1M@JKKFDCNP@?$AAz?$AAh?$AA?9?$AAM?$AAO?$AA?$AA@ 0000000180063e28     libcpmt:winapinls.obj
 0002:00004e38       ??_C@_1M@GEEFALPE@?$AAd?$AAe?$AA?9?$AAL?$AAI?$AA?$AA@ 0000000180063e38     libcpmt:winapinls.obj
 0002:00004e48       ??_C@_1M@IGEOFBG@?$AAe?$AAn?$AA?9?$AAN?$AAZ?$AA?$AA@ 0000000180063e48     libcpmt:winapinls.obj
 0002:00004e58       ??_C@_1M@KDBONEHP@?$AAe?$AAs?$AA?9?$AAC?$AAR?$AA?$AA@ 0000000180063e58     libcpmt:winapinls.obj
 0002:00004e68       ??_C@_1M@FHMDOHNN@?$AAf?$AAr?$AA?9?$AAL?$AAU?$AA?$AA@ 0000000180063e68     libcpmt:winapinls.obj
 0002:00004e78       ??_C@_1BG@NFKKMAFG@?$AAb?$AAs?$AA?9?$AAB?$AAA?$AA?9?$AAL?$AAa?$AAt?$AAn?$AA?$AA@ 0000000180063e78     libcpmt:winapinls.obj
 0002:00004e90       ??_C@_1O@IMNBEMCI@?$AAs?$AAm?$AAj?$AA?9?$AAS?$AAE?$AA?$AA@ 0000000180063e90     libcpmt:winapinls.obj
 0002:00004ea0       ??_C@_1M@DHHMBNDP@?$AAa?$AAr?$AA?9?$AAM?$AAA?$AA?$AA@ 0000000180063ea0     libcpmt:winapinls.obj
 0002:00004eb0       ??_C@_1M@BNBLJCGH@?$AAe?$AAn?$AA?9?$AAI?$AAE?$AA?$AA@ 0000000180063eb0     libcpmt:winapinls.obj
 0002:00004ec0       ??_C@_1M@GEPAFMDL@?$AAe?$AAs?$AA?9?$AAP?$AAA?$AA?$AA@ 0000000180063ec0     libcpmt:winapinls.obj
 0002:00004ed0       ??_C@_1M@OJONDMDL@?$AAf?$AAr?$AA?9?$AAM?$AAC?$AA?$AA@ 0000000180063ed0     libcpmt:winapinls.obj
 0002:00004ee0       ??_C@_1BG@OBCNFJB@?$AAs?$AAr?$AA?9?$AAB?$AAA?$AA?9?$AAL?$AAa?$AAt?$AAn?$AA?$AA@ 0000000180063ee0     libcpmt:winapinls.obj
 0002:00004ef8       ??_C@_1O@KEMEEGPO@?$AAs?$AAm?$AAa?$AA?9?$AAN?$AAO?$AA?$AA@ 0000000180063ef8     libcpmt:winapinls.obj
 0002:00004f08       ??_C@_1M@ELMGFODK@?$AAa?$AAr?$AA?9?$AAT?$AAN?$AA?$AA@ 0000000180063f08     libcpmt:winapinls.obj
 0002:00004f18       ??_C@_1M@BHDLHFAF@?$AAe?$AAn?$AA?9?$AAZ?$AAA?$AA?$AA@ 0000000180063f18     libcpmt:winapinls.obj
 0002:00004f28       ??_C@_1M@BMGIGLIF@?$AAe?$AAs?$AA?9?$AAD?$AAO?$AA?$AA@ 0000000180063f28     libcpmt:winapinls.obj
 0002:00004f38       ??_C@_1BG@CMBHIPBE@?$AAs?$AAr?$AA?9?$AAB?$AAA?$AA?9?$AAC?$AAy?$AAr?$AAl?$AA?$AA@ 0000000180063f38     libcpmt:winapinls.obj
 0002:00004f50       ??_C@_1O@HEDBLHNP@?$AAs?$AAm?$AAa?$AA?9?$AAS?$AAE?$AA?$AA@ 0000000180063f50     libcpmt:winapinls.obj
 0002:00004f60       ??_C@_1M@DAGCADIM@?$AAa?$AAr?$AA?9?$AAO?$AAM?$AA?$AA@ 0000000180063f60     libcpmt:winapinls.obj
 0002:00004f70       ??_C@_1M@FODLMICG@?$AAe?$AAn?$AA?9?$AAJ?$AAM?$AA?$AA@ 0000000180063f70     libcpmt:winapinls.obj
 0002:00004f80       ??_C@_1M@DNMLCIHB@?$AAe?$AAs?$AA?9?$AAV?$AAE?$AA?$AA@ 0000000180063f80     libcpmt:winapinls.obj
 0002:00004f90       ??_C@_1O@EOKHMKJK@?$AAs?$AAm?$AAs?$AA?9?$AAF?$AAI?$AA?$AA@ 0000000180063f90     libcpmt:winapinls.obj
 0002:00004fa0       ??_C@_1M@CAFJMKOF@?$AAa?$AAr?$AA?9?$AAY?$AAE?$AA?$AA@ 0000000180063fa0     libcpmt:winapinls.obj
 0002:00004fb0       ??_C@_1M@CBFHIJLI@?$AAe?$AAn?$AA?9?$AAC?$AAB?$AA?$AA@ 0000000180063fb0     libcpmt:winapinls.obj
 0002:00004fc0       ??_C@_1M@BGNFLDN@?$AAe?$AAs?$AA?9?$AAC?$AAO?$AA?$AA@ 0000000180063fc0     libcpmt:winapinls.obj
 0002:00004fd0       ??_C@_1O@JMPHMAMC@?$AAs?$AAm?$AAn?$AA?9?$AAF?$AAI?$AA?$AA@ 0000000180063fd0     libcpmt:winapinls.obj
 0002:00004fe0       ??_C@_1M@JLANABKE@?$AAa?$AAr?$AA?9?$AAS?$AAY?$AA?$AA@ 0000000180063fe0     libcpmt:winapinls.obj
 0002:00004ff0       ??_C@_1M@HPKGCFGN@?$AAe?$AAn?$AA?9?$AAB?$AAZ?$AA?$AA@ 0000000180063ff0     libcpmt:winapinls.obj
 0002:00005000       ??_C@_1M@OLJCMLGM@?$AAe?$AAs?$AA?9?$AAP?$AAE?$AA?$AA@ 0000000180064000     libcpmt:winapinls.obj
 0002:00005010       ??_C@_1M@MKKGFKLE@?$AAa?$AAr?$AA?9?$AAJ?$AAO?$AA?$AA@ 0000000180064010     libcpmt:winapinls.obj
 0002:00005020       ??_C@_1M@EKPGLDNI@?$AAe?$AAn?$AA?9?$AAT?$AAT?$AA?$AA@ 0000000180064020     libcpmt:winapinls.obj
 0002:00005030       ??_C@_1M@OONGHFHE@?$AAe?$AAs?$AA?9?$AAA?$AAR?$AA?$AA@ 0000000180064030     libcpmt:winapinls.obj
 0002:00005040       ??_C@_1M@OOJFGBHE@?$AAa?$AAr?$AA?9?$AAL?$AAB?$AA?$AA@ 0000000180064040     libcpmt:winapinls.obj
 0002:00005050       ??_C@_1M@GCEJHNEG@?$AAe?$AAn?$AA?9?$AAZ?$AAW?$AA?$AA@ 0000000180064050     libcpmt:winapinls.obj
 0002:00005060       ??_C@_1M@JNOCAHJI@?$AAe?$AAs?$AA?9?$AAE?$AAC?$AA?$AA@ 0000000180064060     libcpmt:winapinls.obj
 0002:00005070       ??_C@_1M@JEFHPGGB@?$AAa?$AAr?$AA?9?$AAK?$AAW?$AA?$AA@ 0000000180064070     libcpmt:winapinls.obj
 0002:00005080       ??_C@_1M@MLKIBJOJ@?$AAe?$AAn?$AA?9?$AAP?$AAH?$AA?$AA@ 0000000180064080     libcpmt:winapinls.obj
 0002:00005090       ??_C@_1M@BDNIPEND@?$AAe?$AAs?$AA?9?$AAC?$AAL?$AA?$AA@ 0000000180064090     libcpmt:winapinls.obj
 0002:000050a0       ??_C@_1M@MPNMEKBD@?$AAa?$AAr?$AA?9?$AAA?$AAE?$AA?$AA@ 00000001800640a0     libcpmt:winapinls.obj
 0002:000050b0       ??_C@_1M@KBJALCPI@?$AAe?$AAs?$AA?9?$AAU?$AAY?$AA?$AA@ 00000001800640b0     libcpmt:winapinls.obj
 0002:000050c0       ??_C@_1M@LLCCOAGA@?$AAa?$AAr?$AA?9?$AAB?$AAH?$AA?$AA@ 00000001800640c0     libcpmt:winapinls.obj
 0002:000050d0       ??_C@_1M@PBFNCDEL@?$AAe?$AAs?$AA?9?$AAP?$AAY?$AA?$AA@ 00000001800640d0     libcpmt:winapinls.obj
 0002:000050e0       ??_C@_1M@EDGINPNP@?$AAa?$AAr?$AA?9?$AAQ?$AAA?$AA?$AA@ 00000001800640e0     libcpmt:winapinls.obj
 0002:000050f0       ??_C@_1M@MKDBIIJI@?$AAe?$AAs?$AA?9?$AAB?$AAO?$AA?$AA@ 00000001800640f0     libcpmt:winapinls.obj
 0002:00005100       ??_C@_1M@CPKKEBLD@?$AAe?$AAs?$AA?9?$AAS?$AAV?$AA?$AA@ 0000000180064100     libcpmt:winapinls.obj
 0002:00005110       ??_C@_1M@NDBGMMJL@?$AAe?$AAs?$AA?9?$AAH?$AAN?$AA?$AA@ 0000000180064110     libcpmt:winapinls.obj
 0002:00005120       ??_C@_1M@JIJIBHDP@?$AAe?$AAs?$AA?9?$AAN?$AAI?$AA?$AA@ 0000000180064120     libcpmt:winapinls.obj
 0002:00005130       ??_C@_1M@CGFMKEEK@?$AAe?$AAs?$AA?9?$AAP?$AAR?$AA?$AA@ 0000000180064130     libcpmt:winapinls.obj
 0002:00005140       ??_C@_1O@ICJHKIIK@?$AAz?$AAh?$AA?9?$AAC?$AAH?$AAT?$AA?$AA@ 0000000180064140     libcpmt:winapinls.obj
 0002:00005150       ??_C@_15CLNEJCE@?$AAs?$AAr?$AA?$AA@ 0000000180064150     libcpmt:winapinls.obj
 0002:00005158       ??_C@_1M@KAHEKEIG@?$AAa?$AAf?$AA?9?$AAz?$AAa?$AA?$AA@ 0000000180064158     libcpmt:winapinls.obj
 0002:00005168       ??_C@_1M@GIECOABL@?$AAa?$AAr?$AA?9?$AAa?$AAe?$AA?$AA@ 0000000180064168     libcpmt:winapinls.obj
 0002:00005178       ??_C@_1M@BMLMEKGI@?$AAa?$AAr?$AA?9?$AAb?$AAh?$AA?$AA@ 0000000180064178     libcpmt:winapinls.obj
 0002:00005188       ??_C@_1M@DAPFDGGB@?$AAa?$AAr?$AA?9?$AAd?$AAz?$AA?$AA@ 0000000180064188     libcpmt:winapinls.obj
 0002:00005198       ??_C@_1M@FJNKGKIG@?$AAa?$AAr?$AA?9?$AAe?$AAg?$AA?$AA@ 0000000180064198     libcpmt:winapinls.obj
 0002:000051a8       ??_C@_1M@FLGKKCLO@?$AAa?$AAr?$AA?9?$AAi?$AAq?$AA?$AA@ 00000001800641a8     libcpmt:winapinls.obj
 0002:000051b8       ??_C@_1M@GNDIPALM@?$AAa?$AAr?$AA?9?$AAj?$AAo?$AA?$AA@ 00000001800641b8     libcpmt:winapinls.obj
 0002:000051c8       ??_C@_1M@DDMJFMGJ@?$AAa?$AAr?$AA?9?$AAk?$AAw?$AA?$AA@ 00000001800641c8     libcpmt:winapinls.obj
 0002:000051d8       ??_C@_1M@EJALMLHM@?$AAa?$AAr?$AA?9?$AAl?$AAb?$AA?$AA@ 00000001800641d8     libcpmt:winapinls.obj
 0002:000051e8       ??_C@_1M@MOBDBLOC@?$AAa?$AAr?$AA?9?$AAl?$AAy?$AA?$AA@ 00000001800641e8     libcpmt:winapinls.obj
 0002:000051f8       ??_C@_1M@JAOCLHDH@?$AAa?$AAr?$AA?9?$AAm?$AAa?$AA?$AA@ 00000001800641f8     libcpmt:winapinls.obj
 0002:00005208       ??_C@_1M@JHPMKJIE@?$AAa?$AAr?$AA?9?$AAo?$AAm?$AA?$AA@ 0000000180064208     libcpmt:winapinls.obj
 0002:00005218       ??_C@_1M@OEPGHFNH@?$AAa?$AAr?$AA?9?$AAq?$AAa?$AA?$AA@ 0000000180064218     libcpmt:winapinls.obj
 0002:00005228       ??_C@_1M@KJDONENM@?$AAa?$AAr?$AA?9?$AAs?$AAa?$AA?$AA@ 0000000180064228     libcpmt:winapinls.obj
 0002:00005238       ??_C@_1M@DMJDKLKM@?$AAa?$AAr?$AA?9?$AAs?$AAy?$AA?$AA@ 0000000180064238     libcpmt:winapinls.obj
 0002:00005248       ??_C@_1M@OMFIPEDC@?$AAa?$AAr?$AA?9?$AAt?$AAn?$AA?$AA@ 0000000180064248     libcpmt:winapinls.obj
 0002:00005258       ??_C@_1M@IHMHGAON@?$AAa?$AAr?$AA?9?$AAy?$AAe?$AA?$AA@ 0000000180064258     libcpmt:winapinls.obj
 0002:00005268       ??_C@_1BG@KDCPGJGB@?$AAa?$AAz?$AA?9?$AAa?$AAz?$AA?9?$AAc?$AAy?$AAr?$AAl?$AA?$AA@ 0000000180064268     libcpmt:winapinls.obj
 0002:00005280       ??_C@_1BG@IBCKDDOE@?$AAa?$AAz?$AA?9?$AAa?$AAz?$AA?9?$AAl?$AAa?$AAt?$AAn?$AA?$AA@ 0000000180064280     libcpmt:winapinls.obj
 0002:00005298       ??_C@_1M@EGPFDCPD@?$AAb?$AAe?$AA?9?$AAb?$AAy?$AA?$AA@ 0000000180064298     libcpmt:winapinls.obj
 0002:000052a8       ??_C@_1M@PCMGMCGC@?$AAb?$AAg?$AA?9?$AAb?$AAg?$AA?$AA@ 00000001800642a8     libcpmt:winapinls.obj
 0002:000052b8       ??_C@_1M@BJBMFGOB@?$AAb?$AAn?$AA?9?$AAi?$AAn?$AA?$AA@ 00000001800642b8     libcpmt:winapinls.obj
 0002:000052c8       ??_C@_1BG@EAKMMACD@?$AAb?$AAs?$AA?9?$AAb?$AAa?$AA?9?$AAl?$AAa?$AAt?$AAn?$AA?$AA@ 00000001800642c8     libcpmt:winapinls.obj
 0002:000052e0       ??_C@_1M@KGADAODK@?$AAc?$AAa?$AA?9?$AAe?$AAs?$AA?$AA@ 00000001800642e0     libcpmt:winapinls.obj
 0002:000052f0       ??_C@_1M@COAJPDHI@?$AAc?$AAs?$AA?9?$AAc?$AAz?$AA?$AA@ 00000001800642f0     libcpmt:winapinls.obj
 0002:00005300       ??_C@_1M@DHBHFONH@?$AAc?$AAy?$AA?9?$AAg?$AAb?$AA?$AA@ 0000000180064300     libcpmt:winapinls.obj
 0002:00005310       ??_C@_1M@IMGKELGA@?$AAd?$AAa?$AA?9?$AAd?$AAk?$AA?$AA@ 0000000180064310     libcpmt:winapinls.obj
 0002:00005320       ??_C@_1M@NNDGDNGA@?$AAd?$AAe?$AA?9?$AAa?$AAt?$AA?$AA@ 0000000180064320     libcpmt:winapinls.obj
 0002:00005330       ??_C@_1M@IKDBHEEM@?$AAd?$AAe?$AA?9?$AAc?$AAh?$AA?$AA@ 0000000180064330     libcpmt:winapinls.obj
 0002:00005340       ??_C@_1M@GFFOJMCJ@?$AAd?$AAe?$AA?9?$AAd?$AAe?$AA?$AA@ 0000000180064340     libcpmt:winapinls.obj
 0002:00005350       ??_C@_1M@MDNLKBPM@?$AAd?$AAe?$AA?9?$AAl?$AAi?$AA?$AA@ 0000000180064350     libcpmt:winapinls.obj
 0002:00005360       ??_C@_1M@NJBEEJNL@?$AAd?$AAe?$AA?9?$AAl?$AAu?$AA?$AA@ 0000000180064360     libcpmt:winapinls.obj
 0002:00005370       ??_C@_1O@GNNELBAP@?$AAd?$AAi?$AAv?$AA?9?$AAm?$AAv?$AA?$AA@ 0000000180064370     libcpmt:winapinls.obj
 0002:00005380       ??_C@_1M@EJLEOGAE@?$AAe?$AAl?$AA?9?$AAg?$AAr?$AA?$AA@ 0000000180064380     libcpmt:winapinls.obj
 0002:00005390       ??_C@_1M@GMPONJN@?$AAe?$AAn?$AA?9?$AAa?$AAu?$AA?$AA@ 0000000180064390     libcpmt:winapinls.obj
 0002:000053a0       ??_C@_1M@NIDIIPGF@?$AAe?$AAn?$AA?9?$AAb?$AAz?$AA?$AA@ 00000001800643a0     libcpmt:winapinls.obj
 0002:000053b0       ??_C@_1M@JEHMIMFO@?$AAe?$AAn?$AA?9?$AAc?$AAa?$AA?$AA@ 00000001800643b0     libcpmt:winapinls.obj
 0002:000053c0       ??_C@_1M@IGMJCDLA@?$AAe?$AAn?$AA?9?$AAc?$AAb?$AA?$AA@ 00000001800643c0     libcpmt:winapinls.obj
 0002:000053d0       ??_C@_1M@BNFIGBKG@?$AAe?$AAn?$AA?9?$AAg?$AAb?$AA?$AA@ 00000001800643d0     libcpmt:winapinls.obj
 0002:000053e0       ??_C@_1M@LKIFDIGP@?$AAe?$AAn?$AA?9?$AAi?$AAe?$AA?$AA@ 00000001800643e0     libcpmt:winapinls.obj
 0002:000053f0       ??_C@_1M@PJKFGCCO@?$AAe?$AAn?$AA?9?$AAj?$AAm?$AA?$AA@ 00000001800643f0     libcpmt:winapinls.obj
 0002:00005400       ??_C@_1M@KPPKEPBO@?$AAe?$AAn?$AA?9?$AAn?$AAz?$AA?$AA@ 0000000180064400     libcpmt:winapinls.obj
 0002:00005410       ??_C@_1M@GMDGLDOB@?$AAe?$AAn?$AA?9?$AAp?$AAh?$AA?$AA@ 0000000180064410     libcpmt:winapinls.obj
 0002:00005420       ??_C@_1M@ONGIBJNA@?$AAe?$AAn?$AA?9?$AAt?$AAt?$AA?$AA@ 0000000180064420     libcpmt:winapinls.obj
 0002:00005430       ??_C@_1M@LLODPCMM@?$AAe?$AAn?$AA?9?$AAu?$AAs?$AA?$AA@ 0000000180064430     libcpmt:winapinls.obj
 0002:00005440       ??_C@_1M@LAKFNPAN@?$AAe?$AAn?$AA?9?$AAz?$AAa?$AA?$AA@ 0000000180064440     libcpmt:winapinls.obj
 0002:00005450       ??_C@_1M@MFNHNHEO@?$AAe?$AAn?$AA?9?$AAz?$AAw?$AA?$AA@ 0000000180064450     libcpmt:winapinls.obj
 0002:00005460       ??_C@_1M@EJEINPHM@?$AAe?$AAs?$AA?9?$AAa?$AAr?$AA?$AA@ 0000000180064460     libcpmt:winapinls.obj
 0002:00005470       ??_C@_1M@GNKPCCJA@?$AAe?$AAs?$AA?9?$AAb?$AAo?$AA?$AA@ 0000000180064470     libcpmt:winapinls.obj
 0002:00005480       ??_C@_1M@LEEGFONL@?$AAe?$AAs?$AA?9?$AAc?$AAl?$AA?$AA@ 0000000180064480     libcpmt:winapinls.obj
 0002:00005490       ??_C@_1M@KGPDPBDF@?$AAe?$AAs?$AA?9?$AAc?$AAo?$AA?$AA@ 0000000180064490     libcpmt:winapinls.obj
 0002:000054a0       ??_C@_1M@EIAHOHH@?$AAe?$AAs?$AA?9?$AAc?$AAr?$AA?$AA@ 00000001800644a0     libcpmt:winapinls.obj
 0002:000054b0       ??_C@_1M@LLPGMBIN@?$AAe?$AAs?$AA?9?$AAd?$AAo?$AA?$AA@ 00000001800644b0     libcpmt:winapinls.obj
 0002:000054c0       ??_C@_1M@DKHMKNJA@?$AAe?$AAs?$AA?9?$AAe?$AAc?$AA?$AA@ 00000001800644c0     libcpmt:winapinls.obj
 0002:000054d0       ??_C@_1M@GKGFPKAP@?$AAe?$AAs?$AA?9?$AAe?$AAs?$AA?$AA@ 00000001800644d0     libcpmt:winapinls.obj
 0002:000054e0       ??_C@_1M@LKHKGDLN@?$AAe?$AAs?$AA?9?$AAg?$AAt?$AA?$AA@ 00000001800644e0     libcpmt:winapinls.obj
 0002:000054f0       ??_C@_1M@HEIIGGJD@?$AAe?$AAs?$AA?9?$AAh?$AAn?$AA?$AA@ 00000001800644f0     libcpmt:winapinls.obj
 0002:00005500       ??_C@_1M@FBDHPPGD@?$AAe?$AAs?$AA?9?$AAm?$AAx?$AA?$AA@ 0000000180064500     libcpmt:winapinls.obj
 0002:00005510       ??_C@_1M@DPAGLNDH@?$AAe?$AAs?$AA?9?$AAn?$AAi?$AA?$AA@ 0000000180064510     libcpmt:winapinls.obj
 0002:00005520       ??_C@_1M@MDGOPGDD@?$AAe?$AAs?$AA?9?$AAp?$AAa?$AA?$AA@ 0000000180064520     libcpmt:winapinls.obj
 0002:00005530       ??_C@_1M@EMAMGBGE@?$AAe?$AAs?$AA?9?$AAp?$AAe?$AA?$AA@ 0000000180064530     libcpmt:winapinls.obj
 0002:00005540       ??_C@_1M@IBMCAOEC@?$AAe?$AAs?$AA?9?$AAp?$AAr?$AA?$AA@ 0000000180064540     libcpmt:winapinls.obj
 0002:00005550       ??_C@_1M@FGMDIJED@?$AAe?$AAs?$AA?9?$AAp?$AAy?$AA?$AA@ 0000000180064550     libcpmt:winapinls.obj
 0002:00005560       ??_C@_1M@IIDEOLLL@?$AAe?$AAs?$AA?9?$AAs?$AAv?$AA?$AA@ 0000000180064560     libcpmt:winapinls.obj
 0002:00005570       ??_C@_1M@GAOBIPA@?$AAe?$AAs?$AA?9?$AAu?$AAy?$AA?$AA@ 0000000180064570     libcpmt:winapinls.obj
 0002:00005580       ??_C@_1M@JKFFICHJ@?$AAe?$AAs?$AA?9?$AAv?$AAe?$AA?$AA@ 0000000180064580     libcpmt:winapinls.obj
 0002:00005598       ??_7type_info@@6B@         0000000180064598     LIBCMT:std_type_info_static.obj
 0002:000055a0       _pRawDllMain               00000001800645a0     LIBCMT:dll_dllmain.obj
 0002:000055a0       _pDefaultRawDllMain        00000001800645a0     LIBCMT:dll_dllmain.obj
 0002:000055c0       ??_7bad_array_new_length@std@@6B@ 00000001800645c0     LIBCMT:throw_bad_alloc.obj
 0002:000055d0       ??_C@_0BF@KINCDENJ@bad?5array?5new?5length?$AA@ 00000001800645d0     LIBCMT:throw_bad_alloc.obj
 0002:00005668       ??_7improper_lock@Concurrency@@6B@ 0000000180064668     libconcrt:rtlocks.obj
 0002:00005678       ??_C@_0BD@BAGHDICJ@Lock?5already?5taken?$AA@ 0000000180064678     libconcrt:rtlocks.obj
 0002:00005698       ??_7scheduler_resource_allocation_error@Concurrency@@6B@ 0000000180064698     libconcrt:Platform.obj
 0002:000056a8       ??_C@_0BH@CJPDKMEB@SetThreadGroupAffinity?$AA@ 00000001800646a8     libconcrt:Platform.obj
 0002:000056c0       ??_C@_0BH@CINNILJO@GetThreadGroupAffinity?$AA@ 00000001800646c0     libconcrt:Platform.obj
 0002:000056d8       ??_C@_0BM@JLHMEGJA@GetCurrentProcessorNumberEx?$AA@ 00000001800646d8     libconcrt:Platform.obj
 0002:000056f8       ??_C@_0CB@HOJBBPPI@GetLogicalProcessorInformationEx@ 00000001800646f8     libconcrt:Platform.obj
 0002:00005728       ??_7scheduler_worker_creation_error@Concurrency@@6B@ 0000000180064728     libconcrt:Exceptions.obj
 0002:00005740       ??_7unsupported_os@Concurrency@@6B@ 0000000180064740     libconcrt:Exceptions.obj
 0002:00005758       ??_7improper_scheduler_attach@Concurrency@@6B@ 0000000180064758     libconcrt:Exceptions.obj
 0002:00005770       ??_7improper_scheduler_reference@Concurrency@@6B@ 0000000180064770     libconcrt:Exceptions.obj
 0002:00005788       ??_7context_unblock_unbalanced@Concurrency@@6B@ 0000000180064788     libconcrt:Exceptions.obj
 0002:000057a0       ??_7context_self_unblock@Concurrency@@6B@ 00000001800647a0     libconcrt:Exceptions.obj
 0002:000057b8       ??_7missing_wait@Concurrency@@6B@ 00000001800647b8     libconcrt:Exceptions.obj
 0002:000057d0       ??_7invalid_scheduler_policy_key@Concurrency@@6B@ 00000001800647d0     libconcrt:Exceptions.obj
 0002:000057e8       ??_7invalid_scheduler_policy_value@Concurrency@@6B@ 00000001800647e8     libconcrt:Exceptions.obj
 0002:00005800       ??_7invalid_scheduler_policy_thread_specification@Concurrency@@6B@ 0000000180064800     libconcrt:Exceptions.obj
 0002:00005818       ??_7nested_scheduler_missing_detach@Concurrency@@6B@ 0000000180064818     libconcrt:Exceptions.obj
 0002:00005830       ??_7invalid_oversubscribe_operation@Concurrency@@6B@ 0000000180064830     libconcrt:Exceptions.obj
 0002:00005ac8       ??_7invalid_operation@Concurrency@@6B@ 0000000180064ac8     libconcrt:ResourceManager.obj
 0002:00005ae0       ??_7TopologyObject@GlobalCore@details@Concurrency@@6B@ 0000000180064ae0     libconcrt:ResourceManager.obj
 0002:00005af8       ??_7TopologyObject@GlobalNode@details@Concurrency@@6B@ 0000000180064af8     libconcrt:ResourceManager.obj
 0002:00005b28       ??_7ResourceManager@details@Concurrency@@6B@ 0000000180064b28     libconcrt:ResourceManager.obj
 0002:00005b58       ??_C@_05IOMEMJEC@count?$AA@ 0000000180064b58     libconcrt:ResourceManager.obj
 0002:00005b60       ??_C@_0L@HKFDMHB@pScheduler?$AA@ 0000000180064b60     libconcrt:ResourceManager.obj
 0002:00005b70       ??_C@_07CPCPJPKL@version?$AA@ 0000000180064b70     libconcrt:ResourceManager.obj
 0002:00005b78       __real@0000000000000000    0000000180064b78     libconcrt:ResourceManager.obj
 0002:00005b80       __real@3e7ad7f29abcaf48    0000000180064b80     libconcrt:ResourceManager.obj
 0002:00005b88       __real@3ff0000000000000    0000000180064b88     libconcrt:ResourceManager.obj
 0002:00005b90       ?s_maxExternalAllocators@SchedulerBase@details@Concurrency@@0HB 0000000180064b90     libconcrt:SchedulerBase.obj
 0002:00005b94       ?s_allocatorFreePoolLimit@SchedulerBase@details@Concurrency@@0HB 0000000180064b94     libconcrt:SchedulerBase.obj
 0002:00005e98       ??_7ScheduleGroup@Concurrency@@6B@ 0000000180064e98     libconcrt:SchedulerBase.obj
 0002:00005ec8       ??_7Scheduler@Concurrency@@6B@ 0000000180064ec8     libconcrt:SchedulerBase.obj
 0002:00005f38       ??_7_Chore@details@Concurrency@@6B@ 0000000180064f38     libconcrt:SchedulerBase.obj
 0002:00005f48       ??_7RealizedChore@details@Concurrency@@6B@ 0000000180064f48     libconcrt:SchedulerBase.obj
 0002:00005f58       ??_7SchedulerBase@details@Concurrency@@6B@ 0000000180064f58     libconcrt:SchedulerBase.obj
 0002:00006020       ??_7CacheLocalScheduleGroupSegment@details@Concurrency@@6B@ 0000000180065020     libconcrt:SchedulerBase.obj
 0002:00006048       ??_7CacheLocalScheduleGroup@details@Concurrency@@6B@ 0000000180065048     libconcrt:SchedulerBase.obj
 0002:000060a0       ??_7FairScheduleGroupSegment@details@Concurrency@@6B@ 00000001800650a0     libconcrt:SchedulerBase.obj
 0002:000060c8       ??_7FairScheduleGroup@details@Concurrency@@6B@ 00000001800650c8     libconcrt:SchedulerBase.obj
 0002:00006118       ??_C@_0M@IAPOLKMH@eventObject?$AA@ 0000000180065118     libconcrt:SchedulerBase.obj
 0002:00006128       ??_C@_0BI@PMOAFEOC@ppVirtualProcessorRoots?$AA@ 0000000180065128     libconcrt:SchedulerBase.obj
 0002:000062b0       ??_7WaitBlock@details@Concurrency@@6B@ 00000001800652b0     libconcrt:event.obj
 0002:000062e0       ??_7SingleWaitBlock@details@Concurrency@@6B@ 00000001800652e0     libconcrt:event.obj
 0002:00006310       ??_7MultiWaitBlock@details@Concurrency@@6B@ 0000000180065310     libconcrt:event.obj
 0002:00006348       ??_7WaitAllBlock@details@Concurrency@@6B@ 0000000180065348     libconcrt:event.obj
 0002:00006380       ??_7WaitAnyBlock@details@Concurrency@@6B@ 0000000180065380     libconcrt:event.obj
 0002:000063b8       ??_7TimedSingleWaitBlock@details@Concurrency@@6B@ 00000001800653b8     libconcrt:event.obj
 0002:000063e8       ??_7?$_MallocaArrayHolder@PEAVContext@Concurrency@@@details@Concurrency@@6B@ 00000001800653e8     libconcrt:event.obj
 0002:000063f0       ??_C@_07CAAEJHLA@pEvents?$AA@ 00000001800653f0     libconcrt:event.obj
 0002:00006540       ??_7Context@Concurrency@@6B@ 0000000180065540     libconcrt:ContextBase.obj
 0002:00006578       ??_7ContextBase@details@Concurrency@@6B@ 0000000180065578     libconcrt:ContextBase.obj
 0002:000067c0       ?_Upper@?1??_Memory_order_upper_bound@std@@YA?AW4memory_order@2@W432@0@Z@4QAY05$$CBW432@A 00000001800657c0     libconcrt:TaskCollection.obj
 0002:00006858       ??_7_Interruption_exception@details@Concurrency@@6B@ 0000000180065858     libconcrt:TaskCollection.obj
 0002:00006870       ??_7_RefCounter@details@Concurrency@@6B@ 0000000180065870     libconcrt:TaskCollection.obj
 0002:00006888       ??_7_CancellationTokenRegistration@details@Concurrency@@6B@ 0000000180065888     libconcrt:TaskCollection.obj
 0002:000068a8       ??_7CancellationTokenRegistration_TaskProc@details@Concurrency@@6B@ 00000001800658a8     libconcrt:TaskCollection.obj
 0002:000068c8       ??_7?$_MallocaArrayHolder@PEAVevent@Concurrency@@@details@Concurrency@@6B@ 00000001800658c8     libconcrt:TaskCollection.obj
 0002:000068d0       ??_C@_0O@JJAHDPNG@SchedulerKind?$AA@ 00000001800658d0     libconcrt:SchedulerPolicyBase.obj
 0002:000068e0       ??_C@_0P@CGAHIHHE@MaxConcurrency?$AA@ 00000001800658e0     libconcrt:SchedulerPolicyBase.obj
 0002:000068f0       ??_C@_0P@BLMOAEF@MinConcurrency?$AA@ 00000001800658f0     libconcrt:SchedulerPolicyBase.obj
 0002:00006900       ??_C@_0BN@GKPFKNNF@TargetOversubscriptionFactor?$AA@ 0000000180065900     libconcrt:SchedulerPolicyBase.obj
 0002:00006920       ??_C@_0BG@PCMPEOIE@LocalContextCacheSize?$AA@ 0000000180065920     libconcrt:SchedulerPolicyBase.obj
 0002:00006938       ??_C@_0BB@OPLJNNNB@ContextStackSize?$AA@ 0000000180065938     libconcrt:SchedulerPolicyBase.obj
 0002:00006950       ??_C@_0BA@CHGPFLBM@ContextPriority?$AA@ 0000000180065950     libconcrt:SchedulerPolicyBase.obj
 0002:00006960       ??_C@_0BD@HMLGOEAM@SchedulingProtocol?$AA@ 0000000180065960     libconcrt:SchedulerPolicyBase.obj
 0002:00006978       ??_C@_0BI@PEDMDBKL@DynamicProgressFeedback?$AA@ 0000000180065978     libconcrt:SchedulerPolicyBase.obj
 0002:00006990       ??_C@_0BE@EBKJEJDK@WinRTInitialization?$AA@ 0000000180065990     libconcrt:SchedulerPolicyBase.obj
 0002:000069a8       ??_C@_0BE@OJPKBKLL@MaxPolicyElementKey?$AA@ 00000001800659a8     libconcrt:SchedulerPolicyBase.obj
 0002:000069f0       ??_7ExecutionResource@details@Concurrency@@6B@ 00000001800659f0     libconcrt:ExecutionResource.obj
 0002:00006a10       __real@3f1a36e2eb1c432d    0000000180065a10     libconcrt:HillClimbing.obj
 0002:00006a18       __real@3f70624dd2f1a9fc    0000000180065a18     libconcrt:HillClimbing.obj
 0002:00006a20       __real@3fc3333333333333    0000000180065a20     libconcrt:HillClimbing.obj
 0002:00006a28       __real@bff0000000000000    0000000180065a28     libconcrt:HillClimbing.obj
 0002:00006c40       ??_7SchedulerProxy@details@Concurrency@@6B@ 0000000180065c40     libconcrt:SchedulerProxy.obj
 0002:00006c90       ??_C@_08BAFMHLII@pContext?$AA@ 0000000180065c90     libconcrt:SchedulerProxy.obj
 0002:00006ca0       ??_C@_0BD@HOFLOOHM@pExecutionResource?$AA@ 0000000180065ca0     libconcrt:SchedulerProxy.obj
 0002:00006cb8       ??_C@_0BF@PHKBGNNA@CreateRemoteThreadEx?$AA@ 0000000180065cb8     libconcrt:UMSWrapper.obj
 0002:00006cd0       ??_C@_0BI@OFOMFECC@CreateUmsCompletionList?$AA@ 0000000180065cd0     libconcrt:UMSWrapper.obj
 0002:00006ce8       ??_C@_0BH@NBGNADAH@CreateUmsThreadContext?$AA@ 0000000180065ce8     libconcrt:UMSWrapper.obj
 0002:00006d00       ??_C@_0BO@JONJJOMF@DeleteProcThreadAttributeList?$AA@ 0000000180065d00     libconcrt:UMSWrapper.obj
 0002:00006d20       ??_C@_0BI@BPKNDLMM@DeleteUmsCompletionList?$AA@ 0000000180065d20     libconcrt:UMSWrapper.obj
 0002:00006d38       ??_C@_0BH@JPDPIOBJ@DeleteUmsThreadContext?$AA@ 0000000180065d38     libconcrt:UMSWrapper.obj
 0002:00006d50       ??_C@_0BO@GGFJEFKK@DequeueUmsCompletionListItems?$AA@ 0000000180065d50     libconcrt:UMSWrapper.obj
 0002:00006d70       ??_C@_0BH@BLPFNIKG@EnterUmsSchedulingMode?$AA@ 0000000180065d70     libconcrt:UMSWrapper.obj
 0002:00006d88       ??_C@_0BB@DHABPDKF@ExecuteUmsThread?$AA@ 0000000180065d88     libconcrt:UMSWrapper.obj
 0002:00006da0       ??_C@_0BE@FLBMLIK@GetCurrentUmsThread?$AA@ 0000000180065da0     libconcrt:UMSWrapper.obj
 0002:00006db8       ??_C@_0BD@FNFEEGCI@GetNextUmsListItem?$AA@ 0000000180065db8     libconcrt:UMSWrapper.obj
 0002:00006dd0       ??_C@_0BK@MGNBLFMB@GetUmsCompletionListEvent?$AA@ 0000000180065dd0     libconcrt:UMSWrapper.obj
 0002:00006df0       ??_C@_0CC@PLANOPMM@InitializeProcThreadAttributeLis@ 0000000180065df0     libconcrt:UMSWrapper.obj
 0002:00006e18       ??_C@_0BK@DAKPFGE@QueryUmsThreadInformation?$AA@ 0000000180065e18     libconcrt:UMSWrapper.obj
 0002:00006e38       ??_C@_0BI@DPBBCPDB@SetUmsThreadInformation?$AA@ 0000000180065e38     libconcrt:UMSWrapper.obj
 0002:00006e50       ??_C@_0P@ILGNBNP@UmsThreadYield?$AA@ 0000000180065e50     libconcrt:UMSWrapper.obj
 0002:00006e60       ??_C@_0BK@LCOMJCNI@UpdateProcThreadAttribute?$AA@ 0000000180065e60     libconcrt:UMSWrapper.obj
 0002:00006e80       ??_C@_1BI@IDAOOPDH@?$AAc?$AAo?$AAm?$AAb?$AAa?$AAs?$AAe?$AA?4?$AAd?$AAl?$AAl?$AA?$AA@ 0000000180065e80     libconcrt:WinRTWrapper.obj
 0002:00006e98       ??_C@_0N@PPOMPGGK@RoInitialize?$AA@ 0000000180065e98     libconcrt:WinRTWrapper.obj
 0002:00006ea8       ??_C@_0P@LLFHBIJD@RoUninitialize?$AA@ 0000000180065ea8     libconcrt:WinRTWrapper.obj
 0002:00006f60       ??_7FreeThreadProxy@details@Concurrency@@6B@ 0000000180065f60     libconcrt:ThreadProxyFactoryManager.obj
 0002:00006f98       ??_7IThreadProxyFactory@details@Concurrency@@6B@ 0000000180065f98     libconcrt:ThreadProxyFactoryManager.obj
 0002:00006fc8       ?s_proxyStackSize@?$ThreadProxyFactory@VFreeThreadProxy@details@Concurrency@@@details@Concurrency@@1QBIB 0000000180065fc8     libconcrt:ThreadProxyFactoryManager.obj
 0002:00006fe0       ??_7?$ThreadProxyFactory@VFreeThreadProxy@details@Concurrency@@@details@Concurrency@@6B@ 0000000180065fe0     libconcrt:ThreadProxyFactoryManager.obj
 0002:00007038       ??_7FreeThreadProxyFactory@details@Concurrency@@6B@ 0000000180066038     libconcrt:ThreadProxyFactoryManager.obj
 0002:00007088       ?ConcRT_ProviderGuid@Concurrency@@3U_GUID@@B 0000000180066088     libconcrt:Trace.obj
 0002:00007098       ?ConcRTEventGuid@Concurrency@@3U_GUID@@B 0000000180066098     libconcrt:Trace.obj
 0002:000070a8       ?SchedulerEventGuid@Concurrency@@3U_GUID@@B 00000001800660a8     libconcrt:Trace.obj
 0002:000070b8       ?ScheduleGroupEventGuid@Concurrency@@3U_GUID@@B 00000001800660b8     libconcrt:Trace.obj
 0002:000070c8       ?ContextEventGuid@Concurrency@@3U_GUID@@B 00000001800660c8     libconcrt:Trace.obj
 0002:000070d8       ?ChoreEventGuid@Concurrency@@3U_GUID@@B 00000001800660d8     libconcrt:Trace.obj
 0002:000070e8       ?VirtualProcessorEventGuid@Concurrency@@3U_GUID@@B 00000001800660e8     libconcrt:Trace.obj
 0002:000070f8       ?LockEventGuid@Concurrency@@3U_GUID@@B 00000001800660f8     libconcrt:Trace.obj
 0002:00007108       ?ResourceManagerEventGuid@Concurrency@@3U_GUID@@B 0000000180066108     libconcrt:Trace.obj
 0002:00007118       ?PPLParallelInvokeEventGuid@Concurrency@@3U_GUID@@B 0000000180066118     libconcrt:Trace.obj
 0002:00007128       ?PPLParallelForEventGuid@Concurrency@@3U_GUID@@B 0000000180066128     libconcrt:Trace.obj
 0002:00007138       ?PPLParallelForeachEventGuid@Concurrency@@3U_GUID@@B 0000000180066138     libconcrt:Trace.obj
 0002:00007148       ?AgentEventGuid@Concurrency@@3U_GUID@@B 0000000180066148     libconcrt:Trace.obj
 0002:00007180       ??_C@_1BK@JHLNAEJL@?$AAa?$AAd?$AAv?$AAa?$AAp?$AAi?$AA3?$AA2?$AA?4?$AAd?$AAl?$AAl?$AA?$AA@ 0000000180066180     libconcrt:Trace.obj
 0002:000071a0       ??_C@_0BE@FKJMGMF@RegisterTraceGuidsW?$AA@ 00000001800661a0     libconcrt:Trace.obj
 0002:000071b8       ??_C@_0BF@OFMMALCC@UnregisterTraceGuids?$AA@ 00000001800661b8     libconcrt:Trace.obj
 0002:000071d0       ??_C@_0L@EOLEDHLE@TraceEvent?$AA@ 00000001800661d0     libconcrt:Trace.obj
 0002:000071e0       ??_C@_0BF@OFCGPMKL@GetTraceLoggerHandle?$AA@ 00000001800661e0     libconcrt:Trace.obj
 0002:000071f8       ??_C@_0BE@JCHMKLLJ@GetTraceEnableLevel?$AA@ 00000001800661f8     libconcrt:Trace.obj
 0002:00007210       ??_C@_0BE@DNOHFPHI@GetTraceEnableFlags?$AA@ 0000000180066210     libconcrt:Trace.obj
 0002:00007258       ??_7VirtualProcessor@details@Concurrency@@6B@ 0000000180066258     libconcrt:VirtualProcessor.obj
 0002:000072d0       ?s_bucketSizes@SubAllocator@details@Concurrency@@0QBHB 00000001800662d0     libconcrt:SubAllocator.obj
 0002:00007450       ?GranularityShift@SubAllocator@details@Concurrency@@0HB 0000000180066450     libconcrt:SubAllocator.obj
 0002:00007454       ?MaxAllocationSize@SubAllocator@details@Concurrency@@0HB 0000000180066454     libconcrt:SubAllocator.obj
 0002:00007550       ??_7IExecutionContext@Concurrency@@6B@ 0000000180066550     libconcrt:InternalContextBase.obj
 0002:00007580       ??_7InternalContextBase@details@Concurrency@@6BIExecutionContext@2@@ 0000000180066580     libconcrt:InternalContextBase.obj
 0002:000075d0       ??_7InternalContextBase@details@Concurrency@@6BContextBase@12@@ 00000001800665d0     libconcrt:InternalContextBase.obj
 0002:00007660       ??_C@_0N@FACDCNDA@pThreadProxy?$AA@ 0000000180066660     libconcrt:InternalContextBase.obj
 0002:00007830       ??_7ScheduleGroupSegmentBase@details@Concurrency@@6B@ 0000000180066830     libconcrt:ScheduleGroupBase.obj
 0002:00007858       ??_7ScheduleGroupBase@details@Concurrency@@6B@ 0000000180066858     libconcrt:ScheduleGroupBase.obj
 0002:000078a8       ??_C@_04MGCDEED@proc?$AA@  00000001800668a8     libconcrt:ScheduleGroupBase.obj
 0002:00007958       ??_7ExternalContextBase@details@Concurrency@@6B@ 0000000180066958     libconcrt:ExternalContextBase.obj
 0002:00007a68       ??_7IScheduler@Concurrency@@6B@ 0000000180066a68     libconcrt:ThreadScheduler.obj
 0002:00007aa8       ??_7ThreadInternalContext@details@Concurrency@@6BIExecutionContext@2@@ 0000000180066aa8     libconcrt:ThreadScheduler.obj
 0002:00007af8       ??_7ThreadInternalContext@details@Concurrency@@6BContextBase@12@@ 0000000180066af8     libconcrt:ThreadScheduler.obj
 0002:00007b90       ??_7ThreadScheduler@details@Concurrency@@6BIScheduler@2@@ 0000000180066b90     libconcrt:ThreadScheduler.obj
 0002:00007bd0       ??_7ThreadScheduler@details@Concurrency@@6BSchedulerBase@12@@ 0000000180066bd0     libconcrt:ThreadScheduler.obj
 0002:00007d88       ??_7VirtualProcessorRoot@details@Concurrency@@6B@ 0000000180066d88     libconcrt:VirtualProcessorRoot.obj
 0002:00007de0       ??_7FreeVirtualProcessorRoot@details@Concurrency@@6B@ 0000000180066de0     libconcrt:FreeVirtualProcessorRoot.obj
 0002:00007e30       ??_C@_0M@CIMHMGAD@switchState?$AA@ 0000000180066e30     libconcrt:FreeThreadProxy.obj
 0002:00007e70       ??_7ThreadProxy@details@Concurrency@@6B@ 0000000180066e70     libconcrt:ThreadProxy.obj
 0002:00007ef8       ??_7ThreadVirtualProcessor@details@Concurrency@@6B@ 0000000180066ef8     libconcrt:ThreadVirtualProcessor.obj
 0002:00008018       _pDestructExceptionObject  0000000180067018     libvcruntime:frame.obj
 0002:00008028       ??_7bad_exception@std@@6B@ 0000000180067028     libvcruntime:frame.obj
 0002:00008038       ??_C@_0O@DPKOEFFH@bad?5exception?$AA@ 0000000180067038     libvcruntime:frame.obj
 0002:00008068       ??_C@_1BC@DNHGCMLG@?$AAa?$AAd?$AAv?$AAa?$AAp?$AAi?$AA3?$AA2?$AA?$AA@ 0000000180067068     libvcruntime:winapi_downlevel.obj
 0002:00008080       ??_C@_1DM@KHCHBNEB@?$AAa?$AAp?$AAi?$AA?9?$AAm?$AAs?$AA?9?$AAw?$AAi?$AAn?$AA?9?$AAc?$AAo?$AAr?$AAe?$AA?9?$AAf?$AAi?$AAb?$AAe?$AAr?$AAs?$AA?9?$AAl?$AA1?$AA?9?$AA1?$AA?9?$AA1?$AA?$AA@ 0000000180067080     libvcruntime:winapi_downlevel.obj
 0002:000080c0       ??_C@_1DK@LPPGFMPP@?$AAa?$AAp?$AAi?$AA?9?$AAm?$AAs?$AA?9?$AAw?$AAi?$AAn?$AA?9?$AAc?$AAo?$AAr?$AAe?$AA?9?$AAs?$AAy?$AAn?$AAc?$AAh?$AA?9?$AAl?$AA1?$AA?9?$AA2?$AA?9?$AA0?$AA?$AA@ 00000001800670c0     libvcruntime:winapi_downlevel.obj
 0002:00008100       ??_C@_1BC@GDMECMAK@?$AAk?$AAe?$AAr?$AAn?$AAe?$AAl?$AA3?$AA2?$AA?$AA@ 0000000180067100     libvcruntime:winapi_downlevel.obj
 0002:00008118       ??_C@_0O@BAMBGLIE@EventRegister?$AA@ 0000000180067118     libvcruntime:winapi_downlevel.obj
 0002:00008130       ??_C@_0BE@BJEEGHGK@EventSetInformation?$AA@ 0000000180067130     libvcruntime:winapi_downlevel.obj
 0002:00008148       ??_C@_0BA@FAKLIPIC@EventUnregister?$AA@ 0000000180067148     libvcruntime:winapi_downlevel.obj
 0002:00008160       ??_C@_0BD@PKLHJPHD@EventWriteTransfer?$AA@ 0000000180067160     libvcruntime:winapi_downlevel.obj
 0002:000081a0       _Microsoft_CRTProvider     00000001800671a0     libvcruntime:telemetry.obj
 0002:000081a8       ??_C@_0O@JEOPJOMI@Main?5Invoked?4?$AA@ 00000001800671a8     libvcruntime:telemetry.obj
 0002:000081b8       ??_C@_0P@NEAEIBDO@Main?5Returned?4?$AA@ 00000001800671b8     libvcruntime:telemetry.obj
 0002:000081d0       ??_7bad_typeid@std@@6B@    00000001800671d0     libvcruntime:rtti.obj
 0002:000081e8       ??_7__non_rtti_object@std@@6B@ 00000001800671e8     libvcruntime:rtti.obj
 0002:000081f8       ??_C@_0CB@CGKGGDFI@Access?5violation?5?9?5no?5RTTI?5data?$CB@ 00000001800671f8     libvcruntime:rtti.obj
 0002:00008220       ??_C@_0BC@JNJNLHBP@Bad?5dynamic_cast?$CB?$AA@ 0000000180067220     libvcruntime:rtti.obj
 0002:00008560       ??_C@_08EHJDFFNH@__based?$CI?$AA@ 0000000180067560     libvcruntime:undname.obj
 0002:00008570       ??_C@_07KOLFKCDI@__cdecl?$AA@ 0000000180067570     libvcruntime:undname.obj
 0002:00008578       ??_C@_08GHMPAG@__pascal?$AA@ 0000000180067578     libvcruntime:undname.obj
 0002:00008588       ??_C@_09IFJBGAPI@__stdcall?$AA@ 0000000180067588     libvcruntime:undname.obj
 0002:00008598       ??_C@_0L@NPHFGOKO@__thiscall?$AA@ 0000000180067598     libvcruntime:undname.obj
 0002:000085a8       ??_C@_0L@JMKHOMEK@__fastcall?$AA@ 00000001800675a8     libvcruntime:undname.obj
 0002:000085b8       ??_C@_0N@BCKKPABJ@__vectorcall?$AA@ 00000001800675b8     libvcruntime:undname.obj
 0002:000085c8       ??_C@_09HIJEGCPM@__clrcall?$AA@ 00000001800675c8     libvcruntime:undname.obj
 0002:000085d4       ??_C@_06GHPCKEAG@__eabi?$AA@ 00000001800675d4     libvcruntime:undname.obj
 0002:000085e0       ??_C@_07JOMMBBKO@__ptr64?$AA@ 00000001800675e0     libvcruntime:undname.obj
 0002:000085e8       ??_C@_0L@PILCLIHE@__restrict?$AA@ 00000001800675e8     libvcruntime:undname.obj
 0002:000085f8       ??_C@_0M@GFIIJFMG@__unaligned?$AA@ 00000001800675f8     libvcruntime:undname.obj
 0002:00008608       ??_C@_09DHDLOLLB@restrict?$CI?$AA@ 0000000180067608     libvcruntime:undname.obj
 0002:00008614       ??_C@_04NIHEBCM@?5new?$AA@ 0000000180067614     libvcruntime:undname.obj
 0002:00008620       ??_C@_07FPCDHGMM@?5delete?$AA@ 0000000180067620     libvcruntime:undname.obj
 0002:00008628       ??_C@_01NEMOKFLO@?$DN?$AA@ 0000000180067628     libvcruntime:undname.obj
 0002:0000862c       ??_C@_02GPIOPFAK@?$DO?$DO?$AA@ 000000018006762c     libvcruntime:undname.obj
 0002:00008630       ??_C@_02FODMEDOG@?$DM?$DM?$AA@ 0000000180067630     libvcruntime:undname.obj
 0002:00008634       ??_C@_01DCLJPIOD@?$CB?$AA@ 0000000180067634     libvcruntime:undname.obj
 0002:00008638       ??_C@_02EGOFBIJA@?$DN?$DN?$AA@ 0000000180067638     libvcruntime:undname.obj
 0002:0000863c       ??_C@_02FDNJECIE@?$CB?$DN?$AA@ 000000018006763c     libvcruntime:undname.obj
 0002:00008640       ??_C@_02GPECMEKF@?$FL?$FN?$AA@ 0000000180067640     libvcruntime:undname.obj
 0002:00008648       ??_C@_08LHJFAFGD@operator?$AA@ 0000000180067648     libvcruntime:undname.obj
 0002:00008654       ??_C@_02HBOOOICD@?9?$DO?$AA@ 0000000180067654     libvcruntime:undname.obj
 0002:00008658       ??_C@_02ECNGHCIF@?$CL?$CL?$AA@ 0000000180067658     libvcruntime:undname.obj
 0002:0000865c       ??_C@_02BAABKJLB@?9?9?$AA@ 000000018006765c     libvcruntime:undname.obj
 0002:00008660       ??_C@_01MIFGBAGJ@?$CL?$AA@ 0000000180067660     libvcruntime:undname.obj
 0002:00008664       ??_C@_01HNPIGOCE@?$CG?$AA@ 0000000180067664     libvcruntime:undname.obj
 0002:00008668       ??_C@_03MNHNFDLC@?9?$DO?$CK?$AA@ 0000000180067668     libvcruntime:undname.obj
 0002:0000866c       ??_C@_01KMDKNFGN@?1?$AA@   000000018006766c     libvcruntime:undname.obj
 0002:00008670       ??_C@_01FGNFDNOH@?$CF?$AA@ 0000000180067670     libvcruntime:undname.obj
 0002:00008674       ??_C@_01MNNFJEPP@?$DM?$AA@ 0000000180067674     libvcruntime:undname.obj
 0002:00008678       ??_C@_02EHCHHCKH@?$DM?$DN?$AA@ 0000000180067678     libvcruntime:undname.obj
 0002:0000867c       ??_C@_01PPODPGHN@?$DO?$AA@ 000000018006767c     libvcruntime:undname.obj
 0002:00008680       ??_C@_02EEKDKGMJ@?$DO?$DN?$AA@ 0000000180067680     libvcruntime:undname.obj
 0002:00008684       ??_C@_01IHBHIGKO@?0?$AA@   0000000180067684     libvcruntime:undname.obj
 0002:00008688       ??_C@_02HCKGKOFO@?$CI?$CJ?$AA@ 0000000180067688     libvcruntime:undname.obj
 0002:0000868c       ??_C@_01PJKLJHI@?$HO?$AA@  000000018006768c     libvcruntime:undname.obj
 0002:00008690       ??_C@_01JKBOJNNK@?$FO?$AA@ 0000000180067690     libvcruntime:undname.obj
 0002:00008694       ??_C@_01DNKMNLPK@?$HM?$AA@ 0000000180067694     libvcruntime:undname.obj
 0002:00008698       ??_C@_02PPKAJPJL@?$CG?$CG?$AA@ 0000000180067698     libvcruntime:undname.obj
 0002:0000869c       ??_C@_02NONPIBCD@?$HM?$HM?$AA@ 000000018006769c     libvcruntime:undname.obj
 0002:000086a0       ??_C@_02FPIMKNGF@?$CK?$DN?$AA@ 00000001800676a0     libvcruntime:undname.obj
 0002:000086a4       ??_C@_02FOEOMHFC@?$CL?$DN?$AA@ 00000001800676a4     libvcruntime:undname.obj
 0002:000086a8       ??_C@_02FKMDLLOA@?9?$DN?$AA@ 00000001800676a8     libvcruntime:undname.obj
 0002:000086ac       ??_C@_02FJEHGPIO@?1?$DN?$AA@ 00000001800676ac     libvcruntime:undname.obj
 0002:000086b0       ??_C@_02FENAOKFI@?$CF?$DN?$AA@ 00000001800676b0     libvcruntime:undname.obj
 0002:000086b4       ??_C@_03IKFCCPFF@?$DO?$DO?$DN?$AA@ 00000001800676b4     libvcruntime:undname.obj
 0002:000086b8       ??_C@_03CDNPDDLA@?$DM?$DM?$DN?$AA@ 00000001800676b8     libvcruntime:undname.obj
 0002:000086bc       ??_C@_02FGJGFEAB@?$CG?$DN?$AA@ 00000001800676bc     libvcruntime:undname.obj
 0002:000086c0       ??_C@_02DHLNPPGH@?$HM?$DN?$AA@ 00000001800676c0     libvcruntime:undname.obj
 0002:000086c4       ??_C@_02MHEGNOJ@?$FO?$DN?$AA@ 00000001800676c4     libvcruntime:undname.obj
 0002:000086c8       ??_C@_09IFPLHPGF@?$GAvftable?8?$AA@ 00000001800676c8     libvcruntime:undname.obj
 0002:000086d8       ??_C@_09BLBHBJP@?$GAvbtable?8?$AA@ 00000001800676d8     libvcruntime:undname.obj
 0002:000086e8       ??_C@_07FEEIOKP@?$GAvcall?8?$AA@ 00000001800676e8     libvcruntime:undname.obj
 0002:000086f0       ??_C@_08LLFFHHDJ@?$GAtypeof?8?$AA@ 00000001800676f0     libvcruntime:undname.obj
 0002:00008700       ??_C@_0BF@KDPPACIK@?$GAlocal?5static?5guard?8?$AA@ 0000000180067700     libvcruntime:undname.obj
 0002:00008718       ??_C@_08OBABFOLI@?$GAstring?8?$AA@ 0000000180067718     libvcruntime:undname.obj
 0002:00008728       ??_C@_0BD@JDLKDPAB@?$GAvbase?5destructor?8?$AA@ 0000000180067728     libvcruntime:undname.obj
 0002:00008740       ??_C@_0BN@DEGPLNFK@?$GAvector?5deleting?5destructor?8?$AA@ 0000000180067740     libvcruntime:undname.obj
 0002:00008760       ??_C@_0BO@OBMKPJIG@?$GAdefault?5constructor?5closure?8?$AA@ 0000000180067760     libvcruntime:undname.obj
 0002:00008780       ??_C@_0BN@IMDCHIKM@?$GAscalar?5deleting?5destructor?8?$AA@ 0000000180067780     libvcruntime:undname.obj
 0002:000087a0       ??_C@_0BO@PFGOCPJJ@?$GAvector?5constructor?5iterator?8?$AA@ 00000001800677a0     libvcruntime:undname.obj
 0002:000087c0       ??_C@_0BN@LFPFMEDL@?$GAvector?5destructor?5iterator?8?$AA@ 00000001800677c0     libvcruntime:undname.obj
 0002:000087e0       ??_C@_0CE@IKBNEHA@?$GAvector?5vbase?5constructor?5iterat@ 00000001800677e0     libvcruntime:undname.obj
 0002:00008808       ??_C@_0BL@NILFHHPC@?$GAvirtual?5displacement?5map?8?$AA@ 0000000180067808     libvcruntime:undname.obj
 0002:00008828       ??_C@_0CB@JONCMFFK@?$GAeh?5vector?5constructor?5iterator?8@ 0000000180067828     libvcruntime:undname.obj
 0002:00008850       ??_C@_0CA@GCEOPDGL@?$GAeh?5vector?5destructor?5iterator?8?$AA@ 0000000180067850     libvcruntime:undname.obj
 0002:00008870       ??_C@_0CH@OOJPLCPH@?$GAeh?5vector?5vbase?5constructor?5ite@ 0000000180067870     libvcruntime:undname.obj
 0002:00008898       ??_C@_0BL@LLKPOHJI@?$GAcopy?5constructor?5closure?8?$AA@ 0000000180067898     libvcruntime:undname.obj
 0002:000088b8       ??_C@_0BA@KBCDOMBN@?$GAudt?5returning?8?$AA@ 00000001800678b8     libvcruntime:undname.obj
 0002:000088c8       ??_C@_03KLGMFNMG@?$GAEH?$AA@ 00000001800678c8     libvcruntime:undname.obj
 0002:000088cc       ??_C@_05KHLCHHI@?$GARTTI?$AA@ 00000001800678cc     libvcruntime:undname.obj
 0002:000088d8       ??_C@_0BA@KKLDJDLB@?$GAlocal?5vftable?8?$AA@ 00000001800678d8     libvcruntime:undname.obj
 0002:000088e8       ??_C@_0CE@IIHCMGGL@?$GAlocal?5vftable?5constructor?5closu@ 00000001800678e8     libvcruntime:undname.obj
 0002:0000890c       ??_C@_06FHBGPFGH@?5new?$FL?$FN?$AA@ 000000018006790c     libvcruntime:undname.obj
 0002:00008918       ??_C@_09LBNFPBCA@?5delete?$FL?$FN?$AA@ 0000000180067918     libvcruntime:undname.obj
 0002:00008928       ??_C@_0P@HJKNJFNN@?$GAomni?5callsig?8?$AA@ 0000000180067928     libvcruntime:undname.obj
 0002:00008938       ??_C@_0BL@CNOONJFP@?$GAplacement?5delete?5closure?8?$AA@ 0000000180067938     libvcruntime:undname.obj
 0002:00008958       ??_C@_0BN@CKNJLHMB@?$GAplacement?5delete?$FL?$FN?5closure?8?$AA@ 0000000180067958     libvcruntime:undname.obj
 0002:00008978       ??_C@_0CG@CFDHKGGD@?$GAmanaged?5vector?5constructor?5iter@ 0000000180067978     libvcruntime:undname.obj
 0002:000089a0       ??_C@_0CF@IMGKMJNO@?$GAmanaged?5vector?5destructor?5itera@ 00000001800679a0     libvcruntime:undname.obj
 0002:000089c8       ??_C@_0CG@HLDDJMAG@?$GAeh?5vector?5copy?5constructor?5iter@ 00000001800679c8     libvcruntime:undname.obj
 0002:000089f0       ??_C@_0CM@FCBBDIGB@?$GAeh?5vector?5vbase?5copy?5constructo@ 00000001800679f0     libvcruntime:undname.obj
 0002:00008a20       ??_C@_0BL@CLIPGLGB@?$GAdynamic?5initializer?5for?5?8?$AA@ 0000000180067a20     libvcruntime:undname.obj
 0002:00008a40       ??_C@_0CB@PDBIFEP@?$GAdynamic?5atexit?5destructor?5for?5?8@ 0000000180067a40     libvcruntime:undname.obj
 0002:00008a68       ??_C@_0CD@CGAJBKEJ@?$GAvector?5copy?5constructor?5iterato@ 0000000180067a68     libvcruntime:undname.obj
 0002:00008a90       ??_C@_0CJ@GJELGAMM@?$GAvector?5vbase?5copy?5constructor?5i@ 0000000180067a90     libvcruntime:undname.obj
 0002:00008ac0       ??_C@_0CL@FGIJHLCE@?$GAmanaged?5vector?5copy?5constructor@ 0000000180067ac0     libvcruntime:undname.obj
 0002:00008af0       ??_C@_0BM@PMGGMLDN@?$GAlocal?5static?5thread?5guard?8?$AA@ 0000000180067af0     libvcruntime:undname.obj
 0002:00008b10       ??_C@_0N@BDNMDMOL@operator?5?$CC?$CC?5?$AA@ 0000000180067b10     libvcruntime:undname.obj
 0002:00008b20       ??_C@_0BC@DAFEJGAK@?5Type?5Descriptor?8?$AA@ 0000000180067b20     libvcruntime:undname.obj
 0002:00008b38       ??_C@_0BM@LDKODKLH@?5Base?5Class?5Descriptor?5at?5?$CI?$AA@ 0000000180067b38     libvcruntime:undname.obj
 0002:00008b58       ??_C@_0BD@LGICGFMM@?5Base?5Class?5Array?8?$AA@ 0000000180067b58     libvcruntime:undname.obj
 0002:00008b70       ??_C@_0BN@MECKDCOJ@?5Class?5Hierarchy?5Descriptor?8?$AA@ 0000000180067b70     libvcruntime:undname.obj
 0002:00008b90       ??_C@_0BK@CFCOFLF@?5Complete?5Object?5Locator?8?$AA@ 0000000180067b90     libvcruntime:undname.obj
 0002:00008d20       standard_lookup_table      0000000180067d20     libucrt:output.obj
 0002:00008d80       format_validation_lookup_table 0000000180067d80     libucrt:output.obj
 0002:00008ddc       ??_C@_06OJHGLDPL@?$CInull?$CJ?$AA@ 0000000180067ddc     libucrt:output.obj
 0002:00008de8       ??_C@_1O@CEDCILHN@?$AA?$CI?$AAn?$AAu?$AAl?$AAl?$AA?$CJ?$AA?$AA@ 0000000180067de8     libucrt:output.obj
 0002:00008df8       __real@8000000000000000    0000000180067df8     libucrt:frexp.obj
 0002:00008e00       __newctype                 0000000180067e00     libucrt:ctype.obj
 0002:00009100       __newclmap                 0000000180068100     libucrt:ctype.obj
 0002:00009280       __newcumap                 0000000180068280     libucrt:ctype.obj
 0002:00009400       _wctype                    0000000180068400     libucrt:ctype.obj
 0002:00009610       ?large_power_data@?1??multiply_by_power_of_ten@__crt_strtox@@YA_NAEAUbig_integer@2@I@Z@4QBIB 0000000180068610     libucrt:strtod.obj
 0002:00009f20       ?large_power_indices@?1??multiply_by_power_of_ten@__crt_strtox@@YA_NAEAUbig_integer@2@I@Z@4QBUunpack_index@?1??12@YA_N0I@Z@B 0000000180068f20     libucrt:strtod.obj
 0002:00009fb8       ?small_powers_of_ten@?6??multiply_by_power_of_ten@__crt_strtox@@YA_NAEAUbig_integer@2@I@Z@4QBIB 0000000180068fb8     libucrt:strtod.obj
 0002:0000bc90       __acrt_exception_action_table 000000018006ac90     libucrt:exception_filter.obj
 0002:0000bd50       __acrt_signal_action_table_count 000000018006ad50     libucrt:exception_filter.obj
 0002:0000bd58       __acrt_signal_action_first_fpe_index 000000018006ad58     libucrt:exception_filter.obj
 0002:0000bd60       __acrt_signal_action_fpe_count 000000018006ad60     libucrt:exception_filter.obj
 0002:0000bd68       ??_C@_1BI@BGOHAHKC@?$AAm?$AAs?$AAc?$AAo?$AAr?$AAe?$AAe?$AA?4?$AAd?$AAl?$AAl?$AA?$AA@ 000000018006ad68     libucrt:exit.obj
 0002:0000bd80       ??_C@_0P@MIGLKIOC@CorExitProcess?$AA@ 000000018006ad80     libucrt:exit.obj
 0002:0000bf80       ??_C@_04EIAKFFMI@sqrt?$AA@ 000000018006af80     libucrt:sqrt.obj
 0002:0000bf90       __lc_category              000000018006af90     libucrt:wsetlocale.obj
 0002:0000c020       ??_C@_1O@GIFLHMA@?$AAL?$AAC?$AA_?$AAA?$AAL?$AAL?$AA?$AA@ 000000018006b020     libucrt:wsetlocale.obj
 0002:0000c030       ??_C@_1BG@PPOMIBNJ@?$AAL?$AAC?$AA_?$AAC?$AAO?$AAL?$AAL?$AAA?$AAT?$AAE?$AA?$AA@ 000000018006b030     libucrt:wsetlocale.obj
 0002:0000c048       ??_C@_1BC@FFJGAPJM@?$AAL?$AAC?$AA_?$AAC?$AAT?$AAY?$AAP?$AAE?$AA?$AA@ 000000018006b048     libucrt:wsetlocale.obj
 0002:0000c060       ??_C@_1BI@PCKFNJFB@?$AAL?$AAC?$AA_?$AAM?$AAO?$AAN?$AAE?$AAT?$AAA?$AAR?$AAY?$AA?$AA@ 000000018006b060     libucrt:wsetlocale.obj
 0002:0000c078       ??_C@_1BG@ENIEDKID@?$AAL?$AAC?$AA_?$AAN?$AAU?$AAM?$AAE?$AAR?$AAI?$AAC?$AA?$AA@ 000000018006b078     libucrt:wsetlocale.obj
 0002:0000c090       ??_C@_1BA@HAAOMIIG@?$AAL?$AAC?$AA_?$AAT?$AAI?$AAM?$AAE?$AA?$AA@ 000000018006b090     libucrt:wsetlocale.obj
 0002:0000c120       ??_C@_15NBPDDFIP@?$AA?$DN?$AA?$DL?$AA?$AA@ 000000018006b120     libucrt:wsetlocale.obj
 0002:0000c128       ??_C@_13PJJBFPED@?$AA?$DL?$AA?$AA@ 000000018006b128     libucrt:wsetlocale.obj
 0002:0000c12c       ??_C@_13NMPKAAJP@?$AA?$DN?$AA?$AA@ 000000018006b12c     libucrt:wsetlocale.obj
 0002:0000c130       ??_C@_13FHBKNHDA@?$AAC?$AA?$AA@ 000000018006b130     libucrt:wsetlocale.obj
 0002:0000c138       ??_C@_17MBJJLFDM@?$AA_?$AA?4?$AA?0?$AA?$AA@ 000000018006b138     libucrt:wsetlocale.obj
 0002:0000c140       ??_C@_13ENNFDPBH@?$AA_?$AA?$AA@ 000000018006b140     libucrt:wsetlocale.obj
 0002:0000c144       ??_C@_13JOFGPIOO@?$AA?4?$AA?$AA@ 000000018006b144     libucrt:wsetlocale.obj
 0002:0000c150       __lc_time_c                000000018006b150     libucrt:nlsdata.obj
 0002:0000c410       ??_C@_03KOEHGMDN@Sun?$AA@  000000018006b410     libucrt:nlsdata.obj
 0002:0000c414       ??_C@_03PDAGKDH@Mon?$AA@   000000018006b414     libucrt:nlsdata.obj
 0002:0000c418       ??_C@_03NAGEINEP@Tue?$AA@  000000018006b418     libucrt:nlsdata.obj
 0002:0000c41c       ??_C@_03MHOMLAJA@Wed?$AA@  000000018006b41c     libucrt:nlsdata.obj
 0002:0000c420       ??_C@_03IOFIKPDN@Thu?$AA@  000000018006b420     libucrt:nlsdata.obj
 0002:0000c424       ??_C@_03IDIOELNC@Fri?$AA@  000000018006b424     libucrt:nlsdata.obj
 0002:0000c428       ??_C@_03FEFJNEK@Sat?$AA@   000000018006b428     libucrt:nlsdata.obj
 0002:0000c42c       ??_C@_06OOPIFAJ@Sunday?$AA@ 000000018006b42c     libucrt:nlsdata.obj
 0002:0000c434       ??_C@_06JLEDEDGH@Monday?$AA@ 000000018006b434     libucrt:nlsdata.obj
 0002:0000c440       ??_C@_07BAAGCFCM@Tuesday?$AA@ 000000018006b440     libucrt:nlsdata.obj
 0002:0000c448       ??_C@_09DLIGFAKA@Wednesday?$AA@ 000000018006b448     libucrt:nlsdata.obj
 0002:0000c458       ??_C@_08HACCIKIA@Thursday?$AA@ 000000018006b458     libucrt:nlsdata.obj
 0002:0000c464       ??_C@_06JECMNKMI@Friday?$AA@ 000000018006b464     libucrt:nlsdata.obj
 0002:0000c470       ??_C@_08INBOOONO@Saturday?$AA@ 000000018006b470     libucrt:nlsdata.obj
 0002:0000c47c       ??_C@_03JIHJHPIE@Jan?$AA@  000000018006b47c     libucrt:nlsdata.obj
 0002:0000c480       ??_C@_03HJBDCHOM@Feb?$AA@  000000018006b480     libucrt:nlsdata.obj
 0002:0000c484       ??_C@_03ODNJBKGA@Mar?$AA@  000000018006b484     libucrt:nlsdata.obj
 0002:0000c488       ??_C@_03LEOLGMJP@Apr?$AA@  000000018006b488     libucrt:nlsdata.obj
 0002:0000c48c       ??_C@_03CNMDKL@May?$AA@    000000018006b48c     libucrt:nlsdata.obj
 0002:0000c490       ??_C@_03IDFGHECI@Jun?$AA@  000000018006b490     libucrt:nlsdata.obj
 0002:0000c494       ??_C@_03LBGABGKK@Jul?$AA@  000000018006b494     libucrt:nlsdata.obj
 0002:0000c498       ??_C@_03IFJFEIGA@Aug?$AA@  000000018006b498     libucrt:nlsdata.obj
 0002:0000c49c       ??_C@_03GGCAPAJC@Sep?$AA@  000000018006b49c     libucrt:nlsdata.obj
 0002:0000c4a0       ??_C@_03BMAOKBAD@Oct?$AA@  000000018006b4a0     libucrt:nlsdata.obj
 0002:0000c4a4       ??_C@_03JPJOFNIA@Nov?$AA@  000000018006b4a4     libucrt:nlsdata.obj
 0002:0000c4a8       ??_C@_03MKABNOCG@Dec?$AA@  000000018006b4a8     libucrt:nlsdata.obj
 0002:0000c4b0       ??_C@_07CGJPFGJA@January?$AA@ 000000018006b4b0     libucrt:nlsdata.obj
 0002:0000c4b8       ??_C@_08GNJGEPFN@February?$AA@ 000000018006b4b8     libucrt:nlsdata.obj
 0002:0000c4c4       ??_C@_05HPCKOFNC@March?$AA@ 000000018006b4c4     libucrt:nlsdata.obj
 0002:0000c4cc       ??_C@_05DMJDNLEJ@April?$AA@ 000000018006b4cc     libucrt:nlsdata.obj
 0002:0000c4d4       ??_C@_04CNLMGBGM@June?$AA@ 000000018006b4d4     libucrt:nlsdata.obj
 0002:0000c4dc       ??_C@_04MIEPOIFP@July?$AA@ 000000018006b4dc     libucrt:nlsdata.obj
 0002:0000c4e4       ??_C@_06LBBHFDDG@August?$AA@ 000000018006b4e4     libucrt:nlsdata.obj
 0002:0000c4f0       ??_C@_09BHHEALKD@September?$AA@ 000000018006b4f0     libucrt:nlsdata.obj
 0002:0000c500       ??_C@_07JJNFCEND@October?$AA@ 000000018006b500     libucrt:nlsdata.obj
 0002:0000c508       ??_C@_08HCHEGEOA@November?$AA@ 000000018006b508     libucrt:nlsdata.obj
 0002:0000c518       ??_C@_08EDHMEBNP@December?$AA@ 000000018006b518     libucrt:nlsdata.obj
 0002:0000c524       ??_C@_02DEDBPAFC@AM?$AA@   000000018006b524     libucrt:nlsdata.obj
 0002:0000c528       ??_C@_02CJNFDJBF@PM?$AA@   000000018006b528     libucrt:nlsdata.obj
 0002:0000c530       ??_C@_08BPBNCDIB@MM?1dd?1yy?$AA@ 000000018006b530     libucrt:nlsdata.obj
 0002:0000c540       ??_C@_0BE@CKGJFCPC@dddd?0?5MMMM?5dd?0?5yyyy?$AA@ 000000018006b540     libucrt:nlsdata.obj
 0002:0000c558       ??_C@_08JCCMCCIL@HH?3mm?3ss?$AA@ 000000018006b558     libucrt:nlsdata.obj
 0002:0000c568       ??_C@_17MBGCMIPB@?$AAS?$AAu?$AAn?$AA?$AA@ 000000018006b568     libucrt:nlsdata.obj
 0002:0000c570       ??_C@_17KBOMKBF@?$AAM?$AAo?$AAn?$AA?$AA@ 000000018006b570     libucrt:nlsdata.obj
 0002:0000c578       ??_C@_17BMKGEGOJ@?$AAT?$AAu?$AAe?$AA?$AA@ 000000018006b578     libucrt:nlsdata.obj
 0002:0000c580       ??_C@_17CJEDCEPE@?$AAW?$AAe?$AAd?$AA?$AA@ 000000018006b580     libucrt:nlsdata.obj
 0002:0000c588       ??_C@_17PDPHAADD@?$AAT?$AAh?$AAu?$AA?$AA@ 000000018006b588     libucrt:nlsdata.obj
 0002:0000c590       ??_C@_17HFOLPPLP@?$AAF?$AAr?$AAi?$AA?$AA@ 000000018006b590     libucrt:nlsdata.obj
 0002:0000c598       ??_C@_17GGIBDPIH@?$AAS?$AAa?$AAt?$AA?$AA@ 000000018006b598     libucrt:nlsdata.obj
 0002:0000c5a0       ??_C@_1O@IHNHDHPB@?$AAS?$AAu?$AAn?$AAd?$AAa?$AAy?$AA?$AA@ 000000018006b5a0     libucrt:nlsdata.obj
 0002:0000c5b0       ??_C@_1O@MMNBFLIA@?$AAM?$AAo?$AAn?$AAd?$AAa?$AAy?$AA?$AA@ 000000018006b5b0     libucrt:nlsdata.obj
 0002:0000c5c0       ??_C@_1BA@ENFBFFEK@?$AAT?$AAu?$AAe?$AAs?$AAd?$AAa?$AAy?$AA?$AA@ 000000018006b5c0     libucrt:nlsdata.obj
 0002:0000c5d0       ??_C@_1BE@EBOGMDOH@?$AAW?$AAe?$AAd?$AAn?$AAe?$AAs?$AAd?$AAa?$AAy?$AA?$AA@ 000000018006b5d0     libucrt:nlsdata.obj
 0002:0000c5e8       ??_C@_1BC@HHMNLIHE@?$AAT?$AAh?$AAu?$AAr?$AAs?$AAd?$AAa?$AAy?$AA?$AA@ 000000018006b5e8     libucrt:nlsdata.obj
 0002:0000c600       ??_C@_1O@PDICJHAG@?$AAF?$AAr?$AAi?$AAd?$AAa?$AAy?$AA?$AA@ 000000018006b600     libucrt:nlsdata.obj
 0002:0000c610       ??_C@_1BC@ENMNNPAJ@?$AAS?$AAa?$AAt?$AAu?$AAr?$AAd?$AAa?$AAy?$AA?$AA@ 000000018006b610     libucrt:nlsdata.obj
 0002:0000c628       ??_C@_17DKNBKCHM@?$AAJ?$AAa?$AAn?$AA?$AA@ 000000018006b628     libucrt:nlsdata.obj
 0002:0000c630       ??_C@_17LMDJEKJN@?$AAF?$AAe?$AAb?$AA?$AA@ 000000018006b630     libucrt:nlsdata.obj
 0002:0000c638       ??_C@_17CKNLEDEC@?$AAM?$AAa?$AAr?$AA?$AA@ 000000018006b638     libucrt:nlsdata.obj
 0002:0000c640       ??_C@_17LFPOIHDD@?$AAA?$AAp?$AAr?$AA?$AA@ 000000018006b640     libucrt:nlsdata.obj
 0002:0000c648       ??_C@_17PNNKMEED@?$AAM?$AAa?$AAy?$AA?$AA@ 000000018006b648     libucrt:nlsdata.obj
 0002:0000c650       ??_C@_17KCJGOCPB@?$AAJ?$AAu?$AAn?$AA?$AA@ 000000018006b650     libucrt:nlsdata.obj
 0002:0000c658       ??_C@_17IJPCKHK@?$AAJ?$AAu?$AAl?$AA?$AA@ 000000018006b658     libucrt:nlsdata.obj
 0002:0000c660       ??_C@_17ICPELBCN@?$AAA?$AAu?$AAg?$AA?$AA@ 000000018006b660     libucrt:nlsdata.obj
 0002:0000c668       ??_C@_17HCHCOKMG@?$AAS?$AAe?$AAp?$AA?$AA@ 000000018006b668     libucrt:nlsdata.obj
 0002:0000c670       ??_C@_17FNLKOI@?$AAO?$AAc?$AAt?$AA?$AA@ 000000018006b670     libucrt:nlsdata.obj
 0002:0000c678       ??_C@_17BBDMLCIG@?$AAN?$AAo?$AAv?$AA?$AA@ 000000018006b678     libucrt:nlsdata.obj
 0002:0000c680       ??_C@_17EGKACKIF@?$AAD?$AAe?$AAc?$AA?$AA@ 000000018006b680     libucrt:nlsdata.obj
 0002:0000c688       ??_C@_1BA@EFMEIEBA@?$AAJ?$AAa?$AAn?$AAu?$AAa?$AAr?$AAy?$AA?$AA@ 000000018006b688     libucrt:nlsdata.obj
 0002:0000c698       ??_C@_1BC@JGDDFFAM@?$AAF?$AAe?$AAb?$AAr?$AAu?$AAa?$AAr?$AAy?$AA?$AA@ 000000018006b698     libucrt:nlsdata.obj
 0002:0000c6b0       ??_C@_1M@IKEENEDF@?$AAM?$AAa?$AAr?$AAc?$AAh?$AA?$AA@ 000000018006b6b0     libucrt:nlsdata.obj
 0002:0000c6c0       ??_C@_1M@GJNLMHFD@?$AAA?$AAp?$AAr?$AAi?$AAl?$AA?$AA@ 000000018006b6c0     libucrt:nlsdata.obj
 0002:0000c6d0       ??_C@_19EPFLPGAP@?$AAJ?$AAu?$AAn?$AAe?$AA?$AA@ 000000018006b6d0     libucrt:nlsdata.obj
 0002:0000c6e0       ??_C@_19BIFMLPCD@?$AAJ?$AAu?$AAl?$AAy?$AA?$AA@ 000000018006b6e0     libucrt:nlsdata.obj
 0002:0000c6f0       ??_C@_1O@PAHLKOAC@?$AAA?$AAu?$AAg?$AAu?$AAs?$AAt?$AA?$AA@ 000000018006b6f0     libucrt:nlsdata.obj
 0002:0000c700       ??_C@_1BE@DKAAMBJL@?$AAS?$AAe?$AAp?$AAt?$AAe?$AAm?$AAb?$AAe?$AAr?$AA?$AA@ 000000018006b700     libucrt:nlsdata.obj
 0002:0000c718       ??_C@_1BA@EPANDLNG@?$AAO?$AAc?$AAt?$AAo?$AAb?$AAe?$AAr?$AA?$AA@ 000000018006b718     libucrt:nlsdata.obj
 0002:0000c728       ??_C@_1BC@BGLIFPF@?$AAN?$AAo?$AAv?$AAe?$AAm?$AAb?$AAe?$AAr?$AA?$AA@ 000000018006b728     libucrt:nlsdata.obj
 0002:0000c740       ??_C@_1BC@FEMKIFH@?$AAD?$AAe?$AAc?$AAe?$AAm?$AAb?$AAe?$AAr?$AA?$AA@ 000000018006b740     libucrt:nlsdata.obj
 0002:0000c754       ??_C@_15ODEHAHHF@?$AAA?$AAM?$AA?$AA@ 000000018006b754     libucrt:nlsdata.obj
 0002:0000c75c       ??_C@_15CLMNNGEL@?$AAP?$AAM?$AA?$AA@ 000000018006b75c     libucrt:nlsdata.obj
 0002:0000c768       ??_C@_1BC@IEBCMHCM@?$AAM?$AAM?$AA?1?$AAd?$AAd?$AA?1?$AAy?$AAy?$AA?$AA@ 000000018006b768     libucrt:nlsdata.obj
 0002:0000c780       ??_C@_1CI@KNAKOEBC@?$AAd?$AAd?$AAd?$AAd?$AA?0?$AA?5?$AAM?$AAM?$AAM?$AAM?$AA?5?$AAd?$AAd?$AA?0?$AA?5?$AAy?$AAy?$AAy?$AAy?$AA?$AA@ 000000018006b780     libucrt:nlsdata.obj
 0002:0000c7a8       ??_C@_1BC@GDGBMEMK@?$AAH?$AAH?$AA?3?$AAm?$AAm?$AA?3?$AAs?$AAs?$AA?$AA@ 000000018006b7a8     libucrt:nlsdata.obj
 0002:0000c7bc       ??_C@_03OEIAHPBN@INF?$AA@  000000018006b7bc     libucrt:cvt.obj
 0002:0000c7c0       ??_C@_03OJHLLCGB@inf?$AA@  000000018006b7c0     libucrt:cvt.obj
 0002:0000c7c4       ??_C@_03LKNCIKJB@NAN?$AA@  000000018006b7c4     libucrt:cvt.obj
 0002:0000c7c8       ??_C@_03LHCJEHON@nan?$AA@  000000018006b7c8     libucrt:cvt.obj
 0002:0000c7d0       ??_C@_09OFJJIMPC@NAN?$CISNAN?$CJ?$AA@ 000000018006b7d0     libucrt:cvt.obj
 0002:0000c7e0       ??_C@_09IPFBKMDL@nan?$CIsnan?$CJ?$AA@ 000000018006b7e0     libucrt:cvt.obj
 0002:0000c7f0       ??_C@_08IKHNHAJ@NAN?$CIIND?$CJ?$AA@ 000000018006b7f0     libucrt:cvt.obj
 0002:0000c800       ??_C@_08OFCDMILK@nan?$CIind?$CJ?$AA@ 000000018006b800     libucrt:cvt.obj
 0002:0000c80c       ??_C@_05KLBDPFGC@e?$CL000?$AA@ 000000018006b80c     libucrt:cvt.obj
 0002:0000c9f0       ??_C@_03KHJOGHMM@exp?$AA@  000000018006b9f0     libucrt:fpexcept.obj
 0002:0000c9f4       ??_C@_03JGHBODFD@pow?$AA@  000000018006b9f4     libucrt:fpexcept.obj
 0002:0000c9f8       ??_C@_03MGHMBJCF@log?$AA@  000000018006b9f8     libucrt:fpexcept.obj
 0002:0000c9fc       ??_C@_05HGHHAHAP@log10?$AA@ 000000018006b9fc     libucrt:fpexcept.obj
 0002:0000ca04       ??_C@_04COOMCNPB@sinh?$AA@ 000000018006ba04     libucrt:fpexcept.obj
 0002:0000ca0c       ??_C@_04HPJJNFIM@cosh?$AA@ 000000018006ba0c     libucrt:fpexcept.obj
 0002:0000ca14       ??_C@_04FJHINJAO@tanh?$AA@ 000000018006ba14     libucrt:fpexcept.obj
 0002:0000ca1c       ??_C@_04FIHNOPOL@asin?$AA@ 000000018006ba1c     libucrt:fpexcept.obj
 0002:0000ca24       ??_C@_04PDIFKINK@acos?$AA@ 000000018006ba24     libucrt:fpexcept.obj
 0002:0000ca2c       ??_C@_04MLLJIGOK@atan?$AA@ 000000018006ba2c     libucrt:fpexcept.obj
 0002:0000ca34       ??_C@_05KNGEOGJB@atan2?$AA@ 000000018006ba34     libucrt:fpexcept.obj
 0002:0000ca3c       ??_C@_03BLEJJJBH@sin?$AA@  000000018006ba3c     libucrt:fpexcept.obj
 0002:0000ca40       ??_C@_03LALBNOCG@cos?$AA@  000000018006ba40     libucrt:fpexcept.obj
 0002:0000ca44       ??_C@_03IIINPABG@tan?$AA@  000000018006ba44     libucrt:fpexcept.obj
 0002:0000ca48       ??_C@_04GFPJNGEK@ceil?$AA@ 000000018006ba48     libucrt:fpexcept.obj
 0002:0000ca50       ??_C@_05PBJFFIGL@floor?$AA@ 000000018006ba50     libucrt:fpexcept.obj
 0002:0000ca58       ??_C@_04ODHECPBC@fabs?$AA@ 000000018006ba58     libucrt:fpexcept.obj
 0002:0000ca60       ??_C@_04EHEDPDJG@modf?$AA@ 000000018006ba60     libucrt:fpexcept.obj
 0002:0000ca68       ??_C@_05CEJMAHNP@ldexp?$AA@ 000000018006ba68     libucrt:fpexcept.obj
 0002:0000ca70       ??_C@_05KBKMEMPO@_cabs?$AA@ 000000018006ba70     libucrt:fpexcept.obj
 0002:0000ca78       ??_C@_06MEIMCGCF@_hypot?$AA@ 000000018006ba78     libucrt:fpexcept.obj
 0002:0000ca80       ??_C@_04KEPJIHGP@fmod?$AA@ 000000018006ba80     libucrt:fpexcept.obj
 0002:0000ca88       ??_C@_05GKKHEGJL@frexp?$AA@ 000000018006ba88     libucrt:fpexcept.obj
 0002:0000ca90       ??_C@_03MJLDFKDL@_y0?$AA@  000000018006ba90     libucrt:fpexcept.obj
 0002:0000ca94       ??_C@_03NAKIGLHK@_y1?$AA@  000000018006ba94     libucrt:fpexcept.obj
 0002:0000ca98       ??_C@_03ONILCKOB@_yn?$AA@  000000018006ba98     libucrt:fpexcept.obj
 0002:0000ca9c       ??_C@_05JGDBENOH@_logb?$AA@ 000000018006ba9c     libucrt:fpexcept.obj
 0002:0000caa8       ??_C@_0L@KDOEJCKC@_nextafter?$AA@ 000000018006baa8     libucrt:fpexcept.obj
 0002:0000cab8       _d_inf                     000000018006bab8     libucrt:util.obj
 0002:0000cac0       _d_max                     000000018006bac0     libucrt:util.obj
 0002:0000cb70       ??_C@_1EG@CNNIPFIM@?$AAa?$AAp?$AAi?$AA?9?$AAm?$AAs?$AA?9?$AAw?$AAi?$AAn?$AA?9?$AAa?$AAp?$AAp?$AAm?$AAo?$AAd?$AAe?$AAl?$AA?9?$AAr?$AAu?$AAn?$AAt?$AAi?$AAm?$AAe?$AA?9?$AAl?$AA1?$AA?9?$AA1@ 000000018006bb70     libucrt:winapi_thunks.obj
 0002:0000cbc0       ??_C@_1EA@JGEFHKEI@?$AAa?$AAp?$AAi?$AA?9?$AAm?$AAs?$AA?9?$AAw?$AAi?$AAn?$AA?9?$AAc?$AAo?$AAr?$AAe?$AA?9?$AAd?$AAa?$AAt?$AAe?$AAt?$AAi?$AAm?$AAe?$AA?9?$AAl?$AA1?$AA?9?$AA1?$AA?9?$AA1?$AA?$AA@ 000000018006bbc0     libucrt:winapi_thunks.obj
 0002:0000cc00       ??_C@_1DI@GCIAAENM@?$AAa?$AAp?$AAi?$AA?9?$AAm?$AAs?$AA?9?$AAw?$AAi?$AAn?$AA?9?$AAc?$AAo?$AAr?$AAe?$AA?9?$AAf?$AAi?$AAl?$AAe?$AA?9?$AAl?$AA2?$AA?9?$AA1?$AA?9?$AA1?$AA?$AA@ 000000018006bc00     libucrt:winapi_thunks.obj
 0002:0000cc40       ??_C@_1EI@MPIAOHOC@?$AAa?$AAp?$AAi?$AA?9?$AAm?$AAs?$AA?9?$AAw?$AAi?$AAn?$AA?9?$AAc?$AAo?$AAr?$AAe?$AA?9?$AAl?$AAo?$AAc?$AAa?$AAl?$AAi?$AAz?$AAa?$AAt?$AAi?$AAo?$AAn?$AA?9?$AAl?$AA1?$AA?9@ 000000018006bc40     libucrt:winapi_thunks.obj
 0002:0000cc90       ??_C@_1FK@FPHCKFIE@?$AAa?$AAp?$AAi?$AA?9?$AAm?$AAs?$AA?9?$AAw?$AAi?$AAn?$AA?9?$AAc?$AAo?$AAr?$AAe?$AA?9?$AAl?$AAo?$AAc?$AAa?$AAl?$AAi?$AAz?$AAa?$AAt?$AAi?$AAo?$AAn?$AA?9?$AAo?$AAb?$AAs@ 000000018006bc90     libucrt:winapi_thunks.obj
 0002:0000ccf0       ??_C@_1EM@DILCGIIO@?$AAa?$AAp?$AAi?$AA?9?$AAm?$AAs?$AA?9?$AAw?$AAi?$AAn?$AA?9?$AAc?$AAo?$AAr?$AAe?$AA?9?$AAp?$AAr?$AAo?$AAc?$AAe?$AAs?$AAs?$AAt?$AAh?$AAr?$AAe?$AAa?$AAd?$AAs?$AA?9?$AAl@ 000000018006bcf0     libucrt:winapi_thunks.obj
 0002:0000cd40       ??_C@_1DM@LNCGDDPN@?$AAa?$AAp?$AAi?$AA?9?$AAm?$AAs?$AA?9?$AAw?$AAi?$AAn?$AA?9?$AAc?$AAo?$AAr?$AAe?$AA?9?$AAs?$AAt?$AAr?$AAi?$AAn?$AAg?$AA?9?$AAl?$AA1?$AA?9?$AA1?$AA?9?$AA0?$AA?$AA@ 000000018006bd40     libucrt:winapi_thunks.obj
 0002:0000cd80       ??_C@_1DO@FPAPJEMD@?$AAa?$AAp?$AAi?$AA?9?$AAm?$AAs?$AA?9?$AAw?$AAi?$AAn?$AA?9?$AAc?$AAo?$AAr?$AAe?$AA?9?$AAs?$AAy?$AAs?$AAi?$AAn?$AAf?$AAo?$AA?9?$AAl?$AA1?$AA?9?$AA2?$AA?9?$AA1?$AA?$AA@ 000000018006bd80     libucrt:winapi_thunks.obj
 0002:0000cdc0       ??_C@_1DK@NDHNAHIO@?$AAa?$AAp?$AAi?$AA?9?$AAm?$AAs?$AA?9?$AAw?$AAi?$AAn?$AA?9?$AAc?$AAo?$AAr?$AAe?$AA?9?$AAw?$AAi?$AAn?$AAr?$AAt?$AA?9?$AAl?$AA1?$AA?9?$AA1?$AA?9?$AA0?$AA?$AA@ 000000018006bdc0     libucrt:winapi_thunks.obj
 0002:0000ce00       ??_C@_1DM@KGHDGBCM@?$AAa?$AAp?$AAi?$AA?9?$AAm?$AAs?$AA?9?$AAw?$AAi?$AAn?$AA?9?$AAc?$AAo?$AAr?$AAe?$AA?9?$AAx?$AAs?$AAt?$AAa?$AAt?$AAe?$AA?9?$AAl?$AA2?$AA?9?$AA1?$AA?9?$AA0?$AA?$AA@ 000000018006be00     libucrt:winapi_thunks.obj
 0002:0000ce40       ??_C@_1EO@IJIOEFOH@?$AAa?$AAp?$AAi?$AA?9?$AAm?$AAs?$AA?9?$AAw?$AAi?$AAn?$AA?9?$AAr?$AAt?$AAc?$AAo?$AAr?$AAe?$AA?9?$AAn?$AAt?$AAu?$AAs?$AAe?$AAr?$AA?9?$AAw?$AAi?$AAn?$AAd?$AAo?$AAw?$AA?9@ 000000018006be40     libucrt:winapi_thunks.obj
